
Math_Training.elf:     file format elf32-littlenios2
Math_Training.elf
architecture: nios2:r1, flags 0x00000112:
EXEC_P, HAS_SYMS, D_PAGED
start address 0x08400224

Program Header:
    LOAD off    0x00001000 vaddr 0x08000000 paddr 0x08000000 align 2**12
         filesz 0x00000020 memsz 0x00000020 flags r-x
    LOAD off    0x00002000 vaddr 0x08400000 paddr 0x08400000 align 2**12
         filesz 0x00038ea0 memsz 0x00038ea0 flags r-x
    LOAD off    0x0003aea0 vaddr 0x08438ea0 paddr 0x0843c090 align 2**12
         filesz 0x000031f0 memsz 0x000031f0 flags rw-
    LOAD off    0x0003e280 vaddr 0x0843f280 paddr 0x0843f280 align 2**12
         filesz 0x00000000 memsz 0x00000164 flags rw-

Sections:
Idx Name          Size      VMA       LMA       File off  Algn
  0 .entry        00000020  08000000  08000000  00001000  2**5
                  CONTENTS, ALLOC, LOAD, READONLY, CODE
  1 .exceptions   00000224  08400000  08400000  00002000  2**2
                  CONTENTS, ALLOC, LOAD, READONLY, CODE
  2 .text         0000f8f8  08400224  08400224  00002224  2**2
                  CONTENTS, ALLOC, LOAD, READONLY, CODE
  3 .rodata       00029384  0840fb1c  0840fb1c  00011b1c  2**2
                  CONTENTS, ALLOC, LOAD, READONLY, DATA
  4 .rwdata       000031f0  08438ea0  0843c090  0003aea0  2**2
                  CONTENTS, ALLOC, LOAD, DATA, SMALL_DATA
  5 .bss          00000164  0843f280  0843f280  0003e280  2**2
                  ALLOC, SMALL_DATA
  6 .sdram        00000000  0843f3e4  0843f3e4  0003e090  2**0
                  CONTENTS
  7 .comment      00000023  00000000  00000000  0003e090  2**0
                  CONTENTS, READONLY
  8 .debug_aranges 00000f58  00000000  00000000  0003e0b8  2**3
                  CONTENTS, READONLY, DEBUGGING
  9 .debug_info   00022752  00000000  00000000  0003f010  2**0
                  CONTENTS, READONLY, DEBUGGING
 10 .debug_abbrev 000090f2  00000000  00000000  00061762  2**0
                  CONTENTS, READONLY, DEBUGGING
 11 .debug_line   0000b1c6  00000000  00000000  0006a854  2**0
                  CONTENTS, READONLY, DEBUGGING
 12 .debug_frame  00002784  00000000  00000000  00075a1c  2**2
                  CONTENTS, READONLY, DEBUGGING
 13 .debug_str    00004d60  00000000  00000000  000781a0  2**0
                  CONTENTS, READONLY, DEBUGGING
 14 .debug_loc    0000cb54  00000000  00000000  0007cf00  2**0
                  CONTENTS, READONLY, DEBUGGING
 15 .debug_alt_sim_info 00000060  00000000  00000000  00089a54  2**2
                  CONTENTS, READONLY, DEBUGGING
 16 .debug_ranges 000012b0  00000000  00000000  00089ab8  2**3
                  CONTENTS, READONLY, DEBUGGING
 17 .thread_model 00000003  00000000  00000000  0008fc81  2**0
                  CONTENTS, READONLY
 18 .cpu          0000000a  00000000  00000000  0008fc84  2**0
                  CONTENTS, READONLY
 19 .qsys         00000001  00000000  00000000  0008fc8e  2**0
                  CONTENTS, READONLY
 20 .simulation_enabled 00000001  00000000  00000000  0008fc8f  2**0
                  CONTENTS, READONLY
 21 .sysid_hash   00000004  00000000  00000000  0008fc90  2**0
                  CONTENTS, READONLY
 22 .sysid_base   00000004  00000000  00000000  0008fc94  2**0
                  CONTENTS, READONLY
 23 .sysid_time   00000004  00000000  00000000  0008fc98  2**0
                  CONTENTS, READONLY
 24 .stderr_dev   0000000b  00000000  00000000  0008fc9c  2**0
                  CONTENTS, READONLY
 25 .stdin_dev    0000000b  00000000  00000000  0008fca7  2**0
                  CONTENTS, READONLY
 26 .stdout_dev   0000000b  00000000  00000000  0008fcb2  2**0
                  CONTENTS, READONLY
 27 .sopc_system_name 0000000e  00000000  00000000  0008fcbd  2**0
                  CONTENTS, READONLY
 28 .quartus_project_dir 00000043  00000000  00000000  0008fccb  2**0
                  CONTENTS, READONLY
 29 .sopcinfo     0007b5ce  00000000  00000000  0008fd0e  2**0
                  CONTENTS, READONLY
SYMBOL TABLE:
08000000 l    d  .entry	00000000 .entry
08400000 l    d  .exceptions	00000000 .exceptions
08400224 l    d  .text	00000000 .text
0840fb1c l    d  .rodata	00000000 .rodata
08438ea0 l    d  .rwdata	00000000 .rwdata
0843f280 l    d  .bss	00000000 .bss
0843f3e4 l    d  .sdram	00000000 .sdram
00000000 l    d  .comment	00000000 .comment
00000000 l    d  .debug_aranges	00000000 .debug_aranges
00000000 l    d  .debug_info	00000000 .debug_info
00000000 l    d  .debug_abbrev	00000000 .debug_abbrev
00000000 l    d  .debug_line	00000000 .debug_line
00000000 l    d  .debug_frame	00000000 .debug_frame
00000000 l    d  .debug_str	00000000 .debug_str
00000000 l    d  .debug_loc	00000000 .debug_loc
00000000 l    d  .debug_alt_sim_info	00000000 .debug_alt_sim_info
00000000 l    d  .debug_ranges	00000000 .debug_ranges
00000000 l    df *ABS*	00000000 C:/Users/emilio/UNI/Magistrale/Embedded/progetto/Math_Training/Software/Math_Training_bsp//obj/HAL/src/crt0.o
0840026c l       .text	00000000 alt_after_alt_main
00000000 l    df *ABS*	00000000 alt_irq_handler.c
00000000 l    df *ABS*	00000000 alt_instruction_exception_entry.c
00000000 l    df *ABS*	00000000 main.c
00000000 l    df *ABS*	00000000 1lnn.c
0840fb88 l     O .rodata	0000f500 WEIGHTS
00000000 l    df *ABS*	00000000 LCD.c
00000000 l    df *ABS*	00000000 geometry.c
00000000 l    df *ABS*	00000000 gui.c
00000000 l    df *ABS*	00000000 random_gen.c
00000000 l    df *ABS*	00000000 simple_graphics.c
00000000 l    df *ABS*	00000000 simple_text.c
00000000 l    df *ABS*	00000000 tahomabold_20.c
0841f181 l     O .rodata	000000b6 tahomabold_20_33
0841f237 l     O .rodata	00000104 tahomabold_20_34
0841f33b l     O .rodata	000001a0 tahomabold_20_35
0841f4db l     O .rodata	00000152 tahomabold_20_36
0841f62d l     O .rodata	00000270 tahomabold_20_37
0841f89d l     O .rodata	000001ba tahomabold_20_38
0841fa57 l     O .rodata	0000009c tahomabold_20_39
0841faf3 l     O .rodata	000000ea tahomabold_20_40
0841fbdd l     O .rodata	000000ea tahomabold_20_41
0841fcc7 l     O .rodata	00000152 tahomabold_20_42
0841fe19 l     O .rodata	000001a0 tahomabold_20_43
0841ffb9 l     O .rodata	0000009c tahomabold_20_44
08420055 l     O .rodata	000000ea tahomabold_20_45
0842013f l     O .rodata	0000009c tahomabold_20_46
084201db l     O .rodata	00000138 tahomabold_20_47
08420313 l     O .rodata	00000152 tahomabold_20_48
08420465 l     O .rodata	00000152 tahomabold_20_49
084205b7 l     O .rodata	00000152 tahomabold_20_50
08420709 l     O .rodata	00000152 tahomabold_20_51
0842085b l     O .rodata	00000152 tahomabold_20_52
084209ad l     O .rodata	00000152 tahomabold_20_53
08420aff l     O .rodata	00000152 tahomabold_20_54
08420c51 l     O .rodata	00000152 tahomabold_20_55
08420da3 l     O .rodata	00000152 tahomabold_20_56
08420ef5 l     O .rodata	00000152 tahomabold_20_57
08421047 l     O .rodata	000000b6 tahomabold_20_58
084210fd l     O .rodata	000000b6 tahomabold_20_59
084211b3 l     O .rodata	000001a0 tahomabold_20_60
08421353 l     O .rodata	000001a0 tahomabold_20_61
084214f3 l     O .rodata	000001a0 tahomabold_20_62
08421693 l     O .rodata	0000011e tahomabold_20_63
084217b1 l     O .rodata	000001d4 tahomabold_20_64
08421985 l     O .rodata	0000016c tahomabold_20_65
08421af1 l     O .rodata	0000016c tahomabold_20_66
08421c5d l     O .rodata	00000152 tahomabold_20_67
08421daf l     O .rodata	00000186 tahomabold_20_68
08421f35 l     O .rodata	00000138 tahomabold_20_69
0842206d l     O .rodata	00000138 tahomabold_20_70
084221a5 l     O .rodata	00000186 tahomabold_20_71
0842232b l     O .rodata	00000186 tahomabold_20_72
084224b1 l     O .rodata	00000104 tahomabold_20_73
084225b5 l     O .rodata	00000104 tahomabold_20_74
084226b9 l     O .rodata	0000016c tahomabold_20_75
08422825 l     O .rodata	0000011e tahomabold_20_76
08422943 l     O .rodata	000001d4 tahomabold_20_77
08422b17 l     O .rodata	00000186 tahomabold_20_78
08422c9d l     O .rodata	00000186 tahomabold_20_79
08422e23 l     O .rodata	00000152 tahomabold_20_80
08422f75 l     O .rodata	00000186 tahomabold_20_81
084230fb l     O .rodata	00000186 tahomabold_20_82
08423281 l     O .rodata	00000152 tahomabold_20_83
084233d3 l     O .rodata	00000138 tahomabold_20_84
0842350b l     O .rodata	00000186 tahomabold_20_85
08423691 l     O .rodata	0000016c tahomabold_20_86
084237fd l     O .rodata	00000222 tahomabold_20_87
08423a1f l     O .rodata	0000016c tahomabold_20_88
08423b8b l     O .rodata	0000016c tahomabold_20_89
08423cf7 l     O .rodata	00000138 tahomabold_20_90
08423e2f l     O .rodata	000000ea tahomabold_20_91
08423f19 l     O .rodata	00000138 tahomabold_20_92
08424051 l     O .rodata	000000ea tahomabold_20_93
0842413b l     O .rodata	000001a0 tahomabold_20_94
084242db l     O .rodata	0000001a tahomabold_20_95
084242f5 l     O .rodata	0000011e tahomabold_20_96
08424413 l     O .rodata	00000138 tahomabold_20_97
0842454b l     O .rodata	00000152 tahomabold_20_98
0842469d l     O .rodata	0000011e tahomabold_20_99
084247bb l     O .rodata	00000152 tahomabold_20_100
0842490d l     O .rodata	00000138 tahomabold_20_101
08424a45 l     O .rodata	000000d0 tahomabold_20_102
08424b15 l     O .rodata	00000152 tahomabold_20_103
08424c67 l     O .rodata	00000152 tahomabold_20_104
08424db9 l     O .rodata	0000009c tahomabold_20_105
08424e55 l     O .rodata	000000ea tahomabold_20_106
08424f3f l     O .rodata	00000138 tahomabold_20_107
08425077 l     O .rodata	0000009c tahomabold_20_108
08425113 l     O .rodata	000001ee tahomabold_20_109
08425301 l     O .rodata	00000152 tahomabold_20_110
08425453 l     O .rodata	00000138 tahomabold_20_111
0842558b l     O .rodata	00000152 tahomabold_20_112
084256dd l     O .rodata	00000152 tahomabold_20_113
0842582f l     O .rodata	000000ea tahomabold_20_114
08425919 l     O .rodata	00000104 tahomabold_20_115
08425a1d l     O .rodata	000000d0 tahomabold_20_116
08425aed l     O .rodata	00000152 tahomabold_20_117
08425c3f l     O .rodata	00000138 tahomabold_20_118
08425d77 l     O .rodata	000001d4 tahomabold_20_119
08425f4b l     O .rodata	00000138 tahomabold_20_120
08426083 l     O .rodata	00000138 tahomabold_20_121
084261bb l     O .rodata	0000011e tahomabold_20_122
084262d9 l     O .rodata	00000138 tahomabold_20_123
08426411 l     O .rodata	00000152 tahomabold_20_124
08426563 l     O .rodata	00000138 tahomabold_20_125
0842669b l     O .rodata	000001a0 tahomabold_20_126
00000000 l    df *ABS*	00000000 tahomabold_32.c
0842683b l     O .rodata	000001b8 tahomabold_32_33
084269f3 l     O .rodata	00000280 tahomabold_32_34
08426c73 l     O .rodata	00000410 tahomabold_32_35
08427083 l     O .rodata	00000320 tahomabold_32_36
084273a3 l     O .rodata	000005f0 tahomabold_32_37
08427993 l     O .rodata	00000410 tahomabold_32_38
08427da3 l     O .rodata	00000168 tahomabold_32_39
08427f0b l     O .rodata	00000258 tahomabold_32_40
08428163 l     O .rodata	00000258 tahomabold_32_41
084283bb l     O .rodata	00000320 tahomabold_32_42
084286db l     O .rodata	00000410 tahomabold_32_43
08428aeb l     O .rodata	00000190 tahomabold_32_44
08428c7b l     O .rodata	00000230 tahomabold_32_45
08428eab l     O .rodata	00000190 tahomabold_32_46
0842903b l     O .rodata	000002d0 tahomabold_32_47
0842930b l     O .rodata	00000320 tahomabold_32_48
0842962b l     O .rodata	00000320 tahomabold_32_49
0842994b l     O .rodata	00000320 tahomabold_32_50
08429c6b l     O .rodata	00000320 tahomabold_32_51
08429f8b l     O .rodata	00000320 tahomabold_32_52
0842a2ab l     O .rodata	00000320 tahomabold_32_53
0842a5cb l     O .rodata	00000320 tahomabold_32_54
0842a8eb l     O .rodata	00000320 tahomabold_32_55
0842ac0b l     O .rodata	00000320 tahomabold_32_56
0842af2b l     O .rodata	00000320 tahomabold_32_57
0842b24b l     O .rodata	000001e0 tahomabold_32_58
0842b42b l     O .rodata	000001e0 tahomabold_32_59
0842b60b l     O .rodata	00000410 tahomabold_32_60
0842ba1b l     O .rodata	00000410 tahomabold_32_61
0842be2b l     O .rodata	00000410 tahomabold_32_62
0842c23b l     O .rodata	000002d0 tahomabold_32_63
0842c50b l     O .rodata	00000488 tahomabold_32_64
0842c993 l     O .rodata	00000370 tahomabold_32_65
0842cd03 l     O .rodata	00000370 tahomabold_32_66
0842d073 l     O .rodata	00000348 tahomabold_32_67
0842d3bb l     O .rodata	000003c0 tahomabold_32_68
0842d77b l     O .rodata	00000320 tahomabold_32_69
0842da9b l     O .rodata	000002f8 tahomabold_32_70
0842dd93 l     O .rodata	000003c0 tahomabold_32_71
0842e153 l     O .rodata	000003c0 tahomabold_32_72
0842e513 l     O .rodata	00000258 tahomabold_32_73
0842e76b l     O .rodata	00000280 tahomabold_32_74
0842e9eb l     O .rodata	00000398 tahomabold_32_75
0842ed83 l     O .rodata	000002d0 tahomabold_32_76
0842f053 l     O .rodata	00000488 tahomabold_32_77
0842f4db l     O .rodata	000003e8 tahomabold_32_78
0842f8c3 l     O .rodata	000003e8 tahomabold_32_79
0842fcab l     O .rodata	00000348 tahomabold_32_80
0842fff3 l     O .rodata	000003e8 tahomabold_32_81
084303db l     O .rodata	000003c0 tahomabold_32_82
0843079b l     O .rodata	00000320 tahomabold_32_83
08430abb l     O .rodata	00000320 tahomabold_32_84
08430ddb l     O .rodata	000003c0 tahomabold_32_85
0843119b l     O .rodata	00000370 tahomabold_32_86
0843150b l     O .rodata	00000528 tahomabold_32_87
08431a33 l     O .rodata	00000370 tahomabold_32_88
08431da3 l     O .rodata	00000370 tahomabold_32_89
08432113 l     O .rodata	00000320 tahomabold_32_90
08432433 l     O .rodata	00000258 tahomabold_32_91
0843268b l     O .rodata	000002d0 tahomabold_32_92
0843295b l     O .rodata	00000258 tahomabold_32_93
08432bb3 l     O .rodata	00000410 tahomabold_32_94
08432fc3 l     O .rodata	00000320 tahomabold_32_95
084332e3 l     O .rodata	000002a8 tahomabold_32_96
0843358b l     O .rodata	000002f8 tahomabold_32_97
08433883 l     O .rodata	00000320 tahomabold_32_98
08433ba3 l     O .rodata	000002a8 tahomabold_32_99
08433e4b l     O .rodata	00000320 tahomabold_32_100
0843416b l     O .rodata	000002f8 tahomabold_32_101
08434463 l     O .rodata	00000230 tahomabold_32_102
08434693 l     O .rodata	00000320 tahomabold_32_103
084349b3 l     O .rodata	00000320 tahomabold_32_104
08434cd3 l     O .rodata	00000190 tahomabold_32_105
08434e63 l     O .rodata	00000208 tahomabold_32_106
0843506b l     O .rodata	000002f8 tahomabold_32_107
08435363 l     O .rodata	00000190 tahomabold_32_108
084354f3 l     O .rodata	000004d8 tahomabold_32_109
084359cb l     O .rodata	00000320 tahomabold_32_110
08435ceb l     O .rodata	00000320 tahomabold_32_111
0843600b l     O .rodata	00000320 tahomabold_32_112
0843632b l     O .rodata	00000320 tahomabold_32_113
0843664b l     O .rodata	00000230 tahomabold_32_114
0843687b l     O .rodata	00000280 tahomabold_32_115
08436afb l     O .rodata	00000208 tahomabold_32_116
08436d03 l     O .rodata	00000320 tahomabold_32_117
08437023 l     O .rodata	000002f8 tahomabold_32_118
0843731b l     O .rodata	00000460 tahomabold_32_119
0843777b l     O .rodata	000002f8 tahomabold_32_120
08437a73 l     O .rodata	000002d0 tahomabold_32_121
08437d43 l     O .rodata	000002a8 tahomabold_32_122
08437feb l     O .rodata	00000320 tahomabold_32_123
0843830b l     O .rodata	00000320 tahomabold_32_124
0843862b l     O .rodata	00000320 tahomabold_32_125
0843894b l     O .rodata	00000410 tahomabold_32_126
00000000 l    df *ABS*	00000000 touch_spi.c
00000000 l    df *ABS*	00000000 w_sqrt.c
00000000 l    df *ABS*	00000000 e_sqrt.c
00000000 l    df *ABS*	00000000 s_fpclassify.c
00000000 l    df *ABS*	00000000 s_lib_ver.c
00000000 l    df *ABS*	00000000 s_matherr.c
00000000 l    df *ABS*	00000000 lib2-divmod.c
00000000 l    df *ABS*	00000000 adddf3.c
00000000 l    df *ABS*	00000000 divdf3.c
00000000 l    df *ABS*	00000000 gedf2.c
00000000 l    df *ABS*	00000000 ledf2.c
00000000 l    df *ABS*	00000000 muldf3.c
00000000 l    df *ABS*	00000000 subdf3.c
00000000 l    df *ABS*	00000000 fixdfsi.c
00000000 l    df *ABS*	00000000 floatsidf.c
00000000 l    df *ABS*	00000000 libgcc2.c
00000000 l    df *ABS*	00000000 libgcc2.c
00000000 l    df *ABS*	00000000 errno.c
00000000 l    df *ABS*	00000000 impure.c
0843a620 l     O .rwdata	00000424 impure_data
00000000 l    df *ABS*	00000000 malloc.c
00000000 l    df *ABS*	00000000 mallocr.c
00000000 l    df *ABS*	00000000 memcpy.c
00000000 l    df *ABS*	00000000 memset.c
00000000 l    df *ABS*	00000000 putchar.c
00000000 l    df *ABS*	00000000 puts.c
00000000 l    df *ABS*	00000000 rand.c
00000000 l    df *ABS*	00000000 sbrkr.c
00000000 l    df *ABS*	00000000 strcmp.c
00000000 l    df *ABS*	00000000 strcpy.c
00000000 l    df *ABS*	00000000 strlen.c
00000000 l    df *ABS*	00000000 time.c
00000000 l    df *ABS*	00000000 findfp.c
0840a564 l     F .text	00000008 __fp_unlock
0840a578 l     F .text	0000019c __sinit.part.1
0840a714 l     F .text	00000008 __fp_lock
00000000 l    df *ABS*	00000000 mallocr.c
00000000 l    df *ABS*	00000000 fvwrite.c
00000000 l    df *ABS*	00000000 fwalk.c
00000000 l    df *ABS*	00000000 gettimeofdayr.c
00000000 l    df *ABS*	00000000 int_errno.c
00000000 l    df *ABS*	00000000 memchr.c
00000000 l    df *ABS*	00000000 memmove.c
00000000 l    df *ABS*	00000000 putc.c
00000000 l    df *ABS*	00000000 mallocr.c
00000000 l    df *ABS*	00000000 stdio.c
00000000 l    df *ABS*	00000000 wbuf.c
00000000 l    df *ABS*	00000000 writer.c
00000000 l    df *ABS*	00000000 wsetup.c
00000000 l    df *ABS*	00000000 closer.c
00000000 l    df *ABS*	00000000 fclose.c
00000000 l    df *ABS*	00000000 fflush.c
00000000 l    df *ABS*	00000000 lseekr.c
00000000 l    df *ABS*	00000000 makebuf.c
00000000 l    df *ABS*	00000000 readr.c
00000000 l    df *ABS*	00000000 fstatr.c
00000000 l    df *ABS*	00000000 isattyr.c
00000000 l    df *ABS*	00000000 libgcc2.c
00000000 l    df *ABS*	00000000 alt_alarm_start.c
00000000 l    df *ABS*	00000000 alt_close.c
0840c9e4 l     F .text	0000003c alt_get_errno
00000000 l    df *ABS*	00000000 alt_dev.c
0840caf0 l     F .text	0000002c alt_dev_null_write
00000000 l    df *ABS*	00000000 alt_errno.c
00000000 l    df *ABS*	00000000 alt_fstat.c
0840cb1c l     F .text	0000003c alt_get_errno
00000000 l    df *ABS*	00000000 alt_gettod.c
00000000 l    df *ABS*	00000000 alt_iic.c
00000000 l    df *ABS*	00000000 alt_iic_isr_register.c
00000000 l    df *ABS*	00000000 alt_irq_vars.c
00000000 l    df *ABS*	00000000 alt_isatty.c
0840d09c l     F .text	0000003c alt_get_errno
00000000 l    df *ABS*	00000000 alt_load.c
0840d17c l     F .text	00000068 alt_load_section
00000000 l    df *ABS*	00000000 alt_lseek.c
0840d268 l     F .text	0000003c alt_get_errno
00000000 l    df *ABS*	00000000 alt_main.c
00000000 l    df *ABS*	00000000 alt_malloc_lock.c
00000000 l    df *ABS*	00000000 alt_read.c
0840d43c l     F .text	0000003c alt_get_errno
00000000 l    df *ABS*	00000000 alt_release_fd.c
00000000 l    df *ABS*	00000000 alt_sbrk.c
0843c084 l     O .rwdata	00000004 heap_end
00000000 l    df *ABS*	00000000 alt_tick.c
00000000 l    df *ABS*	00000000 alt_usleep.c
00000000 l    df *ABS*	00000000 alt_write.c
0840d85c l     F .text	0000003c alt_get_errno
00000000 l    df *ABS*	00000000 alt_sys_init.c
0840d990 l     F .text	00000034 alt_dev_reg
0843aff4 l     O .rwdata	00001060 jtag_uart_0
00000000 l    df *ABS*	00000000 altera_avalon_jtag_uart_fd.c
00000000 l    df *ABS*	00000000 altera_avalon_jtag_uart_init.c
0840dc88 l     F .text	0000020c altera_avalon_jtag_uart_irq
0840de94 l     F .text	000000a0 altera_avalon_jtag_uart_timeout
00000000 l    df *ABS*	00000000 altera_avalon_jtag_uart_ioctl.c
00000000 l    df *ABS*	00000000 altera_avalon_jtag_uart_read.c
00000000 l    df *ABS*	00000000 altera_avalon_jtag_uart_write.c
00000000 l    df *ABS*	00000000 altera_avalon_spi.c
00000000 l    df *ABS*	00000000 altera_avalon_timer_sc.c
0840e6c8 l     F .text	00000078 alt_avalon_timer_sc_irq
00000000 l    df *ABS*	00000000 alt_busy_sleep.c
00000000 l    df *ABS*	00000000 alt_dcache_flush_all.c
00000000 l    df *ABS*	00000000 alt_dev_llist_insert.c
0840e95c l     F .text	0000003c alt_get_errno
00000000 l    df *ABS*	00000000 alt_do_ctors.c
00000000 l    df *ABS*	00000000 alt_do_dtors.c
00000000 l    df *ABS*	00000000 alt_icache_flush_all.c
00000000 l    df *ABS*	00000000 alt_io_redirect.c
0840ebcc l     F .text	000000c4 alt_open_fd
00000000 l    df *ABS*	00000000 alt_open.c
0840ed0c l     F .text	0000003c alt_get_errno
0840ed48 l     F .text	000000c4 alt_file_locked
00000000 l    df *ABS*	00000000 altera_nios2_gen2_irq.c
00000000 l    df *ABS*	00000000 alt_find_dev.c
00000000 l    df *ABS*	00000000 alt_find_file.c
00000000 l    df *ABS*	00000000 alt_get_fd.c
00000000 l    df *ABS*	00000000 alt_icache_flush.c
00000000 l    df *ABS*	00000000 atexit.c
00000000 l    df *ABS*	00000000 exit.c
00000000 l    df *ABS*	00000000 memcmp.c
00000000 l    df *ABS*	00000000 __atexit.c
00000000 l    df *ABS*	00000000 __call_atexit.c
00000000 l    df *ABS*	00000000 libgcc2.c
00000000 l    df *ABS*	00000000 alt_exit.c
0843f2b8 g     O .bss	00000004 alt_instruction_exception_handler
0840a154 g     F .text	00000018 putchar
08404640 g     F .text	00000078 vid_draw_horiz_line
0840c804 g     F .text	00000054 _isatty_r
084021c8 g     F .text	00000068 LCD_DrawPoint
0840d378 g     F .text	0000007c alt_main
0840a3ec g     F .text	00000090 strcpy
0840a16c g     F .text	000000c0 _puts_r
0843f2e4 g     O .bss	00000100 alt_irq
0840c52c g     F .text	00000060 _lseek_r
084047a4 g     F .text	0000006c vid_color_convert16_24
08406b78 g     F .text	00000130 sqrt
0843c090 g       *ABS*	00000000 __flash_rwdata_start
0840655c g     F .text	00000168 touch_enable_penirq
0840b37c g     F .text	0000005c _gettimeofday_r
0843f3e4 g       *ABS*	00000000 __alt_heap_start
08402720 g     F .text	0000012c LCD_Pattern_Horizon
08402db4 g     F .text	000001d4 GUI_DeskInit
0840bdbc g     F .text	0000005c __sseek
0840a8b4 g     F .text	00000010 __sinit
0840be20 g     F .text	00000140 __swbuf_r
0840a71c g     F .text	00000068 __sfmoreglue
0840d418 g     F .text	00000024 __malloc_unlock
08404288 g     F .text	00000158 vid_draw_box
08402cf0 g     F .text	00000048 PtCopy
08403698 g     F .text	00000104 Update_img
08405778 g     F .text	0000024c vid_print_string_alpha
0840b4bc g     F .text	0000015c memmove
0840a89c g     F .text	00000018 _cleanup
084082f4 g     F .text	000000dc .hidden __gtdf2
0840406c g     F .text	00000114 vid_move_block
0840ef60 g     F .text	00000024 altera_nios2_gen2_irq_init
08409698 g     F .text	00000010 __errno
08406038 g     F .text	000000e8 vid_string_pixel_length_alpha
08000000 g     F .entry	0000001c __reset
08403490 g     F .text	00000208 Print
08400000 g       *ABS*	00000000 __flash_exceptions_start
0840214c g     F .text	0000007c LCD_Clear
0840c7a8 g     F .text	0000005c _fstat_r
0843f28c g     O .bss	00000004 errno
0840bd38 g     F .text	00000008 __seofread
0843f2a8 g     O .bss	00000004 alt_argv
08444054 g       *ABS*	00000000 _gp
0840d82c g     F .text	00000030 usleep
084059c4 g     F .text	00000148 seperate_color_channels
0843ae74 g     O .rwdata	00000180 alt_fd_list
0840a14c g     F .text	00000008 _putchar_r
0840ef84 g     F .text	00000090 alt_find_dev
08409edc g     F .text	00000148 memcpy
0840a56c g     F .text	0000000c _cleanup_r
08409558 g     F .text	000000dc .hidden __floatsidf
08404f80 g     F .text	000006ec vid_round_corner_points
0840628c g     F .text	0000006c Touch_UnInit
0840ec90 g     F .text	0000007c alt_io_redirect
084083d0 g     F .text	000000f4 .hidden __ltdf2
0840fb1c g       *ABS*	00000000 __DTOR_END__
08402f88 g     F .text	000000c0 GUI_CheckButton
0840a22c g     F .text	00000014 puts
0840eb30 g     F .text	0000009c alt_exception_cause_generated_bad_addr
08403f3c g     F .text	00000064 vid_clean_screen
08406f30 g     F .text	00000074 __fpclassifyd
0840e08c g     F .text	0000021c altera_avalon_jtag_uart_read
084096a8 g     F .text	00000014 malloc
08406120 g     F .text	0000016c Touch_Init
084070a4 g     F .text	00000064 .hidden __udivsi3
08403bdc g     F .text	00000360 NewExpression
0840d0d8 g     F .text	000000a4 isatty
0843f290 g     O .bss	00000008 alt_timezone
08403048 g     F .text	00000280 GUI_DeskDraw
0840f1c0 g     F .text	00000090 alt_icache_flush
0843f288 g     O .bss	00000004 __malloc_top_pad
0840ad38 g     F .text	000004bc __sfvwrite_r
0840a2bc g     F .text	00000054 _sbrk_r
084064e8 g     F .text	00000034 touch_empty_fifo
08402c08 g     F .text	00000034 RectHeight
0840c748 g     F .text	00000060 _read_r
0843c078 g     O .rwdata	00000004 alt_max_fd
0840c180 g     F .text	000000f0 _fclose_r
0840c4fc g     F .text	00000030 fflush
0843f284 g     O .bss	00000004 __malloc_max_sbrked_mem
08439a60 g     O .rwdata	00000bc0 tahomabold_32
08407160 g     F .text	000008ac .hidden __adddf3
084029b0 g     F .text	00000044 PtSet
0840f5b0 g     F .text	00000538 .hidden __umoddi3
0840d2a4 g     F .text	000000d4 lseek
0843c054 g     O .rwdata	00000004 __fdlib_version
0843c058 g     O .rwdata	00000004 _global_impure_ptr
08404a7c g     F .text	00000148 vid_draw_circle
0840b780 g     F .text	00000564 _realloc_r
0843f3e4 g       *ABS*	00000000 __bss_end
0840cfac g     F .text	000000f0 alt_iic_isr_register
0840d724 g     F .text	00000108 alt_tick
08402ae0 g     F .text	0000008c RectOffset
08404810 g     F .text	0000026c vid_draw_sloped_line
0840a8d4 g     F .text	00000018 __fp_lock_all
0840cf60 g     F .text	0000004c alt_ic_irq_enabled
08404bc4 g     F .text	000003bc vid_draw_round_corner_box
0840d688 g     F .text	0000009c alt_alarm_stop
0843f2a0 g     O .bss	00000004 alt_irq_active
0840284c g     F .text	000000e0 LCD_Pattern_Vertical
084000dc g     F .exceptions	000000d4 alt_irq_handler
0843ae4c g     O .rwdata	00000028 alt_dev_null
0840e914 g     F .text	00000048 alt_dcache_flush_all
08406a2c g     F .text	00000070 touch_alarm_callback
084094d8 g     F .text	00000080 .hidden __fixdfsi
08401fa4 g     F .text	00000044 testCell
0840651c g     F .text	00000040 touch_is_pen_pressed
0843c090 g       *ABS*	00000000 __ram_rwdata_end
0843c070 g     O .rwdata	00000008 alt_dev_list
0840d898 g     F .text	000000f8 write
0840b618 g     F .text	000000a0 _putc_r
08438ea0 g       *ABS*	00000000 __ram_rodata_end
0840cb58 g     F .text	000000b0 fstat
084083d0 g     F .text	000000f4 .hidden __ledf2
084066f8 g     F .text	00000334 touch_get_xy
08407108 g     F .text	00000058 .hidden __umodsi3
0840646c g     F .text	0000007c touch_isr
08402bd4 g     F .text	00000034 RectWidth
0843f3e4 g       *ABS*	00000000 end
0840dbc8 g     F .text	000000c0 altera_avalon_jtag_uart_init
084001b0 g     F .exceptions	00000074 alt_instruction_exception_entry
084043e0 g     F .text	000000ec vid_print_char
0840fb1c g       *ABS*	00000000 __CTOR_LIST__
0c000000 g       *ABS*	00000000 __alt_stack_pointer
0840e740 g     F .text	0000007c alt_avalon_timer_sc_init
08409634 g     F .text	00000064 .hidden __clzsi2
0840e2a8 g     F .text	00000224 altera_avalon_jtag_uart_write
084056c0 g     F .text	00000054 min3
08403fa0 g     F .text	000000cc vid_draw_line
08401e68 g     F .text	0000013c calcCellOutput
0840a8c4 g     F .text	00000004 __sfp_lock_acquire
0840b3d8 g     F .text	000000e4 memchr
0840aa28 g     F .text	00000310 _free_r
084020b0 g     F .text	0000009c LCD_SetCursor
0840f430 g     F .text	00000180 __call_exitprocs
0843c060 g     O .rwdata	00000004 __malloc_sbrk_base
08400224 g     F .text	0000004c _start
0843f2b0 g     O .bss	00000004 _alt_tick_rate
08401ddc g     F .text	0000008c setCellInput
084066c4 g     F .text	00000034 touch_clear_input
0840a258 g     F .text	00000064 rand
084032c8 g     F .text	000001c8 GUI_ClearRect
0840e4cc g     F .text	000001fc alt_avalon_spi_command
0843f2b4 g     O .bss	00000004 _alt_nticks
0840d478 g     F .text	000000fc read
0840d9fc g     F .text	00000068 alt_sys_init
0840f318 g     F .text	00000118 __register_exitproc
084045ac g     F .text	00000094 vid_paint_block
0840df34 g     F .text	00000068 altera_avalon_jtag_uart_close
08438ea0 g       *ABS*	00000000 __ram_rwdata_start
0840fb1c g       *ABS*	00000000 __ram_rodata_start
08401d24 g     F .text	000000b8 getLayerPrediction
0843f2bc g     O .bss	00000028 __malloc_current_mallinfo
08404704 g     F .text	000000a0 vid_color_convert24_16
0840da64 g     F .text	00000060 altera_avalon_jtag_uart_read_fd
0840f11c g     F .text	000000a4 alt_get_fd
0840e7bc g     F .text	00000158 alt_busy_sleep
0840c12c g     F .text	00000054 _close_r
0840394c g     F .text	00000078 GUI
08405c80 g     F .text	0000025c alpha_blending
0840f29c g     F .text	0000007c memcmp
0840db24 g     F .text	00000050 altera_avalon_jtag_uart_close_fd
0843f3e4 g       *ABS*	00000000 __alt_stack_base
0840db74 g     F .text	00000054 altera_avalon_jtag_uart_ioctl_fd
0840bfd8 g     F .text	00000154 __swsetup_r
08407a0c g     F .text	000008e8 .hidden __divdf3
0840a784 g     F .text	00000118 __sfp
0843aa44 g     O .rwdata	00000408 __malloc_av_
0840a8d0 g     F .text	00000004 __sinit_lock_release
084084c4 g     F .text	00000718 .hidden __muldf3
0840bce4 g     F .text	00000054 __sread
0840f014 g     F .text	00000108 alt_find_file
0840e998 g     F .text	000000a4 alt_dev_llist_insert
0840d3f4 g     F .text	00000024 __malloc_lock
0840d5d8 g     F .text	000000b0 sbrk
0840c4a0 g     F .text	0000005c _fflush_r
0840cc08 g     F .text	000001f4 gettimeofday
0843f280 g       *ABS*	00000000 __bss_start
08402230 g     F .text	000004f0 LCD_Init
0840a024 g     F .text	00000128 memset
08400270 g     F .text	000019a4 main
0843f2ac g     O .bss	00000004 alt_envp
0843f280 g     O .bss	00000004 __malloc_max_total_mem
0840dac4 g     F .text	00000060 altera_avalon_jtag_uart_write_fd
0840bf60 g     F .text	00000018 __swbuf
0840a240 g     F .text	00000018 srand
08438ea0 g     O .rwdata	00000bc0 tahomabold_20
0840be18 g     F .text	00000008 __sclose
08406fa4 g     F .text	00000008 matherr
0c000000 g       *ABS*	00000000 __alt_heap_limit
08405edc g     F .text	0000015c vid_print_char_alpha
0840c270 g     F .text	00000014 fclose
084096d0 g     F .text	0000080c _malloc_r
0840a514 g     F .text	00000050 time
0843c07c g     O .rwdata	00000004 alt_errno
0840b1f4 g     F .text	000000c4 _fwalk
08402c3c g     F .text	000000b4 PtDistance
084029f4 g     F .text	00000060 RectSet
0840b6b8 g     F .text	000000c8 putc
08406fac g     F .text	00000084 .hidden __divsi3
08402060 g     F .text	00000050 Delay_Ms
08402b6c g     F .text	00000068 RectCopy
0840a904 g     F .text	00000124 _malloc_trim_r
0840fb1c g       *ABS*	00000000 __CTOR_END__
0840a310 g     F .text	000000dc strcmp
08405c3c g     F .text	00000044 read_from_frame
0840fb1c g       *ABS*	00000000 __flash_rodata_start
0840379c g     F .text	000001b0 Resize_image
0840fb1c g       *ABS*	00000000 __DTOR_LIST__
0840456c g     F .text	00000040 vid_get_pixel
0840d9c4 g     F .text	00000038 alt_irq_init
0840d574 g     F .text	00000064 alt_release_fd
08438d61 g     O .rodata	00000100 .hidden __clz_tab
0840f250 g     F .text	00000014 atexit
0840bf78 g     F .text	00000060 _write_r
0840292c g     F .text	00000084 IsPtInRect
0843c05c g     O .rwdata	00000004 _impure_ptr
0843f2a4 g     O .bss	00000004 alt_argc
0840c284 g     F .text	0000021c __sflush_r
0840ea9c g     F .text	00000060 _do_dtors
08400000 g       .exceptions	00000000 alt_irq_entry
0840a8ec g     F .text	00000018 __fp_unlock_all
08406334 g     F .text	00000138 Touch_GetXY
0843c068 g     O .rwdata	00000008 alt_fs_list
08404180 g     F .text	00000108 vid_print_string
0843f298 g     O .bss	00000008 alt_resettime
08401fe8 g     F .text	00000078 testLayer
08400000 g       *ABS*	00000000 __ram_exceptions_start
08406ca8 g     F .text	00000288 __ieee754_sqrt
0840cdfc g     F .text	00000050 alt_ic_isr_register
0843c090 g       *ABS*	00000000 _edata
0843f3e4 g       *ABS*	00000000 _end
0840566c g     F .text	00000054 max3
08400224 g       *ABS*	00000000 __ram_exceptions_end
0840df9c g     F .text	000000f0 altera_avalon_jtag_uart_ioctl
08401c14 g     F .text	00000110 initLayer
0840ced4 g     F .text	0000008c alt_ic_irq_disable
084046b8 g     F .text	0000004c vid_merge_colors
0840bd40 g     F .text	0000007c __swrite
0843c064 g     O .rwdata	00000004 __malloc_trim_threshold
0840f264 g     F .text	00000038 exit
0840b2b8 g     F .text	000000c4 _fwalk_reent
08407030 g     F .text	00000074 .hidden __modsi3
0c000000 g       *ABS*	00000000 __alt_data_end
08400000 g     F .exceptions	00000000 alt_exception
0840a8c8 g     F .text	00000004 __sfp_lock_release
08000000 g       *ABS*	00000000 __alt_mem_sdram
08406a9c g     F .text	000000dc touch_xy_transform
084044cc g     F .text	000000a0 vid_set_pixel
0840fae8 g     F .text	00000034 _exit
0840c8b8 g     F .text	0000012c alt_alarm_start
0840c858 g     F .text	00000060 .hidden __muldi3
0840c58c g     F .text	000001bc __smakebuf_r
0840a47c g     F .text	00000098 strlen
0840ee0c g     F .text	00000154 open
084082f4 g     F .text	000000dc .hidden __gedf2
08402a54 g     F .text	0000008c RectInflate
0840eafc g     F .text	00000034 alt_icache_flush_all
0843c080 g     O .rwdata	00000004 alt_priority_mask
0840ce4c g     F .text	00000088 alt_ic_irq_enable
08408bdc g     F .text	000008fc .hidden __subdf3
084039c4 g     F .text	00000218 ShowHelp
0843c088 g     O .rwdata	00000008 alt_alarm_list
08405714 g     F .text	00000064 max_diff3
0840ea3c g     F .text	00000060 _do_ctors
08402d38 g     F .text	0000007c GUI_ShowWelcome
08405b0c g     F .text	00000130 merge_color_channels
0840ca20 g     F .text	000000d0 close
0840d1e4 g     F .text	00000084 alt_load
084062f8 g     F .text	0000003c Touch_EmptyFifo
084096bc g     F .text	00000014 free
0840a8cc g     F .text	00000004 __sinit_lock_acquire



Disassembly of section .entry:

08000000 <__reset>:
#if NIOS2_ICACHE_SIZE > 0 && defined(ALT_ALLOW_CODE_AT_RESET) && (!defined(ALT_SIM_OPTIMIZE) || defined(NIOS2_ECC_PRESENT))
    /* Assume the instruction cache size is always a power of two. */
#if NIOS2_ICACHE_SIZE > 0x8000
    movhi r2, %hi(NIOS2_ICACHE_SIZE)
#else
    movui r2, NIOS2_ICACHE_SIZE
 8000000:	00880014 	movui	r2,8192
#endif

0:
    initi r2
 8000004:	1001483a 	initi	r2
    addi r2, r2, -NIOS2_ICACHE_LINE_SIZE
 8000008:	10bff804 	addi	r2,r2,-32
    bgt r2, zero, 0b
 800000c:	00bffd16 	blt	zero,r2,8000004 <__alt_data_end+0xfc000004>
 * Jump to the _start entry point in the .text section if reset code
 * is allowed or if optimizing for RTL simulation.
 */
#if defined(ALT_ALLOW_CODE_AT_RESET) || defined(ALT_SIM_OPTIMIZE)
    /* Jump to the _start entry point in the .text section. */
    movhi r1, %hi(_start)
 8000010:	00421034 	movhi	at,2112
    ori r1, r1, %lo(_start)
 8000014:	08408914 	ori	at,at,548
    jmp r1
 8000018:	0800683a 	jmp	at
 800001c:	00000000 	call	0 <__alt_mem_sdram-0x8000000>

Disassembly of section .exceptions:

08400000 <alt_exception>:

#else /* ALT_EXCEPTION_STACK disabled */
        /* 
         * Reserve space on normal stack for registers about to be pushed.
         */
        addi  sp, sp, -76
 8400000:	deffed04 	addi	sp,sp,-76
         * documentation for details).
         *
         * Leave a gap in the stack frame at 4(sp) for the muldiv handler to
         * store zero into.
         */
        stw   ra,  0(sp)
 8400004:	dfc00015 	stw	ra,0(sp)
        stw   r1,   8(sp)
 8400008:	d8400215 	stw	at,8(sp)
        stw   r2,  12(sp)
 840000c:	d8800315 	stw	r2,12(sp)
        stw   r3,  16(sp)
 8400010:	d8c00415 	stw	r3,16(sp)
        stw   r4,  20(sp)
 8400014:	d9000515 	stw	r4,20(sp)
        stw   r5,  24(sp)
 8400018:	d9400615 	stw	r5,24(sp)
        stw   r6,  28(sp)
 840001c:	d9800715 	stw	r6,28(sp)
        stw   r7,  32(sp)
 8400020:	d9c00815 	stw	r7,32(sp)
        rdctl r5, estatus   /* Read early to avoid usage stall */
 8400024:	000b307a 	rdctl	r5,estatus
        stw   r8,  36(sp)
 8400028:	da000915 	stw	r8,36(sp)
        stw   r9,  40(sp)
 840002c:	da400a15 	stw	r9,40(sp)
        stw   r10, 44(sp)
 8400030:	da800b15 	stw	r10,44(sp)
        stw   r11, 48(sp)
 8400034:	dac00c15 	stw	r11,48(sp)
        stw   r12, 52(sp)
 8400038:	db000d15 	stw	r12,52(sp)
        stw   r13, 56(sp)
 840003c:	db400e15 	stw	r13,56(sp)
        stw   r14, 60(sp)
 8400040:	db800f15 	stw	r14,60(sp)
        stw   r15, 64(sp)
 8400044:	dbc01015 	stw	r15,64(sp)
        /*
         * ea-4 contains the address of the instruction being executed
         * when the exception occured. For interrupt exceptions, we will
         * will be re-issue the isntruction. Store it in 72(sp)
         */
        stw   r5,  68(sp)  /* estatus */
 8400048:	d9401115 	stw	r5,68(sp)
        addi  r15, ea, -4  /* instruction that caused exception */
 840004c:	ebffff04 	addi	r15,ea,-4
        stw   r15,  72(sp)
 8400050:	dbc01215 	stw	r15,72(sp)
#else
        /*
         * Test to see if the exception was a software exception or caused 
         * by an external interrupt, and vector accordingly.
         */
        rdctl r4, ipending
 8400054:	0009313a 	rdctl	r4,ipending
        andi  r2, r5, 1
 8400058:	2880004c 	andi	r2,r5,1
        beq   r2, zero, .Lnot_irq
 840005c:	10000326 	beq	r2,zero,840006c <alt_exception+0x6c>
        beq   r4, zero, .Lnot_irq
 8400060:	20000226 	beq	r4,zero,840006c <alt_exception+0x6c>
        /*
         * Now that all necessary registers have been preserved, call 
         * alt_irq_handler() to process the interrupts.
         */

        call alt_irq_handler
 8400064:	84000dc0 	call	84000dc <alt_irq_handler>

        .section .exceptions.irqreturn, "xa"

        br    .Lexception_exit
 8400068:	00000706 	br	8400088 <alt_exception+0x88>
         * upon completion, so we write ea (address of instruction *after*
         * the one where the exception occured) into 72(sp). The actual
         * instruction that caused the exception is written in r2, which these
         * handlers will utilize.
         */
        stw ea, 72(sp) /* EA is PC+4 so will skip over instruction causing exception */
 840006c:	df401215 	stw	ea,72(sp)
.Lunknown_16bit:
        addi.n r4, r4, 2 /* Need PC+2 to skip over instruction causing exception */
        stw r4, 72(sp)

#else /* CDX is not Enabled and all instructions are 32bits */
        ldw r2, -4(ea) /* Instruction value that caused exception */
 8400070:	e8bfff17 	ldw	r2,-4(ea)
         * debugger is present) or go into an infinite loop since the
         * handling behavior is undefined; in that case we will not return here.
         */

        /* Load exception-causing address as first argument (r4) */
        addi   r4, ea, -4
 8400074:	e93fff04 	addi	r4,ea,-4

        /* Call the instruction-exception entry */
        call   alt_instruction_exception_entry
 8400078:	84001b00 	call	84001b0 <alt_instruction_exception_entry>
         * instruction
         *
         * Return code was 0: Skip. The instruction after the exception is
         * already stored in 72(sp).
         */
        bne   r2, r0, .Lexception_exit
 840007c:	1000021e 	bne	r2,zero,8400088 <alt_exception+0x88>

        /*
         * Otherwise, modify 72(sp) to re-issue the instruction that caused the
         * exception.
         */
        addi  r15, ea, -4  /* instruction that caused exception */
 8400080:	ebffff04 	addi	r15,ea,-4
        stw   r15,  72(sp)
 8400084:	dbc01215 	stw	r15,72(sp)
        /* 
         * Restore the saved registers, so that all general purpose registers 
         * have been restored to their state at the time the interrupt occured.
         */

        ldw   r5,  68(sp)
 8400088:	d9401117 	ldw	r5,68(sp)
        ldw   ea,  72(sp)  /* This becomes the PC once eret is executed */
 840008c:	df401217 	ldw	ea,72(sp)
        ldw   ra,   0(sp)
 8400090:	dfc00017 	ldw	ra,0(sp)

        wrctl estatus, r5
 8400094:	2801707a 	wrctl	estatus,r5

        ldw   r1,   8(sp)
 8400098:	d8400217 	ldw	at,8(sp)
        ldw   r2,  12(sp)
 840009c:	d8800317 	ldw	r2,12(sp)
        ldw   r3,  16(sp)
 84000a0:	d8c00417 	ldw	r3,16(sp)
        ldw   r4,  20(sp)
 84000a4:	d9000517 	ldw	r4,20(sp)
        ldw   r5,  24(sp)
 84000a8:	d9400617 	ldw	r5,24(sp)
        ldw   r6,  28(sp)
 84000ac:	d9800717 	ldw	r6,28(sp)
        ldw   r7,  32(sp)
 84000b0:	d9c00817 	ldw	r7,32(sp)

#if defined(ALT_EXCEPTION_STACK) && defined(ALT_STACK_CHECK)
        ldw   et, %gprel(alt_exception_old_stack_limit)(gp)
#endif

        ldw   r8,  36(sp)
 84000b4:	da000917 	ldw	r8,36(sp)
        ldw   r9,  40(sp)
 84000b8:	da400a17 	ldw	r9,40(sp)
        ldw   r10, 44(sp)
 84000bc:	da800b17 	ldw	r10,44(sp)
        ldw   r11, 48(sp)
 84000c0:	dac00c17 	ldw	r11,48(sp)
        ldw   r12, 52(sp)
 84000c4:	db000d17 	ldw	r12,52(sp)
        ldw   r13, 56(sp)
 84000c8:	db400e17 	ldw	r13,56(sp)
        ldw   r14, 60(sp)
 84000cc:	db800f17 	ldw	r14,60(sp)
        ldw   r15, 64(sp)
 84000d0:	dbc01017 	ldw	r15,64(sp)
        stw   et, %gprel(alt_stack_limit_value)(gp)
        stw   zero, %gprel(alt_exception_old_stack_limit)(gp)
#endif /* ALT_STACK_CHECK */
        ldw   sp,  76(sp)
#else /* ALT_EXCEPTION_STACK disabled */
        addi  sp, sp, 76
 84000d4:	dec01304 	addi	sp,sp,76

        /*
         * Return to the interrupted instruction.
         */

        eret
 84000d8:	ef80083a 	eret

084000dc <alt_irq_handler>:
 * instruction is present if the macro ALT_CI_INTERRUPT_VECTOR defined.
 */

void alt_irq_handler (void) __attribute__ ((section (".exceptions")));
void alt_irq_handler (void)
{
 84000dc:	defff904 	addi	sp,sp,-28
 84000e0:	dfc00615 	stw	ra,24(sp)
 84000e4:	df000515 	stw	fp,20(sp)
 84000e8:	df000504 	addi	fp,sp,20
  
  /*
   * Notify the operating system that we are at interrupt level.
   */ 
  
  ALT_OS_INT_ENTER();
 84000ec:	0001883a 	nop
#ifndef NIOS2_EIC_PRESENT
static ALT_INLINE alt_u32 ALT_ALWAYS_INLINE alt_irq_pending (void)
{
  alt_u32 active;

  NIOS2_READ_IPENDING (active);
 84000f0:	0005313a 	rdctl	r2,ipending
 84000f4:	e0bffe15 	stw	r2,-8(fp)

  return active;
 84000f8:	e0bffe17 	ldw	r2,-8(fp)
   * Consider the case where the high priority interupt is asserted during
   * the interrupt entry sequence for a lower priority interrupt to see why
   * this is the case.
   */

  active = alt_irq_pending ();
 84000fc:	e0bffb15 	stw	r2,-20(fp)

  do
  {
    i = 0;
 8400100:	e03ffd15 	stw	zero,-12(fp)
    mask = 1;
 8400104:	00800044 	movi	r2,1
 8400108:	e0bffc15 	stw	r2,-16(fp)
     * called to clear the interrupt condition.
     */

    do
    {
      if (active & mask)
 840010c:	e0fffb17 	ldw	r3,-20(fp)
 8400110:	e0bffc17 	ldw	r2,-16(fp)
 8400114:	1884703a 	and	r2,r3,r2
 8400118:	10001426 	beq	r2,zero,840016c <alt_irq_handler+0x90>
      { 
#ifdef ALT_ENHANCED_INTERRUPT_API_PRESENT
        alt_irq[i].handler(alt_irq[i].context); 
 840011c:	00821134 	movhi	r2,2116
 8400120:	10bcb904 	addi	r2,r2,-3356
 8400124:	e0fffd17 	ldw	r3,-12(fp)
 8400128:	180690fa 	slli	r3,r3,3
 840012c:	10c5883a 	add	r2,r2,r3
 8400130:	10c00017 	ldw	r3,0(r2)
 8400134:	00821134 	movhi	r2,2116
 8400138:	10bcb904 	addi	r2,r2,-3356
 840013c:	e13ffd17 	ldw	r4,-12(fp)
 8400140:	200890fa 	slli	r4,r4,3
 8400144:	1105883a 	add	r2,r2,r4
 8400148:	10800104 	addi	r2,r2,4
 840014c:	10800017 	ldw	r2,0(r2)
 8400150:	1009883a 	mov	r4,r2
 8400154:	183ee83a 	callr	r3
#else
        alt_irq[i].handler(alt_irq[i].context, i); 
#endif
        break;
 8400158:	0001883a 	nop
#ifndef NIOS2_EIC_PRESENT
static ALT_INLINE alt_u32 ALT_ALWAYS_INLINE alt_irq_pending (void)
{
  alt_u32 active;

  NIOS2_READ_IPENDING (active);
 840015c:	0005313a 	rdctl	r2,ipending
 8400160:	e0bfff15 	stw	r2,-4(fp)

  return active;
 8400164:	e0bfff17 	ldw	r2,-4(fp)
 8400168:	00000706 	br	8400188 <alt_irq_handler+0xac>
      }
      mask <<= 1;
 840016c:	e0bffc17 	ldw	r2,-16(fp)
 8400170:	1085883a 	add	r2,r2,r2
 8400174:	e0bffc15 	stw	r2,-16(fp)
      i++;
 8400178:	e0bffd17 	ldw	r2,-12(fp)
 840017c:	10800044 	addi	r2,r2,1
 8400180:	e0bffd15 	stw	r2,-12(fp)

    } while (1);
 8400184:	003fe106 	br	840010c <__alt_data_end+0xfc40010c>

    active = alt_irq_pending ();
 8400188:	e0bffb15 	stw	r2,-20(fp)
    
  } while (active);
 840018c:	e0bffb17 	ldw	r2,-20(fp)
 8400190:	103fdb1e 	bne	r2,zero,8400100 <__alt_data_end+0xfc400100>

  /*
   * Notify the operating system that interrupt processing is complete.
   */ 

  ALT_OS_INT_EXIT();
 8400194:	0001883a 	nop
}
 8400198:	0001883a 	nop
 840019c:	e037883a 	mov	sp,fp
 84001a0:	dfc00117 	ldw	ra,4(sp)
 84001a4:	df000017 	ldw	fp,0(sp)
 84001a8:	dec00204 	addi	sp,sp,8
 84001ac:	f800283a 	ret

084001b0 <alt_instruction_exception_entry>:
 * that handler if it has been registered. Absent a handler, it will
 * break break or hang as discussed below.
 */
int 
alt_instruction_exception_entry (alt_u32 exception_pc)
{
 84001b0:	defffb04 	addi	sp,sp,-20
 84001b4:	dfc00415 	stw	ra,16(sp)
 84001b8:	df000315 	stw	fp,12(sp)
 84001bc:	df000304 	addi	fp,sp,12
 84001c0:	e13fff15 	stw	r4,-4(fp)
 * NIOS2_EXCEPTION_CAUSE_NOT_PRESENT. Your handling routine should
 * check the validity of the cause argument before proceeding.
 */
#ifdef NIOS2_HAS_EXTRA_EXCEPTION_INFO
  /* Get exception cause & "badaddr" */
  NIOS2_READ_EXCEPTION(cause);
 84001c4:	000531fa 	rdctl	r2,exception
 84001c8:	e0bffd15 	stw	r2,-12(fp)
  cause = ( (cause & NIOS2_EXCEPTION_REG_CAUSE_MASK) >>
 84001cc:	e0bffd17 	ldw	r2,-12(fp)
 84001d0:	10801f0c 	andi	r2,r2,124
 84001d4:	1004d0ba 	srli	r2,r2,2
 84001d8:	e0bffd15 	stw	r2,-12(fp)
              NIOS2_EXCEPTION_REG_CAUSE_OFST );

  NIOS2_READ_BADADDR(badaddr);
 84001dc:	0005333a 	rdctl	r2,badaddr
 84001e0:	e0bffe15 	stw	r2,-8(fp)
#else
  cause = NIOS2_EXCEPTION_CAUSE_NOT_PRESENT;
  badaddr = 0;
#endif /* NIOS2_HAS_EXTRA_EXCEPTION_INFO */

  if(alt_instruction_exception_handler) {
 84001e4:	d0ac9917 	ldw	r2,-19868(gp)
 84001e8:	10000726 	beq	r2,zero,8400208 <alt_instruction_exception_entry+0x58>
     * Call handler. Its return value indicates whether the exception-causing
     * instruction should be re-issued. The code that called us,
     * alt_eceptions_entry.S, will look at this value and adjust the ea
     * register as necessary
     */
    return alt_instruction_exception_handler(cause, exception_pc, badaddr);
 84001ec:	d0ac9917 	ldw	r2,-19868(gp)
 84001f0:	e0fffd17 	ldw	r3,-12(fp)
 84001f4:	e1bffe17 	ldw	r6,-8(fp)
 84001f8:	e17fff17 	ldw	r5,-4(fp)
 84001fc:	1809883a 	mov	r4,r3
 8400200:	103ee83a 	callr	r2
 8400204:	00000206 	br	8400210 <alt_instruction_exception_entry+0x60>
   *    (a peripheral which negates its interrupt output before its
   *    interrupt handler has been executed will cause spurious interrupts)
   */
  else {
#ifdef NIOS2_HAS_DEBUG_STUB
    NIOS2_BREAK();
 8400208:	003da03a 	break	0
      ;
#endif /* NIOS2_HAS_DEBUG_STUB */
  }

  /* We should not get here. Remove compiler warning. */
  return NIOS2_EXCEPTION_RETURN_REISSUE_INST;
 840020c:	0005883a 	mov	r2,zero
}
 8400210:	e037883a 	mov	sp,fp
 8400214:	dfc00117 	ldw	ra,4(sp)
 8400218:	df000017 	ldw	fp,0(sp)
 840021c:	dec00204 	addi	sp,sp,8
 8400220:	f800283a 	ret

Disassembly of section .text:

08400224 <_start>:

#if NIOS2_DCACHE_SIZE > 0 && (!defined(ALT_SIM_OPTIMIZE) || defined(NIOS2_ECC_PRESENT))

    /* Assume the data cache size is always a power of two. */
#if NIOS2_DCACHE_SIZE > 0x8000
    movhi r2, %hi(NIOS2_DCACHE_SIZE)
 8400224:	00800074 	movhi	r2,1
#else
    movui r2, NIOS2_DCACHE_SIZE
#endif

0:
    initd 0(r2)
 8400228:	10000033 	initd	0(r2)
#ifdef NIOS2_ECC_PRESENT
    addi r2, r2, -4
#else
    addi r2, r2, -NIOS2_DCACHE_LINE_SIZE
 840022c:	10bff804 	addi	r2,r2,-32
#endif
    bgt r2, zero, 0b
 8400230:	00bffd16 	blt	zero,r2,8400228 <__alt_data_end+0xfc400228>

    /*
     * Now that the caches are initialized, set up the stack pointer and global pointer.
     * The values provided by the linker are assumed to be correctly aligned.
     */
    movhi sp, %hi(__alt_stack_pointer)
 8400234:	06c30034 	movhi	sp,3072
    ori sp, sp, %lo(__alt_stack_pointer)
 8400238:	dec00014 	ori	sp,sp,0
    movhi gp, %hi(_gp)
 840023c:	06821134 	movhi	gp,2116
    ori gp, gp, %lo(_gp)
 8400240:	d6901514 	ori	gp,gp,16468
 */
#ifndef ALT_SIM_OPTIMIZE
    /* Log that the BSS is about to be cleared. */
    ALT_LOG_PUTS(alt_log_msg_bss)

    movhi r2, %hi(__bss_start)
 8400244:	008210f4 	movhi	r2,2115
    ori r2, r2, %lo(__bss_start)
 8400248:	10bca014 	ori	r2,r2,62080

    movhi r3, %hi(__bss_end)
 840024c:	00c210f4 	movhi	r3,2115
    ori r3, r3, %lo(__bss_end)
 8400250:	18fcf914 	ori	r3,r3,62436

    beq r2, r3, 1f
 8400254:	10c00326 	beq	r2,r3,8400264 <_start+0x40>

0:
    stw zero, (r2)
 8400258:	10000015 	stw	zero,0(r2)
    addi r2, r2, 4
 840025c:	10800104 	addi	r2,r2,4
    bltu r2, r3, 0b
 8400260:	10fffd36 	bltu	r2,r3,8400258 <__alt_data_end+0xfc400258>
     * section aren't defined until alt_load() has been called).
     */
    mov   et, zero
#endif

    call alt_load
 8400264:	840d1e40 	call	840d1e4 <alt_load>

    /* Log that alt_main is about to be called. */
    ALT_LOG_PUTS(alt_log_msg_alt_main)

    /* Call the C entry point. It should never return. */
    call alt_main
 8400268:	840d3780 	call	840d378 <alt_main>

0840026c <alt_after_alt_main>:

    /* Wait in infinite loop in case alt_main does return. */
alt_after_alt_main:
    br alt_after_alt_main
 840026c:	003fff06 	br	840026c <__alt_data_end+0xfc40026c>

08400270 <main>:
	FINISHED,
	NEW_GAME
}STATUS;


int main() {
 8400270:	defffb04 	addi	sp,sp,-20
 8400274:	dfc00415 	stw	ra,16(sp)
 8400278:	df000315 	stw	fp,12(sp)
 840027c:	dc800215 	stw	r18,8(sp)
 8400280:	dc400115 	stw	r17,4(sp)
 8400284:	dc000015 	stw	r16,0(sp)
 8400288:	df000304 	addi	fp,sp,12
 840028c:	023ffef4 	movhi	r8,65531
 8400290:	42004a04 	addi	r8,r8,296
 8400294:	da37883a 	add	sp,sp,r8
	STATUS status=NO_IMG;
 8400298:	00bffef4 	movhi	r2,65531
 840029c:	10805a04 	addi	r2,r2,360
 84002a0:	1705883a 	add	r2,r2,fp
 84002a4:	10000015 	stw	zero,0(r2)
	int ButtonId;
	MNIST_Image mnist_img;
	bool img[DRAW_WIDTH*DRAW_WIDTH];

	expression exp;
	uint8_t result[3]={0,0,0};			//risultato immesso dall'utente
 84002a8:	00800174 	movhi	r2,5
 84002ac:	10bf9d04 	addi	r2,r2,-396
 84002b0:	00fffef4 	movhi	r3,65531
 84002b4:	18c05a04 	addi	r3,r3,360
 84002b8:	1f07883a 	add	r3,r3,fp
 84002bc:	1885883a 	add	r2,r3,r2
 84002c0:	10000005 	stb	zero,0(r2)
 84002c4:	00800174 	movhi	r2,5
 84002c8:	10bf9d04 	addi	r2,r2,-396
 84002cc:	013ffef4 	movhi	r4,65531
 84002d0:	21005a04 	addi	r4,r4,360
 84002d4:	2709883a 	add	r4,r4,fp
 84002d8:	2085883a 	add	r2,r4,r2
 84002dc:	10000045 	stb	zero,1(r2)
 84002e0:	00800174 	movhi	r2,5
 84002e4:	10bf9d04 	addi	r2,r2,-396
 84002e8:	017ffef4 	movhi	r5,65531
 84002ec:	29405a04 	addi	r5,r5,360
 84002f0:	2f0b883a 	add	r5,r5,fp
 84002f4:	2885883a 	add	r2,r5,r2
 84002f8:	10000085 	stb	zero,2(r2)
	uint8_t answer=0;
 84002fc:	01bffef4 	movhi	r6,65531
 8400300:	31805b04 	addi	r6,r6,364
 8400304:	370d883a 	add	r6,r6,fp
 8400308:	30000005 	stb	zero,0(r6)
	uint8_t digits=0;					//numero di cifre inserite dall'utente
 840030c:	01fffef4 	movhi	r7,65531
 8400310:	39c05b44 	addi	r7,r7,365
 8400314:	3f0f883a 	add	r7,r7,fp
 8400318:	38000005 	stb	zero,0(r7)
	bool red_digit=0;					//flag di presenza di cifre rosse (non confermate)
 840031c:	00bffef4 	movhi	r2,65531
 8400320:	10805c04 	addi	r2,r2,368
 8400324:	1705883a 	add	r2,r2,fp
 8400328:	10000015 	stw	zero,0(r2)
	bool writing=FALSE;
 840032c:	00fffef4 	movhi	r3,65531
 8400330:	18c05d04 	addi	r3,r3,372
 8400334:	1f07883a 	add	r3,r3,fp
 8400338:	18000015 	stw	zero,0(r3)

	for(int i=0; i<DRAW_WIDTH*DRAW_WIDTH; i++)
 840033c:	013ffef4 	movhi	r4,65531
 8400340:	21005e04 	addi	r4,r4,376
 8400344:	2709883a 	add	r4,r4,fp
 8400348:	20000015 	stw	zero,0(r4)
 840034c:	00001706 	br	84003ac <main+0x13c>
	    img[i]=0;
 8400350:	008000b4 	movhi	r2,2
 8400354:	10bb9804 	addi	r2,r2,-4512
 8400358:	017ffef4 	movhi	r5,65531
 840035c:	29405a04 	addi	r5,r5,360
 8400360:	2f0b883a 	add	r5,r5,fp
 8400364:	2887883a 	add	r3,r5,r2
 8400368:	01bffef4 	movhi	r6,65531
 840036c:	31805e04 	addi	r6,r6,376
 8400370:	370d883a 	add	r6,r6,fp
 8400374:	30800017 	ldw	r2,0(r6)
 8400378:	1085883a 	add	r2,r2,r2
 840037c:	1085883a 	add	r2,r2,r2
 8400380:	1885883a 	add	r2,r3,r2
 8400384:	10000015 	stw	zero,0(r2)
	uint8_t answer=0;
	uint8_t digits=0;					//numero di cifre inserite dall'utente
	bool red_digit=0;					//flag di presenza di cifre rosse (non confermate)
	bool writing=FALSE;

	for(int i=0; i<DRAW_WIDTH*DRAW_WIDTH; i++)
 8400388:	01fffef4 	movhi	r7,65531
 840038c:	39c05e04 	addi	r7,r7,376
 8400390:	3f0f883a 	add	r7,r7,fp
 8400394:	38800017 	ldw	r2,0(r7)
 8400398:	10800044 	addi	r2,r2,1
 840039c:	00fffef4 	movhi	r3,65531
 84003a0:	18c05e04 	addi	r3,r3,376
 84003a4:	1f07883a 	add	r3,r3,fp
 84003a8:	18800015 	stw	r2,0(r3)
 84003ac:	013ffef4 	movhi	r4,65531
 84003b0:	21005e04 	addi	r4,r4,376
 84003b4:	2709883a 	add	r4,r4,fp
 84003b8:	20800017 	ldw	r2,0(r4)
 84003bc:	00f0ffd4 	movui	r3,50175
 84003c0:	18bfe30e 	bge	r3,r2,8400350 <__alt_data_end+0xfc400350>
	    img[i]=0;

    initLayer(&nn_layer);
 84003c4:	017ffef4 	movhi	r5,65531
 84003c8:	29406504 	addi	r5,r5,404
 84003cc:	e145883a 	add	r2,fp,r5
 84003d0:	1009883a 	mov	r4,r2
 84003d4:	8401c140 	call	8401c14 <initLayer>

    usleep(40000);
 84003d8:	01271014 	movui	r4,40000
 84003dc:	840d82c0 	call	840d82c <usleep>

   // init touch
   pTouch = Touch_Init(TOUCH_PANEL_SPI_BASE, TOUCH_PANEL_PEN_IRQ_N_BASE, TOUCH_PANEL_PEN_IRQ_N_IRQ);
 84003e0:	018000c4 	movi	r6,3
 84003e4:	01404034 	movhi	r5,256
 84003e8:	29401004 	addi	r5,r5,64
 84003ec:	01004034 	movhi	r4,256
 84003f0:	84061200 	call	8406120 <Touch_Init>
 84003f4:	01bffef4 	movhi	r6,65531
 84003f8:	31806304 	addi	r6,r6,396
 84003fc:	370d883a 	add	r6,r6,fp
 8400400:	30800015 	stw	r2,0(r6)
   if (!pTouch)
 8400404:	01fffef4 	movhi	r7,65531
 8400408:	39c06304 	addi	r7,r7,396
 840040c:	3f0f883a 	add	r7,r7,fp
 8400410:	38800017 	ldw	r2,0(r7)
 8400414:	1000041e 	bne	r2,zero,8400428 <main+0x1b8>
	   printf("Failed to init touch\r\n");
 8400418:	01021074 	movhi	r4,2113
 840041c:	213ec704 	addi	r4,r4,-1252
 8400420:	840a22c0 	call	840a22c <puts>
 8400424:	00000306 	br	8400434 <main+0x1c4>
   else
	   printf("Init touch successfully\r\n");
 8400428:	01021074 	movhi	r4,2113
 840042c:	213ecd04 	addi	r4,r4,-1228
 8400430:	840a22c0 	call	840a22c <puts>


   // init LCD
   LCD_Init();
 8400434:	84022300 	call	8402230 <LCD_Init>
   LCD_Clear(0X0000);
 8400438:	0009883a 	mov	r4,zero
 840043c:	840214c0 	call	840214c <LCD_Clear>

   // init display
   Display.interlace = 0;
 8400440:	008000b4 	movhi	r2,2
 8400444:	10bac704 	addi	r2,r2,-5348
 8400448:	00fffef4 	movhi	r3,65531
 840044c:	18c05a04 	addi	r3,r3,360
 8400450:	1f07883a 	add	r3,r3,fp
 8400454:	1885883a 	add	r2,r3,r2
 8400458:	10000415 	stw	zero,16(r2)
   Display.bytes_per_pixel = 2;
 840045c:	008000b4 	movhi	r2,2
 8400460:	10bac704 	addi	r2,r2,-5348
 8400464:	013ffef4 	movhi	r4,65531
 8400468:	21005a04 	addi	r4,r4,360
 840046c:	2709883a 	add	r4,r4,fp
 8400470:	2085883a 	add	r2,r4,r2
 8400474:	00c00084 	movi	r3,2
 8400478:	10c00315 	stw	r3,12(r2)
   Display.color_depth = 16;
 840047c:	008000b4 	movhi	r2,2
 8400480:	10bac704 	addi	r2,r2,-5348
 8400484:	017ffef4 	movhi	r5,65531
 8400488:	29405a04 	addi	r5,r5,360
 840048c:	2f0b883a 	add	r5,r5,fp
 8400490:	2885883a 	add	r2,r5,r2
 8400494:	00c00404 	movi	r3,16
 8400498:	10c00015 	stw	r3,0(r2)
   Display.height = SCREEN_HEIGHT;
 840049c:	008000b4 	movhi	r2,2
 84004a0:	10bac704 	addi	r2,r2,-5348
 84004a4:	01bffef4 	movhi	r6,65531
 84004a8:	31805a04 	addi	r6,r6,360
 84004ac:	370d883a 	add	r6,r6,fp
 84004b0:	3085883a 	add	r2,r6,r2
 84004b4:	00c05004 	movi	r3,320
 84004b8:	10c00215 	stw	r3,8(r2)
   Display.width = SCREEN_WIDTH;
 84004bc:	008000b4 	movhi	r2,2
 84004c0:	10bac704 	addi	r2,r2,-5348
 84004c4:	01fffef4 	movhi	r7,65531
 84004c8:	39c05a04 	addi	r7,r7,360
 84004cc:	3f0f883a 	add	r7,r7,fp
 84004d0:	3885883a 	add	r2,r7,r2
 84004d4:	00c03c04 	movi	r3,240
 84004d8:	10c00115 	stw	r3,4(r2)

   // init GUI
   GUI(&Display, &DeskInfo, pTouch);
 84004dc:	008000b4 	movhi	r2,2
 84004e0:	10bab304 	addi	r2,r2,-5428
 84004e4:	013ffef4 	movhi	r4,65531
 84004e8:	21005a04 	addi	r4,r4,360
 84004ec:	2709883a 	add	r4,r4,fp
 84004f0:	2087883a 	add	r3,r4,r2
 84004f4:	008000b4 	movhi	r2,2
 84004f8:	10bac704 	addi	r2,r2,-5348
 84004fc:	017ffef4 	movhi	r5,65531
 8400500:	29405a04 	addi	r5,r5,360
 8400504:	2f0b883a 	add	r5,r5,fp
 8400508:	2885883a 	add	r2,r5,r2
 840050c:	01fffef4 	movhi	r7,65531
 8400510:	39c06304 	addi	r7,r7,396
 8400514:	3f0f883a 	add	r7,r7,fp
 8400518:	39800017 	ldw	r6,0(r7)
 840051c:	180b883a 	mov	r5,r3
 8400520:	1009883a 	mov	r4,r2
 8400524:	840394c0 	call	840394c <GUI>
   RectCopy(&rcTouch, &DeskInfo.rcPaint);
 8400528:	008000b4 	movhi	r2,2
 840052c:	10bab304 	addi	r2,r2,-5428
 8400530:	013ffef4 	movhi	r4,65531
 8400534:	21005a04 	addi	r4,r4,360
 8400538:	2709883a 	add	r4,r4,fp
 840053c:	2087883a 	add	r3,r4,r2
 8400540:	008000b4 	movhi	r2,2
 8400544:	10bacc04 	addi	r2,r2,-5328
 8400548:	017ffef4 	movhi	r5,65531
 840054c:	29405a04 	addi	r5,r5,360
 8400550:	2f0b883a 	add	r5,r5,fp
 8400554:	2885883a 	add	r2,r5,r2
 8400558:	180b883a 	mov	r5,r3
 840055c:	1009883a 	mov	r4,r2
 8400560:	8402b6c0 	call	8402b6c <RectCopy>
   RectInflate(&rcTouch, -DOT_SIZE-2, -DOT_SIZE-2);
 8400564:	008000b4 	movhi	r2,2
 8400568:	10bacc04 	addi	r2,r2,-5328
 840056c:	01bffef4 	movhi	r6,65531
 8400570:	31805a04 	addi	r6,r6,360
 8400574:	370d883a 	add	r6,r6,fp
 8400578:	3085883a 	add	r2,r6,r2
 840057c:	01bffbc4 	movi	r6,-17
 8400580:	017ffbc4 	movi	r5,-17
 8400584:	1009883a 	mov	r4,r2
 8400588:	8402a540 	call	8402a54 <RectInflate>

   exp=NewExpression();
 840058c:	00800174 	movhi	r2,5
 8400590:	10bf9804 	addi	r2,r2,-416
 8400594:	01fffef4 	movhi	r7,65531
 8400598:	39c05a04 	addi	r7,r7,360
 840059c:	3f0f883a 	add	r7,r7,fp
 84005a0:	38a1883a 	add	r16,r7,r2
 84005a4:	00800174 	movhi	r2,5
 84005a8:	10bf9e04 	addi	r2,r2,-392
 84005ac:	00fffef4 	movhi	r3,65531
 84005b0:	18c05a04 	addi	r3,r3,360
 84005b4:	1f07883a 	add	r3,r3,fp
 84005b8:	1885883a 	add	r2,r3,r2
 84005bc:	1009883a 	mov	r4,r2
 84005c0:	8403bdc0 	call	8403bdc <NewExpression>
 84005c4:	00800174 	movhi	r2,5
 84005c8:	10bf9e04 	addi	r2,r2,-392
 84005cc:	013ffef4 	movhi	r4,65531
 84005d0:	21005a04 	addi	r4,r4,360
 84005d4:	2709883a 	add	r4,r4,fp
 84005d8:	2085883a 	add	r2,r4,r2
 84005dc:	10c00017 	ldw	r3,0(r2)
 84005e0:	80c00015 	stw	r3,0(r16)
 84005e4:	10c00117 	ldw	r3,4(r2)
 84005e8:	80c00115 	stw	r3,4(r16)
 84005ec:	10c00217 	ldw	r3,8(r2)
 84005f0:	80c00215 	stw	r3,8(r16)
 84005f4:	10c00317 	ldw	r3,12(r2)
 84005f8:	80c00315 	stw	r3,12(r16)
 84005fc:	10800417 	ldw	r2,16(r2)
 8400600:	80800415 	stw	r2,16(r16)
   Print(RECT_EXP, DeskInfo, exp.string);
 8400604:	008000b4 	movhi	r2,2
 8400608:	10bab304 	addi	r2,r2,-5428
 840060c:	017ffef4 	movhi	r5,65531
 8400610:	29405a04 	addi	r5,r5,360
 8400614:	2f0b883a 	add	r5,r5,fp
 8400618:	28a1883a 	add	r16,r5,r2
 840061c:	00800174 	movhi	r2,5
 8400620:	10bf9804 	addi	r2,r2,-416
 8400624:	01bffef4 	movhi	r6,65531
 8400628:	31805a04 	addi	r6,r6,360
 840062c:	370d883a 	add	r6,r6,fp
 8400630:	3085883a 	add	r2,r6,r2
 8400634:	10800344 	addi	r2,r2,13
 8400638:	d8801115 	stw	r2,68(sp)
 840063c:	d809883a 	mov	r4,sp
 8400640:	80800304 	addi	r2,r16,12
 8400644:	00c01104 	movi	r3,68
 8400648:	180d883a 	mov	r6,r3
 840064c:	100b883a 	mov	r5,r2
 8400650:	8409edc0 	call	8409edc <memcpy>
 8400654:	81400017 	ldw	r5,0(r16)
 8400658:	81800117 	ldw	r6,4(r16)
 840065c:	81c00217 	ldw	r7,8(r16)
 8400660:	01000184 	movi	r4,6
 8400664:	84034900 	call	8403490 <Print>

   while(1){
	   if(SLIDERS_DATA_REG & 0x01){
 8400668:	00804034 	movhi	r2,256
 840066c:	10801c04 	addi	r2,r2,112
 8400670:	10800017 	ldw	r2,0(r2)
 8400674:	1080004c 	andi	r2,r2,1
 8400678:	10010526 	beq	r2,zero,8400a90 <main+0x820>
		   ShowHelp(&Display, &DeskInfo, pTouch);
 840067c:	008000b4 	movhi	r2,2
 8400680:	10bab304 	addi	r2,r2,-5428
 8400684:	01fffef4 	movhi	r7,65531
 8400688:	39c05a04 	addi	r7,r7,360
 840068c:	3f0f883a 	add	r7,r7,fp
 8400690:	3887883a 	add	r3,r7,r2
 8400694:	008000b4 	movhi	r2,2
 8400698:	10bac704 	addi	r2,r2,-5348
 840069c:	013ffef4 	movhi	r4,65531
 84006a0:	21005a04 	addi	r4,r4,360
 84006a4:	2709883a 	add	r4,r4,fp
 84006a8:	2085883a 	add	r2,r4,r2
 84006ac:	017ffef4 	movhi	r5,65531
 84006b0:	29406304 	addi	r5,r5,396
 84006b4:	2f0b883a 	add	r5,r5,fp
 84006b8:	29800017 	ldw	r6,0(r5)
 84006bc:	180b883a 	mov	r5,r3
 84006c0:	1009883a 	mov	r4,r2
 84006c4:	84039c40 	call	84039c4 <ShowHelp>
		   Print(RECT_EXP, DeskInfo, exp.string);
 84006c8:	008000b4 	movhi	r2,2
 84006cc:	10bab304 	addi	r2,r2,-5428
 84006d0:	01bffef4 	movhi	r6,65531
 84006d4:	31805a04 	addi	r6,r6,360
 84006d8:	370d883a 	add	r6,r6,fp
 84006dc:	30a1883a 	add	r16,r6,r2
 84006e0:	00800174 	movhi	r2,5
 84006e4:	10bf9804 	addi	r2,r2,-416
 84006e8:	01fffef4 	movhi	r7,65531
 84006ec:	39c05a04 	addi	r7,r7,360
 84006f0:	3f0f883a 	add	r7,r7,fp
 84006f4:	3885883a 	add	r2,r7,r2
 84006f8:	10800344 	addi	r2,r2,13
 84006fc:	d8801115 	stw	r2,68(sp)
 8400700:	d809883a 	mov	r4,sp
 8400704:	80800304 	addi	r2,r16,12
 8400708:	00c01104 	movi	r3,68
 840070c:	180d883a 	mov	r6,r3
 8400710:	100b883a 	mov	r5,r2
 8400714:	8409edc0 	call	8409edc <memcpy>
 8400718:	81400017 	ldw	r5,0(r16)
 840071c:	81800117 	ldw	r6,4(r16)
 8400720:	81c00217 	ldw	r7,8(r16)
 8400724:	01000184 	movi	r4,6
 8400728:	84034900 	call	8403490 <Print>
		   writing=FALSE;
 840072c:	00bffef4 	movhi	r2,65531
 8400730:	10805d04 	addi	r2,r2,372
 8400734:	1705883a 	add	r2,r2,fp
 8400738:	10000015 	stw	zero,0(r2)
		   red_digit=FALSE;
 840073c:	00fffef4 	movhi	r3,65531
 8400740:	18c05c04 	addi	r3,r3,368
 8400744:	1f07883a 	add	r3,r3,fp
 8400748:	18000015 	stw	zero,0(r3)
		   for(int n=0; n<digits; n++)
 840074c:	013ffef4 	movhi	r4,65531
 8400750:	21005f04 	addi	r4,r4,380
 8400754:	2709883a 	add	r4,r4,fp
 8400758:	20000015 	stw	zero,0(r4)
 840075c:	00003806 	br	8400840 <main+0x5d0>
		   	   vid_print_char_alpha(DeskInfo.result.left+20+13*n, DeskInfo.result.top+9, BLACK_24, (char)(result[n]+48), WHITE_24, tahomabold_20);
 8400760:	008000b4 	movhi	r2,2
 8400764:	10bab304 	addi	r2,r2,-5428
 8400768:	017ffef4 	movhi	r5,65531
 840076c:	29405a04 	addi	r5,r5,360
 8400770:	2f0b883a 	add	r5,r5,fp
 8400774:	2885883a 	add	r2,r5,r2
 8400778:	10801017 	ldw	r2,64(r2)
 840077c:	10c00504 	addi	r3,r2,20
 8400780:	01bffef4 	movhi	r6,65531
 8400784:	31805f04 	addi	r6,r6,380
 8400788:	370d883a 	add	r6,r6,fp
 840078c:	30800017 	ldw	r2,0(r6)
 8400790:	10800364 	muli	r2,r2,13
 8400794:	1889883a 	add	r4,r3,r2
 8400798:	008000b4 	movhi	r2,2
 840079c:	10bab304 	addi	r2,r2,-5428
 84007a0:	01fffef4 	movhi	r7,65531
 84007a4:	39c05a04 	addi	r7,r7,360
 84007a8:	3f0f883a 	add	r7,r7,fp
 84007ac:	3885883a 	add	r2,r7,r2
 84007b0:	10801217 	ldw	r2,72(r2)
 84007b4:	11400244 	addi	r5,r2,9
 84007b8:	00800174 	movhi	r2,5
 84007bc:	10bf9d04 	addi	r2,r2,-396
 84007c0:	01bffef4 	movhi	r6,65531
 84007c4:	31805a04 	addi	r6,r6,360
 84007c8:	370d883a 	add	r6,r6,fp
 84007cc:	3087883a 	add	r3,r6,r2
 84007d0:	01fffef4 	movhi	r7,65531
 84007d4:	39c05f04 	addi	r7,r7,380
 84007d8:	3f0f883a 	add	r7,r7,fp
 84007dc:	38800017 	ldw	r2,0(r7)
 84007e0:	1885883a 	add	r2,r3,r2
 84007e4:	10800003 	ldbu	r2,0(r2)
 84007e8:	10800c04 	addi	r2,r2,48
 84007ec:	10c03fcc 	andi	r3,r2,255
 84007f0:	18c0201c 	xori	r3,r3,128
 84007f4:	18ffe004 	addi	r3,r3,-128
 84007f8:	00821134 	movhi	r2,2116
 84007fc:	10a3a804 	addi	r2,r2,-29024
 8400800:	d8800115 	stw	r2,4(sp)
 8400804:	00804034 	movhi	r2,256
 8400808:	10bfffc4 	addi	r2,r2,-1
 840080c:	d8800015 	stw	r2,0(sp)
 8400810:	180f883a 	mov	r7,r3
 8400814:	000d883a 	mov	r6,zero
 8400818:	8405edc0 	call	8405edc <vid_print_char_alpha>
	   if(SLIDERS_DATA_REG & 0x01){
		   ShowHelp(&Display, &DeskInfo, pTouch);
		   Print(RECT_EXP, DeskInfo, exp.string);
		   writing=FALSE;
		   red_digit=FALSE;
		   for(int n=0; n<digits; n++)
 840081c:	00fffef4 	movhi	r3,65531
 8400820:	18c05f04 	addi	r3,r3,380
 8400824:	1f07883a 	add	r3,r3,fp
 8400828:	18800017 	ldw	r2,0(r3)
 840082c:	10800044 	addi	r2,r2,1
 8400830:	013ffef4 	movhi	r4,65531
 8400834:	21005f04 	addi	r4,r4,380
 8400838:	2709883a 	add	r4,r4,fp
 840083c:	20800015 	stw	r2,0(r4)
 8400840:	017ffef4 	movhi	r5,65531
 8400844:	29405b44 	addi	r5,r5,365
 8400848:	2f0b883a 	add	r5,r5,fp
 840084c:	28800003 	ldbu	r2,0(r5)
 8400850:	01bffef4 	movhi	r6,65531
 8400854:	31805f04 	addi	r6,r6,380
 8400858:	370d883a 	add	r6,r6,fp
 840085c:	30c00017 	ldw	r3,0(r6)
 8400860:	18bfbf16 	blt	r3,r2,8400760 <__alt_data_end+0xfc400760>
		   	   vid_print_char_alpha(DeskInfo.result.left+20+13*n, DeskInfo.result.top+9, BLACK_24, (char)(result[n]+48), WHITE_24, tahomabold_20);

		   if(status==NEW_GAME){
 8400864:	01fffef4 	movhi	r7,65531
 8400868:	39c05a04 	addi	r7,r7,360
 840086c:	3f0f883a 	add	r7,r7,fp
 8400870:	38800017 	ldw	r2,0(r7)
 8400874:	10800118 	cmpnei	r2,r2,4
 8400878:	10007b1e 	bne	r2,zero,8400a68 <main+0x7f8>
			   vid_draw_box (DeskInfo.expression.left, DeskInfo.expression.top, DeskInfo.expression.right, DeskInfo.expression.bottom, YELLOW_24, DO_FILL, &Display);
 840087c:	008000b4 	movhi	r2,2
 8400880:	10bab304 	addi	r2,r2,-5428
 8400884:	00fffef4 	movhi	r3,65531
 8400888:	18c05a04 	addi	r3,r3,360
 840088c:	1f07883a 	add	r3,r3,fp
 8400890:	1885883a 	add	r2,r3,r2
 8400894:	10c00c17 	ldw	r3,48(r2)
 8400898:	008000b4 	movhi	r2,2
 840089c:	10bab304 	addi	r2,r2,-5428
 84008a0:	013ffef4 	movhi	r4,65531
 84008a4:	21005a04 	addi	r4,r4,360
 84008a8:	2709883a 	add	r4,r4,fp
 84008ac:	2085883a 	add	r2,r4,r2
 84008b0:	11000e17 	ldw	r4,56(r2)
 84008b4:	008000b4 	movhi	r2,2
 84008b8:	10bab304 	addi	r2,r2,-5428
 84008bc:	017ffef4 	movhi	r5,65531
 84008c0:	29405a04 	addi	r5,r5,360
 84008c4:	2f0b883a 	add	r5,r5,fp
 84008c8:	2885883a 	add	r2,r5,r2
 84008cc:	11400d17 	ldw	r5,52(r2)
 84008d0:	008000b4 	movhi	r2,2
 84008d4:	10bab304 	addi	r2,r2,-5428
 84008d8:	01bffef4 	movhi	r6,65531
 84008dc:	31805a04 	addi	r6,r6,360
 84008e0:	370d883a 	add	r6,r6,fp
 84008e4:	3085883a 	add	r2,r6,r2
 84008e8:	11800f17 	ldw	r6,60(r2)
 84008ec:	008000b4 	movhi	r2,2
 84008f0:	10bac704 	addi	r2,r2,-5348
 84008f4:	01fffef4 	movhi	r7,65531
 84008f8:	39c05a04 	addi	r7,r7,360
 84008fc:	3f0f883a 	add	r7,r7,fp
 8400900:	3885883a 	add	r2,r7,r2
 8400904:	d8800215 	stw	r2,8(sp)
 8400908:	00800044 	movi	r2,1
 840090c:	d8800115 	stw	r2,4(sp)
 8400910:	00804034 	movhi	r2,256
 8400914:	10bfc004 	addi	r2,r2,-256
 8400918:	d8800015 	stw	r2,0(sp)
 840091c:	300f883a 	mov	r7,r6
 8400920:	280d883a 	mov	r6,r5
 8400924:	200b883a 	mov	r5,r4
 8400928:	1809883a 	mov	r4,r3
 840092c:	84042880 	call	8404288 <vid_draw_box>
			   Print(BTN_NEWGAME, DeskInfo, "New game!");
 8400930:	008000b4 	movhi	r2,2
 8400934:	10bab304 	addi	r2,r2,-5428
 8400938:	00fffef4 	movhi	r3,65531
 840093c:	18c05a04 	addi	r3,r3,360
 8400940:	1f07883a 	add	r3,r3,fp
 8400944:	18a1883a 	add	r16,r3,r2
 8400948:	00821074 	movhi	r2,2113
 840094c:	10bed404 	addi	r2,r2,-1200
 8400950:	d8801115 	stw	r2,68(sp)
 8400954:	d809883a 	mov	r4,sp
 8400958:	80800304 	addi	r2,r16,12
 840095c:	00c01104 	movi	r3,68
 8400960:	180d883a 	mov	r6,r3
 8400964:	100b883a 	mov	r5,r2
 8400968:	8409edc0 	call	8409edc <memcpy>
 840096c:	81400017 	ldw	r5,0(r16)
 8400970:	81800117 	ldw	r6,4(r16)
 8400974:	81c00217 	ldw	r7,8(r16)
 8400978:	01000104 	movi	r4,4
 840097c:	84034900 	call	8403490 <Print>
			   if(answer==exp.answer && digits!=0)
 8400980:	013ffef4 	movhi	r4,65531
 8400984:	21005b04 	addi	r4,r4,364
 8400988:	2709883a 	add	r4,r4,fp
 840098c:	20c00003 	ldbu	r3,0(r4)
 8400990:	00800174 	movhi	r2,5
 8400994:	10bf9804 	addi	r2,r2,-416
 8400998:	017ffef4 	movhi	r5,65531
 840099c:	29405a04 	addi	r5,r5,360
 84009a0:	2f0b883a 	add	r5,r5,fp
 84009a4:	2885883a 	add	r2,r5,r2
 84009a8:	10800217 	ldw	r2,8(r2)
 84009ac:	18801a1e 	bne	r3,r2,8400a18 <main+0x7a8>
 84009b0:	01bffef4 	movhi	r6,65531
 84009b4:	31805b44 	addi	r6,r6,365
 84009b8:	370d883a 	add	r6,r6,fp
 84009bc:	30800003 	ldbu	r2,0(r6)
 84009c0:	10001526 	beq	r2,zero,8400a18 <main+0x7a8>
				   Print(RECT_PAINT, DeskInfo, "Nice");
 84009c4:	008000b4 	movhi	r2,2
 84009c8:	10bab304 	addi	r2,r2,-5428
 84009cc:	01fffef4 	movhi	r7,65531
 84009d0:	39c05a04 	addi	r7,r7,360
 84009d4:	3f0f883a 	add	r7,r7,fp
 84009d8:	38a1883a 	add	r16,r7,r2
 84009dc:	00821074 	movhi	r2,2113
 84009e0:	10bed704 	addi	r2,r2,-1188
 84009e4:	d8801115 	stw	r2,68(sp)
 84009e8:	d809883a 	mov	r4,sp
 84009ec:	80800304 	addi	r2,r16,12
 84009f0:	00c01104 	movi	r3,68
 84009f4:	180d883a 	mov	r6,r3
 84009f8:	100b883a 	mov	r5,r2
 84009fc:	8409edc0 	call	8409edc <memcpy>
 8400a00:	81400017 	ldw	r5,0(r16)
 8400a04:	81800117 	ldw	r6,4(r16)
 8400a08:	81c00217 	ldw	r7,8(r16)
 8400a0c:	01000144 	movi	r4,5
 8400a10:	84034900 	call	8403490 <Print>
 8400a14:	00001406 	br	8400a68 <main+0x7f8>
			   else
					Print(RECT_PAINT, DeskInfo, "Nope");
 8400a18:	008000b4 	movhi	r2,2
 8400a1c:	10bab304 	addi	r2,r2,-5428
 8400a20:	00fffef4 	movhi	r3,65531
 8400a24:	18c05a04 	addi	r3,r3,360
 8400a28:	1f07883a 	add	r3,r3,fp
 8400a2c:	18a1883a 	add	r16,r3,r2
 8400a30:	00821074 	movhi	r2,2113
 8400a34:	10bed904 	addi	r2,r2,-1180
 8400a38:	d8801115 	stw	r2,68(sp)
 8400a3c:	d809883a 	mov	r4,sp
 8400a40:	80800304 	addi	r2,r16,12
 8400a44:	00c01104 	movi	r3,68
 8400a48:	180d883a 	mov	r6,r3
 8400a4c:	100b883a 	mov	r5,r2
 8400a50:	8409edc0 	call	8409edc <memcpy>
 8400a54:	81400017 	ldw	r5,0(r16)
 8400a58:	81800117 	ldw	r6,4(r16)
 8400a5c:	81c00217 	ldw	r7,8(r16)
 8400a60:	01000144 	movi	r4,5
 8400a64:	84034900 	call	8403490 <Print>
		   }
		   if(status==CONFIRM)
 8400a68:	013ffef4 	movhi	r4,65531
 8400a6c:	21005a04 	addi	r4,r4,360
 8400a70:	2709883a 	add	r4,r4,fp
 8400a74:	20800017 	ldw	r2,0(r4)
 8400a78:	10800098 	cmpnei	r2,r2,2
 8400a7c:	1000041e 	bne	r2,zero,8400a90 <main+0x820>
			   status=NO_IMG;
 8400a80:	017ffef4 	movhi	r5,65531
 8400a84:	29405a04 	addi	r5,r5,360
 8400a88:	2f0b883a 	add	r5,r5,fp
 8400a8c:	28000015 	stw	zero,0(r5)
	   }

   		if (Touch_GetXY(pTouch, &X, &Y)){
 8400a90:	008000b4 	movhi	r2,2
 8400a94:	10bad304 	addi	r2,r2,-5300
 8400a98:	01bffef4 	movhi	r6,65531
 8400a9c:	31805a04 	addi	r6,r6,360
 8400aa0:	370d883a 	add	r6,r6,fp
 8400aa4:	3087883a 	add	r3,r6,r2
 8400aa8:	008000b4 	movhi	r2,2
 8400aac:	10bad204 	addi	r2,r2,-5304
 8400ab0:	01fffef4 	movhi	r7,65531
 8400ab4:	39c05a04 	addi	r7,r7,360
 8400ab8:	3f0f883a 	add	r7,r7,fp
 8400abc:	3885883a 	add	r2,r7,r2
 8400ac0:	180d883a 	mov	r6,r3
 8400ac4:	100b883a 	mov	r5,r2
 8400ac8:	00bffef4 	movhi	r2,65531
 8400acc:	10806304 	addi	r2,r2,396
 8400ad0:	1705883a 	add	r2,r2,fp
 8400ad4:	11000017 	ldw	r4,0(r2)
 8400ad8:	84063340 	call	8406334 <Touch_GetXY>
 8400adc:	1003a026 	beq	r2,zero,8401960 <main+0x16f0>

   			PtSet(&Pt, X, Y);
 8400ae0:	008000b4 	movhi	r2,2
 8400ae4:	10bad204 	addi	r2,r2,-5304
 8400ae8:	00fffef4 	movhi	r3,65531
 8400aec:	18c05a04 	addi	r3,r3,360
 8400af0:	1f07883a 	add	r3,r3,fp
 8400af4:	1885883a 	add	r2,r3,r2
 8400af8:	10c00017 	ldw	r3,0(r2)
 8400afc:	008000b4 	movhi	r2,2
 8400b00:	10bad304 	addi	r2,r2,-5300
 8400b04:	013ffef4 	movhi	r4,65531
 8400b08:	21005a04 	addi	r4,r4,360
 8400b0c:	2709883a 	add	r4,r4,fp
 8400b10:	2085883a 	add	r2,r4,r2
 8400b14:	11000017 	ldw	r4,0(r2)
 8400b18:	008000b4 	movhi	r2,2
 8400b1c:	10bad004 	addi	r2,r2,-5312
 8400b20:	017ffef4 	movhi	r5,65531
 8400b24:	29405a04 	addi	r5,r5,360
 8400b28:	2f0b883a 	add	r5,r5,fp
 8400b2c:	2885883a 	add	r2,r5,r2
 8400b30:	200d883a 	mov	r6,r4
 8400b34:	180b883a 	mov	r5,r3
 8400b38:	1009883a 	mov	r4,r2
 8400b3c:	84029b00 	call	84029b0 <PtSet>
   			ButtonId = GUI_CheckButton(&DeskInfo, &Pt);
 8400b40:	008000b4 	movhi	r2,2
 8400b44:	10bad004 	addi	r2,r2,-5312
 8400b48:	01bffef4 	movhi	r6,65531
 8400b4c:	31805a04 	addi	r6,r6,360
 8400b50:	370d883a 	add	r6,r6,fp
 8400b54:	3087883a 	add	r3,r6,r2
 8400b58:	008000b4 	movhi	r2,2
 8400b5c:	10bab304 	addi	r2,r2,-5428
 8400b60:	01fffef4 	movhi	r7,65531
 8400b64:	39c05a04 	addi	r7,r7,360
 8400b68:	3f0f883a 	add	r7,r7,fp
 8400b6c:	3885883a 	add	r2,r7,r2
 8400b70:	180b883a 	mov	r5,r3
 8400b74:	1009883a 	mov	r4,r2
 8400b78:	8402f880 	call	8402f88 <GUI_CheckButton>
 8400b7c:	00fffef4 	movhi	r3,65531
 8400b80:	18c06404 	addi	r3,r3,400
 8400b84:	1f07883a 	add	r3,r3,fp
 8400b88:	18800015 	stw	r2,0(r3)

   			/*se c' tocco nell'area buona, coloro il punto toccato*/
   			if(IsPtInRect(&Pt, &rcTouch)){
 8400b8c:	008000b4 	movhi	r2,2
 8400b90:	10bacc04 	addi	r2,r2,-5328
 8400b94:	013ffef4 	movhi	r4,65531
 8400b98:	21005a04 	addi	r4,r4,360
 8400b9c:	2709883a 	add	r4,r4,fp
 8400ba0:	2087883a 	add	r3,r4,r2
 8400ba4:	008000b4 	movhi	r2,2
 8400ba8:	10bad004 	addi	r2,r2,-5312
 8400bac:	017ffef4 	movhi	r5,65531
 8400bb0:	29405a04 	addi	r5,r5,360
 8400bb4:	2f0b883a 	add	r5,r5,fp
 8400bb8:	2885883a 	add	r2,r5,r2
 8400bbc:	180b883a 	mov	r5,r3
 8400bc0:	1009883a 	mov	r4,r2
 8400bc4:	840292c0 	call	840292c <IsPtInRect>
 8400bc8:	10006926 	beq	r2,zero,8400d70 <main+0xb00>
   				vid_draw_circle(Pt.x, Pt.y, DOT_SIZE, WHITE_24, DO_FILL, &Display);
 8400bcc:	008000b4 	movhi	r2,2
 8400bd0:	10bad004 	addi	r2,r2,-5312
 8400bd4:	01bffef4 	movhi	r6,65531
 8400bd8:	31805a04 	addi	r6,r6,360
 8400bdc:	370d883a 	add	r6,r6,fp
 8400be0:	3085883a 	add	r2,r6,r2
 8400be4:	10c00017 	ldw	r3,0(r2)
 8400be8:	008000b4 	movhi	r2,2
 8400bec:	10bad004 	addi	r2,r2,-5312
 8400bf0:	01fffef4 	movhi	r7,65531
 8400bf4:	39c05a04 	addi	r7,r7,360
 8400bf8:	3f0f883a 	add	r7,r7,fp
 8400bfc:	3885883a 	add	r2,r7,r2
 8400c00:	11000117 	ldw	r4,4(r2)
 8400c04:	008000b4 	movhi	r2,2
 8400c08:	10bac704 	addi	r2,r2,-5348
 8400c0c:	017ffef4 	movhi	r5,65531
 8400c10:	29405a04 	addi	r5,r5,360
 8400c14:	2f0b883a 	add	r5,r5,fp
 8400c18:	2885883a 	add	r2,r5,r2
 8400c1c:	d8800115 	stw	r2,4(sp)
 8400c20:	00800044 	movi	r2,1
 8400c24:	d8800015 	stw	r2,0(sp)
 8400c28:	01c04034 	movhi	r7,256
 8400c2c:	39ffffc4 	addi	r7,r7,-1
 8400c30:	018003c4 	movi	r6,15
 8400c34:	200b883a 	mov	r5,r4
 8400c38:	1809883a 	mov	r4,r3
 8400c3c:	8404a7c0 	call	8404a7c <vid_draw_circle>
   				Update_img(Pt, img, DeskInfo);
 8400c40:	008000b4 	movhi	r2,2
 8400c44:	10bab304 	addi	r2,r2,-5428
 8400c48:	01bffef4 	movhi	r6,65531
 8400c4c:	31805a04 	addi	r6,r6,360
 8400c50:	370d883a 	add	r6,r6,fp
 8400c54:	30a3883a 	add	r17,r6,r2
 8400c58:	008000b4 	movhi	r2,2
 8400c5c:	10bb9804 	addi	r2,r2,-4512
 8400c60:	01fffef4 	movhi	r7,65531
 8400c64:	39c05a04 	addi	r7,r7,360
 8400c68:	3f0f883a 	add	r7,r7,fp
 8400c6c:	38a5883a 	add	r18,r7,r2
 8400c70:	008000b4 	movhi	r2,2
 8400c74:	10bad004 	addi	r2,r2,-5312
 8400c78:	00fffef4 	movhi	r3,65531
 8400c7c:	18c05a04 	addi	r3,r3,360
 8400c80:	1f07883a 	add	r3,r3,fp
 8400c84:	18a1883a 	add	r16,r3,r2
 8400c88:	d809883a 	mov	r4,sp
 8400c8c:	88800104 	addi	r2,r17,4
 8400c90:	00c01304 	movi	r3,76
 8400c94:	180d883a 	mov	r6,r3
 8400c98:	100b883a 	mov	r5,r2
 8400c9c:	8409edc0 	call	8409edc <memcpy>
 8400ca0:	89c00017 	ldw	r7,0(r17)
 8400ca4:	900d883a 	mov	r6,r18
 8400ca8:	81000017 	ldw	r4,0(r16)
 8400cac:	81400117 	ldw	r5,4(r16)
 8400cb0:	84036980 	call	8403698 <Update_img>
   				if(writing==FALSE){
 8400cb4:	013ffef4 	movhi	r4,65531
 8400cb8:	21005d04 	addi	r4,r4,372
 8400cbc:	2709883a 	add	r4,r4,fp
 8400cc0:	20800017 	ldw	r2,0(r4)
 8400cc4:	1000241e 	bne	r2,zero,8400d58 <main+0xae8>
   					GUI_ClearRect(BTN_ENTER, &DeskInfo, &Display);
 8400cc8:	008000b4 	movhi	r2,2
 8400ccc:	10bac704 	addi	r2,r2,-5348
 8400cd0:	017ffef4 	movhi	r5,65531
 8400cd4:	29405a04 	addi	r5,r5,360
 8400cd8:	2f0b883a 	add	r5,r5,fp
 8400cdc:	2887883a 	add	r3,r5,r2
 8400ce0:	008000b4 	movhi	r2,2
 8400ce4:	10bab304 	addi	r2,r2,-5428
 8400ce8:	01bffef4 	movhi	r6,65531
 8400cec:	31805a04 	addi	r6,r6,360
 8400cf0:	370d883a 	add	r6,r6,fp
 8400cf4:	3085883a 	add	r2,r6,r2
 8400cf8:	180d883a 	mov	r6,r3
 8400cfc:	100b883a 	mov	r5,r2
 8400d00:	01000084 	movi	r4,2
 8400d04:	84032c80 	call	84032c8 <GUI_ClearRect>
   					Print(BTN_ENTER, DeskInfo, "Enter");
 8400d08:	008000b4 	movhi	r2,2
 8400d0c:	10bab304 	addi	r2,r2,-5428
 8400d10:	01fffef4 	movhi	r7,65531
 8400d14:	39c05a04 	addi	r7,r7,360
 8400d18:	3f0f883a 	add	r7,r7,fp
 8400d1c:	38a1883a 	add	r16,r7,r2
 8400d20:	00821074 	movhi	r2,2113
 8400d24:	10bedb04 	addi	r2,r2,-1172
 8400d28:	d8801115 	stw	r2,68(sp)
 8400d2c:	d809883a 	mov	r4,sp
 8400d30:	80800304 	addi	r2,r16,12
 8400d34:	00c01104 	movi	r3,68
 8400d38:	180d883a 	mov	r6,r3
 8400d3c:	100b883a 	mov	r5,r2
 8400d40:	8409edc0 	call	8409edc <memcpy>
 8400d44:	81400017 	ldw	r5,0(r16)
 8400d48:	81800117 	ldw	r6,4(r16)
 8400d4c:	81c00217 	ldw	r7,8(r16)
 8400d50:	01000084 	movi	r4,2
 8400d54:	84034900 	call	8403490 <Print>
   				}
   				writing=TRUE;
 8400d58:	00800044 	movi	r2,1
 8400d5c:	00fffef4 	movhi	r3,65531
 8400d60:	18c05d04 	addi	r3,r3,372
 8400d64:	1f07883a 	add	r3,r3,fp
 8400d68:	18800015 	stw	r2,0(r3)
 8400d6c:	0002fc06 	br	8401960 <main+0x16f0>
   			}

   			/*se ho cliccato clear, pulisco*/
   			else if (ButtonId == BTN_CLEAR){
 8400d70:	013ffef4 	movhi	r4,65531
 8400d74:	21006404 	addi	r4,r4,400
 8400d78:	2709883a 	add	r4,r4,fp
 8400d7c:	20800017 	ldw	r2,0(r4)
 8400d80:	10800058 	cmpnei	r2,r2,1
 8400d84:	1000c51e 	bne	r2,zero,840109c <main+0xe2c>
   				if(status != NEW_GAME)
 8400d88:	017ffef4 	movhi	r5,65531
 8400d8c:	29405a04 	addi	r5,r5,360
 8400d90:	2f0b883a 	add	r5,r5,fp
 8400d94:	28800017 	ldw	r2,0(r5)
 8400d98:	10800120 	cmpeqi	r2,r2,4
 8400d9c:	1000041e 	bne	r2,zero,8400db0 <main+0xb40>
   					status=NO_IMG;
 8400da0:	01bffef4 	movhi	r6,65531
 8400da4:	31805a04 	addi	r6,r6,360
 8400da8:	370d883a 	add	r6,r6,fp
 8400dac:	30000015 	stw	zero,0(r6)
   				writing=FALSE;
 8400db0:	01fffef4 	movhi	r7,65531
 8400db4:	39c05d04 	addi	r7,r7,372
 8400db8:	3f0f883a 	add	r7,r7,fp
 8400dbc:	38000015 	stw	zero,0(r7)
   				GUI_ClearRect(BTN_ENTER, &DeskInfo, &Display);
 8400dc0:	008000b4 	movhi	r2,2
 8400dc4:	10bac704 	addi	r2,r2,-5348
 8400dc8:	013ffef4 	movhi	r4,65531
 8400dcc:	21005a04 	addi	r4,r4,360
 8400dd0:	2709883a 	add	r4,r4,fp
 8400dd4:	2087883a 	add	r3,r4,r2
 8400dd8:	008000b4 	movhi	r2,2
 8400ddc:	10bab304 	addi	r2,r2,-5428
 8400de0:	017ffef4 	movhi	r5,65531
 8400de4:	29405a04 	addi	r5,r5,360
 8400de8:	2f0b883a 	add	r5,r5,fp
 8400dec:	2885883a 	add	r2,r5,r2
 8400df0:	180d883a 	mov	r6,r3
 8400df4:	100b883a 	mov	r5,r2
 8400df8:	01000084 	movi	r4,2
 8400dfc:	84032c80 	call	84032c8 <GUI_ClearRect>
   				Print(BTN_ENTER, DeskInfo, "Done");
 8400e00:	008000b4 	movhi	r2,2
 8400e04:	10bab304 	addi	r2,r2,-5428
 8400e08:	01bffef4 	movhi	r6,65531
 8400e0c:	31805a04 	addi	r6,r6,360
 8400e10:	370d883a 	add	r6,r6,fp
 8400e14:	30a1883a 	add	r16,r6,r2
 8400e18:	00821074 	movhi	r2,2113
 8400e1c:	10bedd04 	addi	r2,r2,-1164
 8400e20:	d8801115 	stw	r2,68(sp)
 8400e24:	d809883a 	mov	r4,sp
 8400e28:	80800304 	addi	r2,r16,12
 8400e2c:	00c01104 	movi	r3,68
 8400e30:	180d883a 	mov	r6,r3
 8400e34:	100b883a 	mov	r5,r2
 8400e38:	8409edc0 	call	8409edc <memcpy>
 8400e3c:	81400017 	ldw	r5,0(r16)
 8400e40:	81800117 	ldw	r6,4(r16)
 8400e44:	81c00217 	ldw	r7,8(r16)
 8400e48:	01000084 	movi	r4,2
 8400e4c:	84034900 	call	8403490 <Print>
   				GUI_ClearRect(RECT_PAINT, &DeskInfo, &Display);
 8400e50:	008000b4 	movhi	r2,2
 8400e54:	10bac704 	addi	r2,r2,-5348
 8400e58:	01fffef4 	movhi	r7,65531
 8400e5c:	39c05a04 	addi	r7,r7,360
 8400e60:	3f0f883a 	add	r7,r7,fp
 8400e64:	3887883a 	add	r3,r7,r2
 8400e68:	008000b4 	movhi	r2,2
 8400e6c:	10bab304 	addi	r2,r2,-5428
 8400e70:	013ffef4 	movhi	r4,65531
 8400e74:	21005a04 	addi	r4,r4,360
 8400e78:	2709883a 	add	r4,r4,fp
 8400e7c:	2085883a 	add	r2,r4,r2
 8400e80:	180d883a 	mov	r6,r3
 8400e84:	100b883a 	mov	r5,r2
 8400e88:	01000144 	movi	r4,5
 8400e8c:	84032c80 	call	84032c8 <GUI_ClearRect>
   				Touch_EmptyFifo(pTouch);
 8400e90:	017ffef4 	movhi	r5,65531
 8400e94:	29406304 	addi	r5,r5,396
 8400e98:	2f0b883a 	add	r5,r5,fp
 8400e9c:	29000017 	ldw	r4,0(r5)
 8400ea0:	84062f80 	call	84062f8 <Touch_EmptyFifo>
   				for(int i=0; i<DRAW_WIDTH*DRAW_WIDTH; i++)
 8400ea4:	01bffef4 	movhi	r6,65531
 8400ea8:	31806004 	addi	r6,r6,384
 8400eac:	370d883a 	add	r6,r6,fp
 8400eb0:	30000015 	stw	zero,0(r6)
 8400eb4:	00001706 	br	8400f14 <main+0xca4>
   					img[i]=0;
 8400eb8:	008000b4 	movhi	r2,2
 8400ebc:	10bb9804 	addi	r2,r2,-4512
 8400ec0:	01fffef4 	movhi	r7,65531
 8400ec4:	39c05a04 	addi	r7,r7,360
 8400ec8:	3f0f883a 	add	r7,r7,fp
 8400ecc:	3887883a 	add	r3,r7,r2
 8400ed0:	013ffef4 	movhi	r4,65531
 8400ed4:	21006004 	addi	r4,r4,384
 8400ed8:	2709883a 	add	r4,r4,fp
 8400edc:	20800017 	ldw	r2,0(r4)
 8400ee0:	1085883a 	add	r2,r2,r2
 8400ee4:	1085883a 	add	r2,r2,r2
 8400ee8:	1885883a 	add	r2,r3,r2
 8400eec:	10000015 	stw	zero,0(r2)
   				writing=FALSE;
   				GUI_ClearRect(BTN_ENTER, &DeskInfo, &Display);
   				Print(BTN_ENTER, DeskInfo, "Done");
   				GUI_ClearRect(RECT_PAINT, &DeskInfo, &Display);
   				Touch_EmptyFifo(pTouch);
   				for(int i=0; i<DRAW_WIDTH*DRAW_WIDTH; i++)
 8400ef0:	017ffef4 	movhi	r5,65531
 8400ef4:	29406004 	addi	r5,r5,384
 8400ef8:	2f0b883a 	add	r5,r5,fp
 8400efc:	28800017 	ldw	r2,0(r5)
 8400f00:	10800044 	addi	r2,r2,1
 8400f04:	01bffef4 	movhi	r6,65531
 8400f08:	31806004 	addi	r6,r6,384
 8400f0c:	370d883a 	add	r6,r6,fp
 8400f10:	30800015 	stw	r2,0(r6)
 8400f14:	01fffef4 	movhi	r7,65531
 8400f18:	39c06004 	addi	r7,r7,384
 8400f1c:	3f0f883a 	add	r7,r7,fp
 8400f20:	38800017 	ldw	r2,0(r7)
 8400f24:	00f0ffd4 	movui	r3,50175
 8400f28:	18bfe30e 	bge	r3,r2,8400eb8 <__alt_data_end+0xfc400eb8>
   					img[i]=0;

				if(red_digit){
 8400f2c:	00fffef4 	movhi	r3,65531
 8400f30:	18c05c04 	addi	r3,r3,368
 8400f34:	1f07883a 	add	r3,r3,fp
 8400f38:	18800017 	ldw	r2,0(r3)
 8400f3c:	10028826 	beq	r2,zero,8401960 <main+0x16f0>
					GUI_ClearRect(BTN_RESULT, &DeskInfo, &Display);
 8400f40:	008000b4 	movhi	r2,2
 8400f44:	10bac704 	addi	r2,r2,-5348
 8400f48:	013ffef4 	movhi	r4,65531
 8400f4c:	21005a04 	addi	r4,r4,360
 8400f50:	2709883a 	add	r4,r4,fp
 8400f54:	2087883a 	add	r3,r4,r2
 8400f58:	008000b4 	movhi	r2,2
 8400f5c:	10bab304 	addi	r2,r2,-5428
 8400f60:	017ffef4 	movhi	r5,65531
 8400f64:	29405a04 	addi	r5,r5,360
 8400f68:	2f0b883a 	add	r5,r5,fp
 8400f6c:	2885883a 	add	r2,r5,r2
 8400f70:	180d883a 	mov	r6,r3
 8400f74:	100b883a 	mov	r5,r2
 8400f78:	010000c4 	movi	r4,3
 8400f7c:	84032c80 	call	84032c8 <GUI_ClearRect>
					for(int n=0; n<digits; n++)
 8400f80:	01bffef4 	movhi	r6,65531
 8400f84:	31806104 	addi	r6,r6,388
 8400f88:	370d883a 	add	r6,r6,fp
 8400f8c:	30000015 	stw	zero,0(r6)
 8400f90:	00003806 	br	8401074 <main+0xe04>
						vid_print_char_alpha(DeskInfo.result.left+20+13*n, DeskInfo.result.top+9, BLACK_24, (char)(result[n]+48), WHITE_24, tahomabold_20);
 8400f94:	008000b4 	movhi	r2,2
 8400f98:	10bab304 	addi	r2,r2,-5428
 8400f9c:	01fffef4 	movhi	r7,65531
 8400fa0:	39c05a04 	addi	r7,r7,360
 8400fa4:	3f0f883a 	add	r7,r7,fp
 8400fa8:	3885883a 	add	r2,r7,r2
 8400fac:	10801017 	ldw	r2,64(r2)
 8400fb0:	10c00504 	addi	r3,r2,20
 8400fb4:	013ffef4 	movhi	r4,65531
 8400fb8:	21006104 	addi	r4,r4,388
 8400fbc:	2709883a 	add	r4,r4,fp
 8400fc0:	20800017 	ldw	r2,0(r4)
 8400fc4:	10800364 	muli	r2,r2,13
 8400fc8:	1889883a 	add	r4,r3,r2
 8400fcc:	008000b4 	movhi	r2,2
 8400fd0:	10bab304 	addi	r2,r2,-5428
 8400fd4:	017ffef4 	movhi	r5,65531
 8400fd8:	29405a04 	addi	r5,r5,360
 8400fdc:	2f0b883a 	add	r5,r5,fp
 8400fe0:	2885883a 	add	r2,r5,r2
 8400fe4:	10801217 	ldw	r2,72(r2)
 8400fe8:	11400244 	addi	r5,r2,9
 8400fec:	00800174 	movhi	r2,5
 8400ff0:	10bf9d04 	addi	r2,r2,-396
 8400ff4:	01bffef4 	movhi	r6,65531
 8400ff8:	31805a04 	addi	r6,r6,360
 8400ffc:	370d883a 	add	r6,r6,fp
 8401000:	3087883a 	add	r3,r6,r2
 8401004:	01fffef4 	movhi	r7,65531
 8401008:	39c06104 	addi	r7,r7,388
 840100c:	3f0f883a 	add	r7,r7,fp
 8401010:	38800017 	ldw	r2,0(r7)
 8401014:	1885883a 	add	r2,r3,r2
 8401018:	10800003 	ldbu	r2,0(r2)
 840101c:	10800c04 	addi	r2,r2,48
 8401020:	10c03fcc 	andi	r3,r2,255
 8401024:	18c0201c 	xori	r3,r3,128
 8401028:	18ffe004 	addi	r3,r3,-128
 840102c:	00821134 	movhi	r2,2116
 8401030:	10a3a804 	addi	r2,r2,-29024
 8401034:	d8800115 	stw	r2,4(sp)
 8401038:	00804034 	movhi	r2,256
 840103c:	10bfffc4 	addi	r2,r2,-1
 8401040:	d8800015 	stw	r2,0(sp)
 8401044:	180f883a 	mov	r7,r3
 8401048:	000d883a 	mov	r6,zero
 840104c:	8405edc0 	call	8405edc <vid_print_char_alpha>
   				for(int i=0; i<DRAW_WIDTH*DRAW_WIDTH; i++)
   					img[i]=0;

				if(red_digit){
					GUI_ClearRect(BTN_RESULT, &DeskInfo, &Display);
					for(int n=0; n<digits; n++)
 8401050:	00fffef4 	movhi	r3,65531
 8401054:	18c06104 	addi	r3,r3,388
 8401058:	1f07883a 	add	r3,r3,fp
 840105c:	18800017 	ldw	r2,0(r3)
 8401060:	10800044 	addi	r2,r2,1
 8401064:	013ffef4 	movhi	r4,65531
 8401068:	21006104 	addi	r4,r4,388
 840106c:	2709883a 	add	r4,r4,fp
 8401070:	20800015 	stw	r2,0(r4)
 8401074:	017ffef4 	movhi	r5,65531
 8401078:	29405b44 	addi	r5,r5,365
 840107c:	2f0b883a 	add	r5,r5,fp
 8401080:	28800003 	ldbu	r2,0(r5)
 8401084:	01bffef4 	movhi	r6,65531
 8401088:	31806104 	addi	r6,r6,388
 840108c:	370d883a 	add	r6,r6,fp
 8401090:	30c00017 	ldw	r3,0(r6)
 8401094:	18bfbf16 	blt	r3,r2,8400f94 <__alt_data_end+0xfc400f94>
 8401098:	00023106 	br	8401960 <main+0x16f0>
				}
   			}


   			/*se do conferma, avvio la rete neurale*/
   			else if (ButtonId == BTN_ENTER && status==NO_IMG){
 840109c:	01fffef4 	movhi	r7,65531
 84010a0:	39c06404 	addi	r7,r7,400
 84010a4:	3f0f883a 	add	r7,r7,fp
 84010a8:	38800017 	ldw	r2,0(r7)
 84010ac:	10800098 	cmpnei	r2,r2,2
 84010b0:	1001161e 	bne	r2,zero,840150c <main+0x129c>
 84010b4:	00fffef4 	movhi	r3,65531
 84010b8:	18c05a04 	addi	r3,r3,360
 84010bc:	1f07883a 	add	r3,r3,fp
 84010c0:	18800017 	ldw	r2,0(r3)
 84010c4:	1001111e 	bne	r2,zero,840150c <main+0x129c>

   				if(!red_digit && writing==FALSE){				//confermo il risultato finale
 84010c8:	013ffef4 	movhi	r4,65531
 84010cc:	21005c04 	addi	r4,r4,368
 84010d0:	2709883a 	add	r4,r4,fp
 84010d4:	20800017 	ldw	r2,0(r4)
 84010d8:	1000a51e 	bne	r2,zero,8401370 <main+0x1100>
 84010dc:	017ffef4 	movhi	r5,65531
 84010e0:	29405d04 	addi	r5,r5,372
 84010e4:	2f0b883a 	add	r5,r5,fp
 84010e8:	28800017 	ldw	r2,0(r5)
 84010ec:	1000a01e 	bne	r2,zero,8401370 <main+0x1100>
   					switch(digits){
 84010f0:	01bffef4 	movhi	r6,65531
 84010f4:	31805b44 	addi	r6,r6,365
 84010f8:	370d883a 	add	r6,r6,fp
 84010fc:	30800003 	ldbu	r2,0(r6)
 8401100:	10c00060 	cmpeqi	r3,r2,1
 8401104:	1800071e 	bne	r3,zero,8401124 <main+0xeb4>
 8401108:	10c00088 	cmpgei	r3,r2,2
 840110c:	18004726 	beq	r3,zero,840122c <main+0xfbc>
 8401110:	10c000a0 	cmpeqi	r3,r2,2
 8401114:	18000f1e 	bne	r3,zero,8401154 <main+0xee4>
 8401118:	108000e0 	cmpeqi	r2,r2,3
 840111c:	1000231e 	bne	r2,zero,84011ac <main+0xf3c>
 8401120:	00004306 	br	8401230 <main+0xfc0>
   						case 0:
   							break;
   						case 1:
   							answer=result[0];
 8401124:	00800174 	movhi	r2,5
 8401128:	10bf9d04 	addi	r2,r2,-396
 840112c:	01fffef4 	movhi	r7,65531
 8401130:	39c05a04 	addi	r7,r7,360
 8401134:	3f0f883a 	add	r7,r7,fp
 8401138:	3885883a 	add	r2,r7,r2
 840113c:	10800003 	ldbu	r2,0(r2)
 8401140:	00fffef4 	movhi	r3,65531
 8401144:	18c05b04 	addi	r3,r3,364
 8401148:	1f07883a 	add	r3,r3,fp
 840114c:	18800005 	stb	r2,0(r3)
   							break;
 8401150:	00003706 	br	8401230 <main+0xfc0>
   						case 2:
   							answer = result[0]*10+result[1];
 8401154:	00800174 	movhi	r2,5
 8401158:	10bf9d04 	addi	r2,r2,-396
 840115c:	013ffef4 	movhi	r4,65531
 8401160:	21005a04 	addi	r4,r4,360
 8401164:	2709883a 	add	r4,r4,fp
 8401168:	2085883a 	add	r2,r4,r2
 840116c:	10800003 	ldbu	r2,0(r2)
 8401170:	108002a4 	muli	r2,r2,10
 8401174:	1007883a 	mov	r3,r2
 8401178:	00800174 	movhi	r2,5
 840117c:	10bf9d04 	addi	r2,r2,-396
 8401180:	017ffef4 	movhi	r5,65531
 8401184:	29405a04 	addi	r5,r5,360
 8401188:	2f0b883a 	add	r5,r5,fp
 840118c:	2885883a 	add	r2,r5,r2
 8401190:	10800043 	ldbu	r2,1(r2)
 8401194:	1885883a 	add	r2,r3,r2
 8401198:	01bffef4 	movhi	r6,65531
 840119c:	31805b04 	addi	r6,r6,364
 84011a0:	370d883a 	add	r6,r6,fp
 84011a4:	30800005 	stb	r2,0(r6)
   							break;
 84011a8:	00002106 	br	8401230 <main+0xfc0>
   						case 3:
							answer = result[0]*100+result[1]*10+result[2];
 84011ac:	00800174 	movhi	r2,5
 84011b0:	10bf9d04 	addi	r2,r2,-396
 84011b4:	01fffef4 	movhi	r7,65531
 84011b8:	39c05a04 	addi	r7,r7,360
 84011bc:	3f0f883a 	add	r7,r7,fp
 84011c0:	3885883a 	add	r2,r7,r2
 84011c4:	10800003 	ldbu	r2,0(r2)
 84011c8:	10801924 	muli	r2,r2,100
 84011cc:	1007883a 	mov	r3,r2
 84011d0:	00800174 	movhi	r2,5
 84011d4:	10bf9d04 	addi	r2,r2,-396
 84011d8:	013ffef4 	movhi	r4,65531
 84011dc:	21005a04 	addi	r4,r4,360
 84011e0:	2709883a 	add	r4,r4,fp
 84011e4:	2085883a 	add	r2,r4,r2
 84011e8:	10800043 	ldbu	r2,1(r2)
 84011ec:	108002a4 	muli	r2,r2,10
 84011f0:	1885883a 	add	r2,r3,r2
 84011f4:	1007883a 	mov	r3,r2
 84011f8:	00800174 	movhi	r2,5
 84011fc:	10bf9d04 	addi	r2,r2,-396
 8401200:	017ffef4 	movhi	r5,65531
 8401204:	29405a04 	addi	r5,r5,360
 8401208:	2f0b883a 	add	r5,r5,fp
 840120c:	2885883a 	add	r2,r5,r2
 8401210:	10800083 	ldbu	r2,2(r2)
 8401214:	1885883a 	add	r2,r3,r2
 8401218:	01bffef4 	movhi	r6,65531
 840121c:	31805b04 	addi	r6,r6,364
 8401220:	370d883a 	add	r6,r6,fp
 8401224:	30800005 	stb	r2,0(r6)
							break;
 8401228:	00000106 	br	8401230 <main+0xfc0>
   			else if (ButtonId == BTN_ENTER && status==NO_IMG){

   				if(!red_digit && writing==FALSE){				//confermo il risultato finale
   					switch(digits){
   						case 0:
   							break;
 840122c:	0001883a 	nop
   						case 3:
							answer = result[0]*100+result[1]*10+result[2];
							break;
   					}

   					GUI_ClearRect(RECT_PAINT, &DeskInfo, &Display);
 8401230:	008000b4 	movhi	r2,2
 8401234:	10bac704 	addi	r2,r2,-5348
 8401238:	01fffef4 	movhi	r7,65531
 840123c:	39c05a04 	addi	r7,r7,360
 8401240:	3f0f883a 	add	r7,r7,fp
 8401244:	3887883a 	add	r3,r7,r2
 8401248:	008000b4 	movhi	r2,2
 840124c:	10bab304 	addi	r2,r2,-5428
 8401250:	013ffef4 	movhi	r4,65531
 8401254:	21005a04 	addi	r4,r4,360
 8401258:	2709883a 	add	r4,r4,fp
 840125c:	2085883a 	add	r2,r4,r2
 8401260:	180d883a 	mov	r6,r3
 8401264:	100b883a 	mov	r5,r2
 8401268:	01000144 	movi	r4,5
 840126c:	84032c80 	call	84032c8 <GUI_ClearRect>
   	   				if(answer==exp.answer && digits!=0)
 8401270:	017ffef4 	movhi	r5,65531
 8401274:	29405b04 	addi	r5,r5,364
 8401278:	2f0b883a 	add	r5,r5,fp
 840127c:	28c00003 	ldbu	r3,0(r5)
 8401280:	00800174 	movhi	r2,5
 8401284:	10bf9804 	addi	r2,r2,-416
 8401288:	01bffef4 	movhi	r6,65531
 840128c:	31805a04 	addi	r6,r6,360
 8401290:	370d883a 	add	r6,r6,fp
 8401294:	3085883a 	add	r2,r6,r2
 8401298:	10800217 	ldw	r2,8(r2)
 840129c:	18801a1e 	bne	r3,r2,8401308 <main+0x1098>
 84012a0:	01fffef4 	movhi	r7,65531
 84012a4:	39c05b44 	addi	r7,r7,365
 84012a8:	3f0f883a 	add	r7,r7,fp
 84012ac:	38800003 	ldbu	r2,0(r7)
 84012b0:	10001526 	beq	r2,zero,8401308 <main+0x1098>
   	   					Print(RECT_PAINT, DeskInfo, "Nice");
 84012b4:	008000b4 	movhi	r2,2
 84012b8:	10bab304 	addi	r2,r2,-5428
 84012bc:	00fffef4 	movhi	r3,65531
 84012c0:	18c05a04 	addi	r3,r3,360
 84012c4:	1f07883a 	add	r3,r3,fp
 84012c8:	18a1883a 	add	r16,r3,r2
 84012cc:	00821074 	movhi	r2,2113
 84012d0:	10bed704 	addi	r2,r2,-1188
 84012d4:	d8801115 	stw	r2,68(sp)
 84012d8:	d809883a 	mov	r4,sp
 84012dc:	80800304 	addi	r2,r16,12
 84012e0:	00c01104 	movi	r3,68
 84012e4:	180d883a 	mov	r6,r3
 84012e8:	100b883a 	mov	r5,r2
 84012ec:	8409edc0 	call	8409edc <memcpy>
 84012f0:	81400017 	ldw	r5,0(r16)
 84012f4:	81800117 	ldw	r6,4(r16)
 84012f8:	81c00217 	ldw	r7,8(r16)
 84012fc:	01000144 	movi	r4,5
 8401300:	84034900 	call	8403490 <Print>
 8401304:	00001406 	br	8401358 <main+0x10e8>
   	   				else
   	   					Print(RECT_PAINT, DeskInfo, "Nope");
 8401308:	008000b4 	movhi	r2,2
 840130c:	10bab304 	addi	r2,r2,-5428
 8401310:	013ffef4 	movhi	r4,65531
 8401314:	21005a04 	addi	r4,r4,360
 8401318:	2709883a 	add	r4,r4,fp
 840131c:	20a1883a 	add	r16,r4,r2
 8401320:	00821074 	movhi	r2,2113
 8401324:	10bed904 	addi	r2,r2,-1180
 8401328:	d8801115 	stw	r2,68(sp)
 840132c:	d809883a 	mov	r4,sp
 8401330:	80800304 	addi	r2,r16,12
 8401334:	00c01104 	movi	r3,68
 8401338:	180d883a 	mov	r6,r3
 840133c:	100b883a 	mov	r5,r2
 8401340:	8409edc0 	call	8409edc <memcpy>
 8401344:	81400017 	ldw	r5,0(r16)
 8401348:	81800117 	ldw	r6,4(r16)
 840134c:	81c00217 	ldw	r7,8(r16)
 8401350:	01000144 	movi	r4,5
 8401354:	84034900 	call	8403490 <Print>
   	   				status=FINISHED;
 8401358:	008000c4 	movi	r2,3
 840135c:	017ffef4 	movhi	r5,65531
 8401360:	29405a04 	addi	r5,r5,360
 8401364:	2f0b883a 	add	r5,r5,fp
 8401368:	28800015 	stw	r2,0(r5)


   			/*se do conferma, avvio la rete neurale*/
   			else if (ButtonId == BTN_ENTER && status==NO_IMG){

   				if(!red_digit && writing==FALSE){				//confermo il risultato finale
 840136c:	00017c06 	br	8401960 <main+0x16f0>
   	   				else
   	   					Print(RECT_PAINT, DeskInfo, "Nope");
   	   				status=FINISHED;
				}
   				else{
   					if(digits>=3){
 8401370:	01bffef4 	movhi	r6,65531
 8401374:	31805b44 	addi	r6,r6,365
 8401378:	370d883a 	add	r6,r6,fp
 840137c:	30800003 	ldbu	r2,0(r6)
 8401380:	108000f0 	cmpltui	r2,r2,3
 8401384:	10002a1e 	bne	r2,zero,8401430 <main+0x11c0>
   						status=FINISHED;
 8401388:	008000c4 	movi	r2,3
 840138c:	01fffef4 	movhi	r7,65531
 8401390:	39c05a04 	addi	r7,r7,360
 8401394:	3f0f883a 	add	r7,r7,fp
 8401398:	38800015 	stw	r2,0(r7)
   						GUI_ClearRect(RECT_PAINT, &DeskInfo, &Display);
 840139c:	008000b4 	movhi	r2,2
 84013a0:	10bac704 	addi	r2,r2,-5348
 84013a4:	013ffef4 	movhi	r4,65531
 84013a8:	21005a04 	addi	r4,r4,360
 84013ac:	2709883a 	add	r4,r4,fp
 84013b0:	2087883a 	add	r3,r4,r2
 84013b4:	008000b4 	movhi	r2,2
 84013b8:	10bab304 	addi	r2,r2,-5428
 84013bc:	017ffef4 	movhi	r5,65531
 84013c0:	29405a04 	addi	r5,r5,360
 84013c4:	2f0b883a 	add	r5,r5,fp
 84013c8:	2885883a 	add	r2,r5,r2
 84013cc:	180d883a 	mov	r6,r3
 84013d0:	100b883a 	mov	r5,r2
 84013d4:	01000144 	movi	r4,5
 84013d8:	84032c80 	call	84032c8 <GUI_ClearRect>
   	   	   				Print(RECT_PAINT, DeskInfo, "Un c'entra!");
 84013dc:	008000b4 	movhi	r2,2
 84013e0:	10bab304 	addi	r2,r2,-5428
 84013e4:	01bffef4 	movhi	r6,65531
 84013e8:	31805a04 	addi	r6,r6,360
 84013ec:	370d883a 	add	r6,r6,fp
 84013f0:	30a1883a 	add	r16,r6,r2
 84013f4:	00821074 	movhi	r2,2113
 84013f8:	10bedf04 	addi	r2,r2,-1156
 84013fc:	d8801115 	stw	r2,68(sp)
 8401400:	d809883a 	mov	r4,sp
 8401404:	80800304 	addi	r2,r16,12
 8401408:	00c01104 	movi	r3,68
 840140c:	180d883a 	mov	r6,r3
 8401410:	100b883a 	mov	r5,r2
 8401414:	8409edc0 	call	8409edc <memcpy>
 8401418:	81400017 	ldw	r5,0(r16)
 840141c:	81800117 	ldw	r6,4(r16)
 8401420:	81c00217 	ldw	r7,8(r16)
 8401424:	01000144 	movi	r4,5
 8401428:	84034900 	call	8403490 <Print>


   			/*se do conferma, avvio la rete neurale*/
   			else if (ButtonId == BTN_ENTER && status==NO_IMG){

   				if(!red_digit && writing==FALSE){				//confermo il risultato finale
 840142c:	00014c06 	br	8401960 <main+0x16f0>
   						status=FINISHED;
   						GUI_ClearRect(RECT_PAINT, &DeskInfo, &Display);
   	   	   				Print(RECT_PAINT, DeskInfo, "Un c'entra!");
   					}
   					else{
						Resize_image(img, &mnist_img);				//catturo l'immagine da mandare alla rete neurale
 8401430:	008000b4 	movhi	r2,2
 8401434:	10bad404 	addi	r2,r2,-5296
 8401438:	01fffef4 	movhi	r7,65531
 840143c:	39c05a04 	addi	r7,r7,360
 8401440:	3f0f883a 	add	r7,r7,fp
 8401444:	3887883a 	add	r3,r7,r2
 8401448:	008000b4 	movhi	r2,2
 840144c:	10bb9804 	addi	r2,r2,-4512
 8401450:	013ffef4 	movhi	r4,65531
 8401454:	21005a04 	addi	r4,r4,360
 8401458:	2709883a 	add	r4,r4,fp
 840145c:	2085883a 	add	r2,r4,r2
 8401460:	180b883a 	mov	r5,r3
 8401464:	1009883a 	mov	r4,r2
 8401468:	840379c0 	call	840379c <Resize_image>
						status = IMG_READY;
 840146c:	00800044 	movi	r2,1
 8401470:	017ffef4 	movhi	r5,65531
 8401474:	29405a04 	addi	r5,r5,360
 8401478:	2f0b883a 	add	r5,r5,fp
 840147c:	28800015 	stw	r2,0(r5)
						for(int i=0; i<DRAW_WIDTH*DRAW_WIDTH; i++)
 8401480:	01bffef4 	movhi	r6,65531
 8401484:	31806204 	addi	r6,r6,392
 8401488:	370d883a 	add	r6,r6,fp
 840148c:	30000015 	stw	zero,0(r6)
 8401490:	00001706 	br	84014f0 <main+0x1280>
							img[i]=0;
 8401494:	008000b4 	movhi	r2,2
 8401498:	10bb9804 	addi	r2,r2,-4512
 840149c:	01fffef4 	movhi	r7,65531
 84014a0:	39c05a04 	addi	r7,r7,360
 84014a4:	3f0f883a 	add	r7,r7,fp
 84014a8:	3887883a 	add	r3,r7,r2
 84014ac:	013ffef4 	movhi	r4,65531
 84014b0:	21006204 	addi	r4,r4,392
 84014b4:	2709883a 	add	r4,r4,fp
 84014b8:	20800017 	ldw	r2,0(r4)
 84014bc:	1085883a 	add	r2,r2,r2
 84014c0:	1085883a 	add	r2,r2,r2
 84014c4:	1885883a 	add	r2,r3,r2
 84014c8:	10000015 	stw	zero,0(r2)
   	   	   				Print(RECT_PAINT, DeskInfo, "Un c'entra!");
   					}
   					else{
						Resize_image(img, &mnist_img);				//catturo l'immagine da mandare alla rete neurale
						status = IMG_READY;
						for(int i=0; i<DRAW_WIDTH*DRAW_WIDTH; i++)
 84014cc:	017ffef4 	movhi	r5,65531
 84014d0:	29406204 	addi	r5,r5,392
 84014d4:	2f0b883a 	add	r5,r5,fp
 84014d8:	28800017 	ldw	r2,0(r5)
 84014dc:	10800044 	addi	r2,r2,1
 84014e0:	01bffef4 	movhi	r6,65531
 84014e4:	31806204 	addi	r6,r6,392
 84014e8:	370d883a 	add	r6,r6,fp
 84014ec:	30800015 	stw	r2,0(r6)
 84014f0:	01fffef4 	movhi	r7,65531
 84014f4:	39c06204 	addi	r7,r7,392
 84014f8:	3f0f883a 	add	r7,r7,fp
 84014fc:	38800017 	ldw	r2,0(r7)
 8401500:	00f0ffd4 	movui	r3,50175
 8401504:	18bfe30e 	bge	r3,r2,8401494 <__alt_data_end+0xfc401494>


   			/*se do conferma, avvio la rete neurale*/
   			else if (ButtonId == BTN_ENTER && status==NO_IMG){

   				if(!red_digit && writing==FALSE){				//confermo il risultato finale
 8401508:	00011506 	br	8401960 <main+0x16f0>
   					}
   				}
   			}


   			else if(ButtonId==BTN_RESULT && status==CONFIRM){
 840150c:	00fffef4 	movhi	r3,65531
 8401510:	18c06404 	addi	r3,r3,400
 8401514:	1f07883a 	add	r3,r3,fp
 8401518:	18800017 	ldw	r2,0(r3)
 840151c:	108000d8 	cmpnei	r2,r2,3
 8401520:	10007f1e 	bne	r2,zero,8401720 <main+0x14b0>
 8401524:	013ffef4 	movhi	r4,65531
 8401528:	21005a04 	addi	r4,r4,360
 840152c:	2709883a 	add	r4,r4,fp
 8401530:	20800017 	ldw	r2,0(r4)
 8401534:	10800098 	cmpnei	r2,r2,2
 8401538:	1000791e 	bne	r2,zero,8401720 <main+0x14b0>
   				status=NO_IMG;
 840153c:	017ffef4 	movhi	r5,65531
 8401540:	29405a04 	addi	r5,r5,360
 8401544:	2f0b883a 	add	r5,r5,fp
 8401548:	28000015 	stw	zero,0(r5)
   				writing=FALSE;
 840154c:	01bffef4 	movhi	r6,65531
 8401550:	31805d04 	addi	r6,r6,372
 8401554:	370d883a 	add	r6,r6,fp
 8401558:	30000015 	stw	zero,0(r6)
				red_digit=FALSE;
 840155c:	01fffef4 	movhi	r7,65531
 8401560:	39c05c04 	addi	r7,r7,368
 8401564:	3f0f883a 	add	r7,r7,fp
 8401568:	38000015 	stw	zero,0(r7)

				GUI_ClearRect(RECT_PAINT, &DeskInfo, &Display);
 840156c:	008000b4 	movhi	r2,2
 8401570:	10bac704 	addi	r2,r2,-5348
 8401574:	013ffef4 	movhi	r4,65531
 8401578:	21005a04 	addi	r4,r4,360
 840157c:	2709883a 	add	r4,r4,fp
 8401580:	2087883a 	add	r3,r4,r2
 8401584:	008000b4 	movhi	r2,2
 8401588:	10bab304 	addi	r2,r2,-5428
 840158c:	017ffef4 	movhi	r5,65531
 8401590:	29405a04 	addi	r5,r5,360
 8401594:	2f0b883a 	add	r5,r5,fp
 8401598:	2885883a 	add	r2,r5,r2
 840159c:	180d883a 	mov	r6,r3
 84015a0:	100b883a 	mov	r5,r2
 84015a4:	01000144 	movi	r4,5
 84015a8:	84032c80 	call	84032c8 <GUI_ClearRect>
				vid_print_char_alpha(DeskInfo.result.left+20+13*digits, DeskInfo.result.top+9, BLACK_24, (char)(result[digits]+48), WHITE_24, tahomabold_20);
 84015ac:	008000b4 	movhi	r2,2
 84015b0:	10bab304 	addi	r2,r2,-5428
 84015b4:	01bffef4 	movhi	r6,65531
 84015b8:	31805a04 	addi	r6,r6,360
 84015bc:	370d883a 	add	r6,r6,fp
 84015c0:	3085883a 	add	r2,r6,r2
 84015c4:	10801017 	ldw	r2,64(r2)
 84015c8:	10c00504 	addi	r3,r2,20
 84015cc:	01fffef4 	movhi	r7,65531
 84015d0:	39c05b44 	addi	r7,r7,365
 84015d4:	3f0f883a 	add	r7,r7,fp
 84015d8:	38800003 	ldbu	r2,0(r7)
 84015dc:	10800364 	muli	r2,r2,13
 84015e0:	1889883a 	add	r4,r3,r2
 84015e4:	008000b4 	movhi	r2,2
 84015e8:	10bab304 	addi	r2,r2,-5428
 84015ec:	00fffef4 	movhi	r3,65531
 84015f0:	18c05a04 	addi	r3,r3,360
 84015f4:	1f07883a 	add	r3,r3,fp
 84015f8:	1885883a 	add	r2,r3,r2
 84015fc:	10801217 	ldw	r2,72(r2)
 8401600:	11400244 	addi	r5,r2,9
 8401604:	01bffef4 	movhi	r6,65531
 8401608:	31805b44 	addi	r6,r6,365
 840160c:	370d883a 	add	r6,r6,fp
 8401610:	30c00003 	ldbu	r3,0(r6)
 8401614:	00800174 	movhi	r2,5
 8401618:	10bf9d04 	addi	r2,r2,-396
 840161c:	01fffef4 	movhi	r7,65531
 8401620:	39c05a04 	addi	r7,r7,360
 8401624:	3f0f883a 	add	r7,r7,fp
 8401628:	3885883a 	add	r2,r7,r2
 840162c:	10c5883a 	add	r2,r2,r3
 8401630:	10800003 	ldbu	r2,0(r2)
 8401634:	10800c04 	addi	r2,r2,48
 8401638:	10c03fcc 	andi	r3,r2,255
 840163c:	18c0201c 	xori	r3,r3,128
 8401640:	18ffe004 	addi	r3,r3,-128
 8401644:	00821134 	movhi	r2,2116
 8401648:	10a3a804 	addi	r2,r2,-29024
 840164c:	d8800115 	stw	r2,4(sp)
 8401650:	00804034 	movhi	r2,256
 8401654:	10bfffc4 	addi	r2,r2,-1
 8401658:	d8800015 	stw	r2,0(sp)
 840165c:	180f883a 	mov	r7,r3
 8401660:	000d883a 	mov	r6,zero
 8401664:	8405edc0 	call	8405edc <vid_print_char_alpha>
				GUI_ClearRect(BTN_ENTER, &DeskInfo, &Display);
 8401668:	008000b4 	movhi	r2,2
 840166c:	10bac704 	addi	r2,r2,-5348
 8401670:	013ffef4 	movhi	r4,65531
 8401674:	21005a04 	addi	r4,r4,360
 8401678:	2709883a 	add	r4,r4,fp
 840167c:	2087883a 	add	r3,r4,r2
 8401680:	008000b4 	movhi	r2,2
 8401684:	10bab304 	addi	r2,r2,-5428
 8401688:	017ffef4 	movhi	r5,65531
 840168c:	29405a04 	addi	r5,r5,360
 8401690:	2f0b883a 	add	r5,r5,fp
 8401694:	2885883a 	add	r2,r5,r2
 8401698:	180d883a 	mov	r6,r3
 840169c:	100b883a 	mov	r5,r2
 84016a0:	01000084 	movi	r4,2
 84016a4:	84032c80 	call	84032c8 <GUI_ClearRect>
				Print(BTN_ENTER, DeskInfo, "Done");
 84016a8:	008000b4 	movhi	r2,2
 84016ac:	10bab304 	addi	r2,r2,-5428
 84016b0:	01bffef4 	movhi	r6,65531
 84016b4:	31805a04 	addi	r6,r6,360
 84016b8:	370d883a 	add	r6,r6,fp
 84016bc:	30a1883a 	add	r16,r6,r2
 84016c0:	00821074 	movhi	r2,2113
 84016c4:	10bedd04 	addi	r2,r2,-1164
 84016c8:	d8801115 	stw	r2,68(sp)
 84016cc:	d809883a 	mov	r4,sp
 84016d0:	80800304 	addi	r2,r16,12
 84016d4:	00c01104 	movi	r3,68
 84016d8:	180d883a 	mov	r6,r3
 84016dc:	100b883a 	mov	r5,r2
 84016e0:	8409edc0 	call	8409edc <memcpy>
 84016e4:	81400017 	ldw	r5,0(r16)
 84016e8:	81800117 	ldw	r6,4(r16)
 84016ec:	81c00217 	ldw	r7,8(r16)
 84016f0:	01000084 	movi	r4,2
 84016f4:	84034900 	call	8403490 <Print>
				digits++;
 84016f8:	01fffef4 	movhi	r7,65531
 84016fc:	39c05b44 	addi	r7,r7,365
 8401700:	3f0f883a 	add	r7,r7,fp
 8401704:	38800003 	ldbu	r2,0(r7)
 8401708:	10800044 	addi	r2,r2,1
 840170c:	00fffef4 	movhi	r3,65531
 8401710:	18c05b44 	addi	r3,r3,365
 8401714:	1f07883a 	add	r3,r3,fp
 8401718:	18800005 	stb	r2,0(r3)
 840171c:	00009006 	br	8401960 <main+0x16f0>
   			}


   			else if(ButtonId==BTN_NEWGAME && status==NEW_GAME){
 8401720:	013ffef4 	movhi	r4,65531
 8401724:	21006404 	addi	r4,r4,400
 8401728:	2709883a 	add	r4,r4,fp
 840172c:	20800017 	ldw	r2,0(r4)
 8401730:	10800118 	cmpnei	r2,r2,4
 8401734:	10008a1e 	bne	r2,zero,8401960 <main+0x16f0>
 8401738:	017ffef4 	movhi	r5,65531
 840173c:	29405a04 	addi	r5,r5,360
 8401740:	2f0b883a 	add	r5,r5,fp
 8401744:	28800017 	ldw	r2,0(r5)
 8401748:	10800118 	cmpnei	r2,r2,4
 840174c:	1000841e 	bne	r2,zero,8401960 <main+0x16f0>
   				status=NO_IMG;
 8401750:	01bffef4 	movhi	r6,65531
 8401754:	31805a04 	addi	r6,r6,360
 8401758:	370d883a 	add	r6,r6,fp
 840175c:	30000015 	stw	zero,0(r6)
   				result[0]=0;
 8401760:	00800174 	movhi	r2,5
 8401764:	10bf9d04 	addi	r2,r2,-396
 8401768:	01fffef4 	movhi	r7,65531
 840176c:	39c05a04 	addi	r7,r7,360
 8401770:	3f0f883a 	add	r7,r7,fp
 8401774:	3885883a 	add	r2,r7,r2
 8401778:	10000005 	stb	zero,0(r2)
				result[1]=0;
 840177c:	00800174 	movhi	r2,5
 8401780:	10bf9d04 	addi	r2,r2,-396
 8401784:	00fffef4 	movhi	r3,65531
 8401788:	18c05a04 	addi	r3,r3,360
 840178c:	1f07883a 	add	r3,r3,fp
 8401790:	1885883a 	add	r2,r3,r2
 8401794:	10000045 	stb	zero,1(r2)
				result[2]=0;
 8401798:	00800174 	movhi	r2,5
 840179c:	10bf9d04 	addi	r2,r2,-396
 84017a0:	013ffef4 	movhi	r4,65531
 84017a4:	21005a04 	addi	r4,r4,360
 84017a8:	2709883a 	add	r4,r4,fp
 84017ac:	2085883a 	add	r2,r4,r2
 84017b0:	10000085 	stb	zero,2(r2)
				digits=0;
 84017b4:	017ffef4 	movhi	r5,65531
 84017b8:	29405b44 	addi	r5,r5,365
 84017bc:	2f0b883a 	add	r5,r5,fp
 84017c0:	28000005 	stb	zero,0(r5)

   				exp=NewExpression();
 84017c4:	00800174 	movhi	r2,5
 84017c8:	10bf9804 	addi	r2,r2,-416
 84017cc:	01bffef4 	movhi	r6,65531
 84017d0:	31805a04 	addi	r6,r6,360
 84017d4:	370d883a 	add	r6,r6,fp
 84017d8:	30a1883a 	add	r16,r6,r2
 84017dc:	00800174 	movhi	r2,5
 84017e0:	10bf9e04 	addi	r2,r2,-392
 84017e4:	01fffef4 	movhi	r7,65531
 84017e8:	39c05a04 	addi	r7,r7,360
 84017ec:	3f0f883a 	add	r7,r7,fp
 84017f0:	3885883a 	add	r2,r7,r2
 84017f4:	1009883a 	mov	r4,r2
 84017f8:	8403bdc0 	call	8403bdc <NewExpression>
 84017fc:	00800174 	movhi	r2,5
 8401800:	10bf9e04 	addi	r2,r2,-392
 8401804:	00fffef4 	movhi	r3,65531
 8401808:	18c05a04 	addi	r3,r3,360
 840180c:	1f07883a 	add	r3,r3,fp
 8401810:	1885883a 	add	r2,r3,r2
 8401814:	10c00017 	ldw	r3,0(r2)
 8401818:	80c00015 	stw	r3,0(r16)
 840181c:	10c00117 	ldw	r3,4(r2)
 8401820:	80c00115 	stw	r3,4(r16)
 8401824:	10c00217 	ldw	r3,8(r2)
 8401828:	80c00215 	stw	r3,8(r16)
 840182c:	10c00317 	ldw	r3,12(r2)
 8401830:	80c00315 	stw	r3,12(r16)
 8401834:	10800417 	ldw	r2,16(r2)
 8401838:	80800415 	stw	r2,16(r16)
   				GUI_ClearRect(RECT_EXP, &DeskInfo, &Display);
 840183c:	008000b4 	movhi	r2,2
 8401840:	10bac704 	addi	r2,r2,-5348
 8401844:	013ffef4 	movhi	r4,65531
 8401848:	21005a04 	addi	r4,r4,360
 840184c:	2709883a 	add	r4,r4,fp
 8401850:	2087883a 	add	r3,r4,r2
 8401854:	008000b4 	movhi	r2,2
 8401858:	10bab304 	addi	r2,r2,-5428
 840185c:	017ffef4 	movhi	r5,65531
 8401860:	29405a04 	addi	r5,r5,360
 8401864:	2f0b883a 	add	r5,r5,fp
 8401868:	2885883a 	add	r2,r5,r2
 840186c:	180d883a 	mov	r6,r3
 8401870:	100b883a 	mov	r5,r2
 8401874:	01000184 	movi	r4,6
 8401878:	84032c80 	call	84032c8 <GUI_ClearRect>
   				Print(RECT_EXP, DeskInfo, exp.string);
 840187c:	008000b4 	movhi	r2,2
 8401880:	10bab304 	addi	r2,r2,-5428
 8401884:	01bffef4 	movhi	r6,65531
 8401888:	31805a04 	addi	r6,r6,360
 840188c:	370d883a 	add	r6,r6,fp
 8401890:	30a1883a 	add	r16,r6,r2
 8401894:	00800174 	movhi	r2,5
 8401898:	10bf9804 	addi	r2,r2,-416
 840189c:	01fffef4 	movhi	r7,65531
 84018a0:	39c05a04 	addi	r7,r7,360
 84018a4:	3f0f883a 	add	r7,r7,fp
 84018a8:	3885883a 	add	r2,r7,r2
 84018ac:	10800344 	addi	r2,r2,13
 84018b0:	d8801115 	stw	r2,68(sp)
 84018b4:	d809883a 	mov	r4,sp
 84018b8:	80800304 	addi	r2,r16,12
 84018bc:	00c01104 	movi	r3,68
 84018c0:	180d883a 	mov	r6,r3
 84018c4:	100b883a 	mov	r5,r2
 84018c8:	8409edc0 	call	8409edc <memcpy>
 84018cc:	81400017 	ldw	r5,0(r16)
 84018d0:	81800117 	ldw	r6,4(r16)
 84018d4:	81c00217 	ldw	r7,8(r16)
 84018d8:	01000184 	movi	r4,6
 84018dc:	84034900 	call	8403490 <Print>
   				GUI_ClearRect(BTN_RESULT, &DeskInfo, &Display);
 84018e0:	008000b4 	movhi	r2,2
 84018e4:	10bac704 	addi	r2,r2,-5348
 84018e8:	013ffef4 	movhi	r4,65531
 84018ec:	21005a04 	addi	r4,r4,360
 84018f0:	2709883a 	add	r4,r4,fp
 84018f4:	2087883a 	add	r3,r4,r2
 84018f8:	008000b4 	movhi	r2,2
 84018fc:	10bab304 	addi	r2,r2,-5428
 8401900:	017ffef4 	movhi	r5,65531
 8401904:	29405a04 	addi	r5,r5,360
 8401908:	2f0b883a 	add	r5,r5,fp
 840190c:	2885883a 	add	r2,r5,r2
 8401910:	180d883a 	mov	r6,r3
 8401914:	100b883a 	mov	r5,r2
 8401918:	010000c4 	movi	r4,3
 840191c:	84032c80 	call	84032c8 <GUI_ClearRect>
   				GUI_ClearRect(RECT_PAINT, &DeskInfo, &Display);
 8401920:	008000b4 	movhi	r2,2
 8401924:	10bac704 	addi	r2,r2,-5348
 8401928:	01bffef4 	movhi	r6,65531
 840192c:	31805a04 	addi	r6,r6,360
 8401930:	370d883a 	add	r6,r6,fp
 8401934:	3087883a 	add	r3,r6,r2
 8401938:	008000b4 	movhi	r2,2
 840193c:	10bab304 	addi	r2,r2,-5428
 8401940:	01fffef4 	movhi	r7,65531
 8401944:	39c05a04 	addi	r7,r7,360
 8401948:	3f0f883a 	add	r7,r7,fp
 840194c:	3885883a 	add	r2,r7,r2
 8401950:	180d883a 	mov	r6,r3
 8401954:	100b883a 	mov	r5,r2
 8401958:	01000144 	movi	r4,5
 840195c:	84032c80 	call	84032c8 <GUI_ClearRect>
   			}

   		} // if touch

   		if(status==IMG_READY){
 8401960:	00fffef4 	movhi	r3,65531
 8401964:	18c05a04 	addi	r3,r3,360
 8401968:	1f07883a 	add	r3,r3,fp
 840196c:	18800017 	ldw	r2,0(r3)
 8401970:	10800058 	cmpnei	r2,r2,1
 8401974:	1000521e 	bne	r2,zero,8401ac0 <main+0x1850>
   			status=CONFIRM;
 8401978:	00800084 	movi	r2,2
 840197c:	013ffef4 	movhi	r4,65531
 8401980:	21005a04 	addi	r4,r4,360
 8401984:	2709883a 	add	r4,r4,fp
 8401988:	20800015 	stw	r2,0(r4)
   			red_digit=TRUE;
 840198c:	00800044 	movi	r2,1
 8401990:	017ffef4 	movhi	r5,65531
 8401994:	29405c04 	addi	r5,r5,368
 8401998:	2f0b883a 	add	r5,r5,fp
 840199c:	28800015 	stw	r2,0(r5)
   			result[digits]=testLayer(&nn_layer, &mnist_img);
 84019a0:	01bffef4 	movhi	r6,65531
 84019a4:	31805b44 	addi	r6,r6,365
 84019a8:	370d883a 	add	r6,r6,fp
 84019ac:	34000003 	ldbu	r16,0(r6)
 84019b0:	008000b4 	movhi	r2,2
 84019b4:	10bad404 	addi	r2,r2,-5296
 84019b8:	01fffef4 	movhi	r7,65531
 84019bc:	39c05a04 	addi	r7,r7,360
 84019c0:	3f0f883a 	add	r7,r7,fp
 84019c4:	3887883a 	add	r3,r7,r2
 84019c8:	013ffef4 	movhi	r4,65531
 84019cc:	21006504 	addi	r4,r4,404
 84019d0:	e105883a 	add	r2,fp,r4
 84019d4:	180b883a 	mov	r5,r3
 84019d8:	1009883a 	mov	r4,r2
 84019dc:	8401fe80 	call	8401fe8 <testLayer>
 84019e0:	1007883a 	mov	r3,r2
 84019e4:	00800174 	movhi	r2,5
 84019e8:	10bf9d04 	addi	r2,r2,-396
 84019ec:	017ffef4 	movhi	r5,65531
 84019f0:	29405a04 	addi	r5,r5,360
 84019f4:	2f0b883a 	add	r5,r5,fp
 84019f8:	2885883a 	add	r2,r5,r2
 84019fc:	1405883a 	add	r2,r2,r16
 8401a00:	10c00005 	stb	r3,0(r2)
   			/*visualizzo in rosso la cifra intuita dalla rete neurale*/
   			vid_print_char_alpha(DeskInfo.result.left+20+13*digits, DeskInfo.result.top+9, RED_24, (char)(result[digits]+48), WHITE_24, tahomabold_20);
 8401a04:	008000b4 	movhi	r2,2
 8401a08:	10bab304 	addi	r2,r2,-5428
 8401a0c:	01bffef4 	movhi	r6,65531
 8401a10:	31805a04 	addi	r6,r6,360
 8401a14:	370d883a 	add	r6,r6,fp
 8401a18:	3085883a 	add	r2,r6,r2
 8401a1c:	10801017 	ldw	r2,64(r2)
 8401a20:	10c00504 	addi	r3,r2,20
 8401a24:	01fffef4 	movhi	r7,65531
 8401a28:	39c05b44 	addi	r7,r7,365
 8401a2c:	3f0f883a 	add	r7,r7,fp
 8401a30:	38800003 	ldbu	r2,0(r7)
 8401a34:	10800364 	muli	r2,r2,13
 8401a38:	1889883a 	add	r4,r3,r2
 8401a3c:	008000b4 	movhi	r2,2
 8401a40:	10bab304 	addi	r2,r2,-5428
 8401a44:	00fffef4 	movhi	r3,65531
 8401a48:	18c05a04 	addi	r3,r3,360
 8401a4c:	1f07883a 	add	r3,r3,fp
 8401a50:	1885883a 	add	r2,r3,r2
 8401a54:	10801217 	ldw	r2,72(r2)
 8401a58:	11400244 	addi	r5,r2,9
 8401a5c:	01bffef4 	movhi	r6,65531
 8401a60:	31805b44 	addi	r6,r6,365
 8401a64:	370d883a 	add	r6,r6,fp
 8401a68:	30c00003 	ldbu	r3,0(r6)
 8401a6c:	00800174 	movhi	r2,5
 8401a70:	10bf9d04 	addi	r2,r2,-396
 8401a74:	01fffef4 	movhi	r7,65531
 8401a78:	39c05a04 	addi	r7,r7,360
 8401a7c:	3f0f883a 	add	r7,r7,fp
 8401a80:	3885883a 	add	r2,r7,r2
 8401a84:	10c5883a 	add	r2,r2,r3
 8401a88:	10800003 	ldbu	r2,0(r2)
 8401a8c:	10800c04 	addi	r2,r2,48
 8401a90:	10c03fcc 	andi	r3,r2,255
 8401a94:	18c0201c 	xori	r3,r3,128
 8401a98:	18ffe004 	addi	r3,r3,-128
 8401a9c:	00821134 	movhi	r2,2116
 8401aa0:	10a3a804 	addi	r2,r2,-29024
 8401aa4:	d8800115 	stw	r2,4(sp)
 8401aa8:	00804034 	movhi	r2,256
 8401aac:	10bfffc4 	addi	r2,r2,-1
 8401ab0:	d8800015 	stw	r2,0(sp)
 8401ab4:	180f883a 	mov	r7,r3
 8401ab8:	01803ff4 	movhi	r6,255
 8401abc:	8405edc0 	call	8405edc <vid_print_char_alpha>
   		}

   		if(status==FINISHED){
 8401ac0:	00fffef4 	movhi	r3,65531
 8401ac4:	18c05a04 	addi	r3,r3,360
 8401ac8:	1f07883a 	add	r3,r3,fp
 8401acc:	18800017 	ldw	r2,0(r3)
 8401ad0:	108000d8 	cmpnei	r2,r2,3
 8401ad4:	103ae41e 	bne	r2,zero,8400668 <__alt_data_end+0xfc400668>
   			status=NEW_GAME;
 8401ad8:	00800104 	movi	r2,4
 8401adc:	013ffef4 	movhi	r4,65531
 8401ae0:	21005a04 	addi	r4,r4,360
 8401ae4:	2709883a 	add	r4,r4,fp
 8401ae8:	20800015 	stw	r2,0(r4)
   			red_digit=FALSE;
 8401aec:	017ffef4 	movhi	r5,65531
 8401af0:	29405c04 	addi	r5,r5,368
 8401af4:	2f0b883a 	add	r5,r5,fp
 8401af8:	28000015 	stw	zero,0(r5)
   			writing=FALSE;
 8401afc:	01bffef4 	movhi	r6,65531
 8401b00:	31805d04 	addi	r6,r6,372
 8401b04:	370d883a 	add	r6,r6,fp
 8401b08:	30000015 	stw	zero,0(r6)
			vid_draw_box (DeskInfo.expression.left, DeskInfo.expression.top, DeskInfo.expression.right, DeskInfo.expression.bottom, YELLOW_24, DO_FILL, &Display);
 8401b0c:	008000b4 	movhi	r2,2
 8401b10:	10bab304 	addi	r2,r2,-5428
 8401b14:	01fffef4 	movhi	r7,65531
 8401b18:	39c05a04 	addi	r7,r7,360
 8401b1c:	3f0f883a 	add	r7,r7,fp
 8401b20:	3885883a 	add	r2,r7,r2
 8401b24:	10c00c17 	ldw	r3,48(r2)
 8401b28:	008000b4 	movhi	r2,2
 8401b2c:	10bab304 	addi	r2,r2,-5428
 8401b30:	013ffef4 	movhi	r4,65531
 8401b34:	21005a04 	addi	r4,r4,360
 8401b38:	2709883a 	add	r4,r4,fp
 8401b3c:	2085883a 	add	r2,r4,r2
 8401b40:	11000e17 	ldw	r4,56(r2)
 8401b44:	008000b4 	movhi	r2,2
 8401b48:	10bab304 	addi	r2,r2,-5428
 8401b4c:	017ffef4 	movhi	r5,65531
 8401b50:	29405a04 	addi	r5,r5,360
 8401b54:	2f0b883a 	add	r5,r5,fp
 8401b58:	2885883a 	add	r2,r5,r2
 8401b5c:	11400d17 	ldw	r5,52(r2)
 8401b60:	008000b4 	movhi	r2,2
 8401b64:	10bab304 	addi	r2,r2,-5428
 8401b68:	01bffef4 	movhi	r6,65531
 8401b6c:	31805a04 	addi	r6,r6,360
 8401b70:	370d883a 	add	r6,r6,fp
 8401b74:	3085883a 	add	r2,r6,r2
 8401b78:	11800f17 	ldw	r6,60(r2)
 8401b7c:	008000b4 	movhi	r2,2
 8401b80:	10bac704 	addi	r2,r2,-5348
 8401b84:	01fffef4 	movhi	r7,65531
 8401b88:	39c05a04 	addi	r7,r7,360
 8401b8c:	3f0f883a 	add	r7,r7,fp
 8401b90:	3885883a 	add	r2,r7,r2
 8401b94:	d8800215 	stw	r2,8(sp)
 8401b98:	00800044 	movi	r2,1
 8401b9c:	d8800115 	stw	r2,4(sp)
 8401ba0:	00804034 	movhi	r2,256
 8401ba4:	10bfc004 	addi	r2,r2,-256
 8401ba8:	d8800015 	stw	r2,0(sp)
 8401bac:	300f883a 	mov	r7,r6
 8401bb0:	280d883a 	mov	r6,r5
 8401bb4:	200b883a 	mov	r5,r4
 8401bb8:	1809883a 	mov	r4,r3
 8401bbc:	84042880 	call	8404288 <vid_draw_box>
			Print(BTN_NEWGAME, DeskInfo, "New game!");
 8401bc0:	008000b4 	movhi	r2,2
 8401bc4:	10bab304 	addi	r2,r2,-5428
 8401bc8:	00fffef4 	movhi	r3,65531
 8401bcc:	18c05a04 	addi	r3,r3,360
 8401bd0:	1f07883a 	add	r3,r3,fp
 8401bd4:	18a1883a 	add	r16,r3,r2
 8401bd8:	00821074 	movhi	r2,2113
 8401bdc:	10bed404 	addi	r2,r2,-1200
 8401be0:	d8801115 	stw	r2,68(sp)
 8401be4:	d809883a 	mov	r4,sp
 8401be8:	80800304 	addi	r2,r16,12
 8401bec:	00c01104 	movi	r3,68
 8401bf0:	180d883a 	mov	r6,r3
 8401bf4:	100b883a 	mov	r5,r2
 8401bf8:	8409edc0 	call	8409edc <memcpy>
 8401bfc:	81400017 	ldw	r5,0(r16)
 8401c00:	81800117 	ldw	r6,4(r16)
 8401c04:	81c00217 	ldw	r7,8(r16)
 8401c08:	01000104 	movi	r4,4
 8401c0c:	84034900 	call	8403490 <Print>
   		}

   } // while
 8401c10:	003a9506 	br	8400668 <__alt_data_end+0xfc400668>

08401c14 <initLayer>:
 * @attention It actually makes no difference whether the weights are
 * initialized to a constant (e.g. 0.5) or to a random number.
 * The result (85% success rate) will not change significantly.
 */

void initLayer(Layer *l){
 8401c14:	defffc04 	addi	sp,sp,-16
 8401c18:	df000315 	stw	fp,12(sp)
 8401c1c:	df000304 	addi	fp,sp,12
 8401c20:	e13fff15 	stw	r4,-4(fp)
    
    for (int o=0; o<NUMBER_OF_OUTPUT_CELLS; o++){
 8401c24:	e03ffd15 	stw	zero,-12(fp)
 8401c28:	00003606 	br	8401d04 <initLayer+0xf0>
        
        for (int i=0; i<NUMBER_OF_INPUT_CELLS; i++){
 8401c2c:	e03ffe15 	stw	zero,-8(fp)
 8401c30:	00002006 	br	8401cb4 <initLayer+0xa0>
            l->cell[o].input[i]=0;
 8401c34:	e0ffff17 	ldw	r3,-4(fp)
 8401c38:	e0bffd17 	ldw	r2,-12(fp)
 8401c3c:	110188a4 	muli	r4,r2,1570
 8401c40:	e0bffe17 	ldw	r2,-8(fp)
 8401c44:	2085883a 	add	r2,r4,r2
 8401c48:	100490fa 	slli	r2,r2,3
 8401c4c:	1885883a 	add	r2,r3,r2
 8401c50:	10000015 	stw	zero,0(r2)
 8401c54:	10000115 	stw	zero,4(r2)
            l->cell[o].weight[i]=WEIGHTS[o*NUMBER_OF_INPUT_CELLS + i];
 8401c58:	e0bffd17 	ldw	r2,-12(fp)
 8401c5c:	10c0c424 	muli	r3,r2,784
 8401c60:	e0bffe17 	ldw	r2,-8(fp)
 8401c64:	1887883a 	add	r3,r3,r2
 8401c68:	00821074 	movhi	r2,2113
 8401c6c:	10bee204 	addi	r2,r2,-1144
 8401c70:	180690fa 	slli	r3,r3,3
 8401c74:	10c9883a 	add	r4,r2,r3
 8401c78:	20800017 	ldw	r2,0(r4)
 8401c7c:	20c00117 	ldw	r3,4(r4)
 8401c80:	e17fff17 	ldw	r5,-4(fp)
 8401c84:	e13ffd17 	ldw	r4,-12(fp)
 8401c88:	218188a4 	muli	r6,r4,1570
 8401c8c:	e13ffe17 	ldw	r4,-8(fp)
 8401c90:	3109883a 	add	r4,r6,r4
 8401c94:	2100c404 	addi	r4,r4,784
 8401c98:	200890fa 	slli	r4,r4,3
 8401c9c:	2909883a 	add	r4,r5,r4
 8401ca0:	20800015 	stw	r2,0(r4)
 8401ca4:	20c00115 	stw	r3,4(r4)

void initLayer(Layer *l){
    
    for (int o=0; o<NUMBER_OF_OUTPUT_CELLS; o++){
        
        for (int i=0; i<NUMBER_OF_INPUT_CELLS; i++){
 8401ca8:	e0bffe17 	ldw	r2,-8(fp)
 8401cac:	10800044 	addi	r2,r2,1
 8401cb0:	e0bffe15 	stw	r2,-8(fp)
 8401cb4:	e0bffe17 	ldw	r2,-8(fp)
 8401cb8:	1080c410 	cmplti	r2,r2,784
 8401cbc:	103fdd1e 	bne	r2,zero,8401c34 <__alt_data_end+0xfc401c34>
            l->cell[o].input[i]=0;
            l->cell[o].weight[i]=WEIGHTS[o*NUMBER_OF_INPUT_CELLS + i];
        }
        
        l->cell[o].output = 0;
 8401cc0:	e0ffff17 	ldw	r3,-4(fp)
 8401cc4:	e0bffd17 	ldw	r2,-12(fp)
 8401cc8:	108c4424 	muli	r2,r2,12560
 8401ccc:	1885883a 	add	r2,r3,r2
 8401cd0:	108c4004 	addi	r2,r2,12544
 8401cd4:	10000015 	stw	zero,0(r2)
 8401cd8:	10000115 	stw	zero,4(r2)
        l->cell[o].bias = 0;
 8401cdc:	e0ffff17 	ldw	r3,-4(fp)
 8401ce0:	e0bffd17 	ldw	r2,-12(fp)
 8401ce4:	108c4424 	muli	r2,r2,12560
 8401ce8:	1885883a 	add	r2,r3,r2
 8401cec:	108c4204 	addi	r2,r2,12552
 8401cf0:	10000015 	stw	zero,0(r2)
 8401cf4:	10000115 	stw	zero,4(r2)
 * The result (85% success rate) will not change significantly.
 */

void initLayer(Layer *l){
    
    for (int o=0; o<NUMBER_OF_OUTPUT_CELLS; o++){
 8401cf8:	e0bffd17 	ldw	r2,-12(fp)
 8401cfc:	10800044 	addi	r2,r2,1
 8401d00:	e0bffd15 	stw	r2,-12(fp)
 8401d04:	e0bffd17 	ldw	r2,-12(fp)
 8401d08:	10800290 	cmplti	r2,r2,10
 8401d0c:	103fc71e 	bne	r2,zero,8401c2c <__alt_data_end+0xfc401c2c>
        }
        
        l->cell[o].output = 0;
        l->cell[o].bias = 0;
    }
}
 8401d10:	0001883a 	nop
 8401d14:	e037883a 	mov	sp,fp
 8401d18:	df000017 	ldw	fp,0(sp)
 8401d1c:	dec00104 	addi	sp,sp,4
 8401d20:	f800283a 	ret

08401d24 <getLayerPrediction>:
/**
 * @details The output prediction is derived by simply sorting all output values
 * and using the index (=0-9 number) of the highest value as the prediction.
 */

uint8_t getLayerPrediction(Layer *l){
 8401d24:	defff904 	addi	sp,sp,-28
 8401d28:	dfc00615 	stw	ra,24(sp)
 8401d2c:	df000515 	stw	fp,20(sp)
 8401d30:	df000504 	addi	fp,sp,20
 8401d34:	e13fff15 	stw	r4,-4(fp)
    
    double maxOut = 0;
 8401d38:	e03ffb15 	stw	zero,-20(fp)
 8401d3c:	e03ffc15 	stw	zero,-16(fp)
    uint8_t maxInd = 0;
 8401d40:	e03ffd05 	stb	zero,-12(fp)
    
    for (int i=0; i<NUMBER_OF_OUTPUT_CELLS; i++){
 8401d44:	e03ffe15 	stw	zero,-8(fp)
 8401d48:	00001b06 	br	8401db8 <getLayerPrediction+0x94>
        if (l->cell[i].output > maxOut){
 8401d4c:	e0ffff17 	ldw	r3,-4(fp)
 8401d50:	e0bffe17 	ldw	r2,-8(fp)
 8401d54:	108c4424 	muli	r2,r2,12560
 8401d58:	1885883a 	add	r2,r3,r2
 8401d5c:	110c4004 	addi	r4,r2,12544
 8401d60:	20800017 	ldw	r2,0(r4)
 8401d64:	20c00117 	ldw	r3,4(r4)
 8401d68:	e1bffb17 	ldw	r6,-20(fp)
 8401d6c:	e1fffc17 	ldw	r7,-16(fp)
 8401d70:	1009883a 	mov	r4,r2
 8401d74:	180b883a 	mov	r5,r3
 8401d78:	84082f40 	call	84082f4 <__gedf2>
 8401d7c:	00800b0e 	bge	zero,r2,8401dac <getLayerPrediction+0x88>
            maxOut = l->cell[i].output;
 8401d80:	e0ffff17 	ldw	r3,-4(fp)
 8401d84:	e0bffe17 	ldw	r2,-8(fp)
 8401d88:	108c4424 	muli	r2,r2,12560
 8401d8c:	1885883a 	add	r2,r3,r2
 8401d90:	108c4004 	addi	r2,r2,12544
 8401d94:	10c00017 	ldw	r3,0(r2)
 8401d98:	e0fffb15 	stw	r3,-20(fp)
 8401d9c:	10800117 	ldw	r2,4(r2)
 8401da0:	e0bffc15 	stw	r2,-16(fp)
            maxInd = i;
 8401da4:	e0bffe17 	ldw	r2,-8(fp)
 8401da8:	e0bffd05 	stb	r2,-12(fp)
uint8_t getLayerPrediction(Layer *l){
    
    double maxOut = 0;
    uint8_t maxInd = 0;
    
    for (int i=0; i<NUMBER_OF_OUTPUT_CELLS; i++){
 8401dac:	e0bffe17 	ldw	r2,-8(fp)
 8401db0:	10800044 	addi	r2,r2,1
 8401db4:	e0bffe15 	stw	r2,-8(fp)
 8401db8:	e0bffe17 	ldw	r2,-8(fp)
 8401dbc:	10800290 	cmplti	r2,r2,10
 8401dc0:	103fe21e 	bne	r2,zero,8401d4c <__alt_data_end+0xfc401d4c>
            maxOut = l->cell[i].output;
            maxInd = i;
        }
    }
    
    return maxInd;
 8401dc4:	e0bffd03 	ldbu	r2,-12(fp)
    
}
 8401dc8:	e037883a 	mov	sp,fp
 8401dcc:	dfc00117 	ldw	ra,4(sp)
 8401dd0:	df000017 	ldw	fp,0(sp)
 8401dd4:	dec00204 	addi	sp,sp,8
 8401dd8:	f800283a 	ret

08401ddc <setCellInput>:
 * of a given MNIST image, setting input vector cells to [0,1]
 * based on the pixels of the image.
 * Scalar pixel intensity [=grey-scale] is ignored, only 0 or 1 [=black-white].
 */

void setCellInput(Cell *c, MNIST_Image *img){
 8401ddc:	defffc04 	addi	sp,sp,-16
 8401de0:	df000315 	stw	fp,12(sp)
 8401de4:	df000304 	addi	fp,sp,12
 8401de8:	e13ffe15 	stw	r4,-8(fp)
 8401dec:	e17fff15 	stw	r5,-4(fp)
    
    for (int i=0; i<NUMBER_OF_INPUT_CELLS; i++){
 8401df0:	e03ffd15 	stw	zero,-12(fp)
 8401df4:	00001406 	br	8401e48 <setCellInput+0x6c>
        c->input[i] = img->pixel[i] ? 1 : 0;
 8401df8:	e0ffff17 	ldw	r3,-4(fp)
 8401dfc:	e0bffd17 	ldw	r2,-12(fp)
 8401e00:	1885883a 	add	r2,r3,r2
 8401e04:	10800003 	ldbu	r2,0(r2)
 8401e08:	10803fcc 	andi	r2,r2,255
 8401e0c:	10000326 	beq	r2,zero,8401e1c <setCellInput+0x40>
 8401e10:	0005883a 	mov	r2,zero
 8401e14:	00cffc34 	movhi	r3,16368
 8401e18:	00000206 	br	8401e24 <setCellInput+0x48>
 8401e1c:	0005883a 	mov	r2,zero
 8401e20:	0007883a 	mov	r3,zero
 8401e24:	e17ffe17 	ldw	r5,-8(fp)
 8401e28:	e13ffd17 	ldw	r4,-12(fp)
 8401e2c:	200890fa 	slli	r4,r4,3
 8401e30:	2909883a 	add	r4,r5,r4
 8401e34:	20800015 	stw	r2,0(r4)
 8401e38:	20c00115 	stw	r3,4(r4)
 * Scalar pixel intensity [=grey-scale] is ignored, only 0 or 1 [=black-white].
 */

void setCellInput(Cell *c, MNIST_Image *img){
    
    for (int i=0; i<NUMBER_OF_INPUT_CELLS; i++){
 8401e3c:	e0bffd17 	ldw	r2,-12(fp)
 8401e40:	10800044 	addi	r2,r2,1
 8401e44:	e0bffd15 	stw	r2,-12(fp)
 8401e48:	e0bffd17 	ldw	r2,-12(fp)
 8401e4c:	1080c410 	cmplti	r2,r2,784
 8401e50:	103fe91e 	bne	r2,zero,8401df8 <__alt_data_end+0xfc401df8>
        c->input[i] = img->pixel[i] ? 1 : 0;

    }
}
 8401e54:	0001883a 	nop
 8401e58:	e037883a 	mov	sp,fp
 8401e5c:	df000017 	ldw	fp,0(sp)
 8401e60:	dec00104 	addi	sp,sp,4
 8401e64:	f800283a 	ret

08401e68 <calcCellOutput>:
/**
 * @details Calculates a cell's output by suming all input-weight-products
 * and normalizes to [0-1].
 */

void calcCellOutput(Cell *c){
 8401e68:	defffa04 	addi	sp,sp,-24
 8401e6c:	dfc00515 	stw	ra,20(sp)
 8401e70:	df000415 	stw	fp,16(sp)
 8401e74:	dc400315 	stw	r17,12(sp)
 8401e78:	dc000215 	stw	r16,8(sp)
 8401e7c:	df000404 	addi	fp,sp,16
 8401e80:	e13ffd15 	stw	r4,-12(fp)
    
    c->output=0;
 8401e84:	e0bffd17 	ldw	r2,-12(fp)
 8401e88:	100c4015 	stw	zero,12544(r2)
 8401e8c:	100c4115 	stw	zero,12548(r2)
    
    for (int i=0; i<NUMBER_OF_INPUT_CELLS; i++){
 8401e90:	e03ffc15 	stw	zero,-16(fp)
 8401e94:	00002806 	br	8401f38 <calcCellOutput+0xd0>
        c->output += c->input[i] * c->weight[i];
 8401e98:	e0bffd17 	ldw	r2,-12(fp)
 8401e9c:	140c4017 	ldw	r16,12544(r2)
 8401ea0:	144c4117 	ldw	r17,12548(r2)
 8401ea4:	e0fffd17 	ldw	r3,-12(fp)
 8401ea8:	e0bffc17 	ldw	r2,-16(fp)
 8401eac:	100490fa 	slli	r2,r2,3
 8401eb0:	1889883a 	add	r4,r3,r2
 8401eb4:	20800017 	ldw	r2,0(r4)
 8401eb8:	20c00117 	ldw	r3,4(r4)
 8401ebc:	e17ffd17 	ldw	r5,-12(fp)
 8401ec0:	e13ffc17 	ldw	r4,-16(fp)
 8401ec4:	2100c404 	addi	r4,r4,784
 8401ec8:	200890fa 	slli	r4,r4,3
 8401ecc:	290d883a 	add	r6,r5,r4
 8401ed0:	31000017 	ldw	r4,0(r6)
 8401ed4:	31400117 	ldw	r5,4(r6)
 8401ed8:	200d883a 	mov	r6,r4
 8401edc:	280f883a 	mov	r7,r5
 8401ee0:	1009883a 	mov	r4,r2
 8401ee4:	180b883a 	mov	r5,r3
 8401ee8:	84084c40 	call	84084c4 <__muldf3>
 8401eec:	1009883a 	mov	r4,r2
 8401ef0:	180b883a 	mov	r5,r3
 8401ef4:	2005883a 	mov	r2,r4
 8401ef8:	2807883a 	mov	r3,r5
 8401efc:	100d883a 	mov	r6,r2
 8401f00:	180f883a 	mov	r7,r3
 8401f04:	8009883a 	mov	r4,r16
 8401f08:	880b883a 	mov	r5,r17
 8401f0c:	84071600 	call	8407160 <__adddf3>
 8401f10:	1009883a 	mov	r4,r2
 8401f14:	180b883a 	mov	r5,r3
 8401f18:	2005883a 	mov	r2,r4
 8401f1c:	2807883a 	mov	r3,r5
 8401f20:	e13ffd17 	ldw	r4,-12(fp)
 8401f24:	208c4015 	stw	r2,12544(r4)
 8401f28:	20cc4115 	stw	r3,12548(r4)

void calcCellOutput(Cell *c){
    
    c->output=0;
    
    for (int i=0; i<NUMBER_OF_INPUT_CELLS; i++){
 8401f2c:	e0bffc17 	ldw	r2,-16(fp)
 8401f30:	10800044 	addi	r2,r2,1
 8401f34:	e0bffc15 	stw	r2,-16(fp)
 8401f38:	e0bffc17 	ldw	r2,-16(fp)
 8401f3c:	1080c410 	cmplti	r2,r2,784
 8401f40:	103fd51e 	bne	r2,zero,8401e98 <__alt_data_end+0xfc401e98>
        c->output += c->input[i] * c->weight[i];
    }
    
    c->output /= NUMBER_OF_INPUT_CELLS;             // normalize output (0-1)
 8401f44:	e13ffd17 	ldw	r4,-12(fp)
 8401f48:	208c4017 	ldw	r2,12544(r4)
 8401f4c:	20cc4117 	ldw	r3,12548(r4)
 8401f50:	000d883a 	mov	r6,zero
 8401f54:	01d02274 	movhi	r7,16521
 8401f58:	39e00004 	addi	r7,r7,-32768
 8401f5c:	1009883a 	mov	r4,r2
 8401f60:	180b883a 	mov	r5,r3
 8401f64:	8407a0c0 	call	8407a0c <__divdf3>
 8401f68:	1009883a 	mov	r4,r2
 8401f6c:	180b883a 	mov	r5,r3
 8401f70:	2005883a 	mov	r2,r4
 8401f74:	2807883a 	mov	r3,r5
 8401f78:	e13ffd17 	ldw	r4,-12(fp)
 8401f7c:	208c4015 	stw	r2,12544(r4)
 8401f80:	20cc4115 	stw	r3,12548(r4)
}
 8401f84:	0001883a 	nop
 8401f88:	e6fffe04 	addi	sp,fp,-8
 8401f8c:	dfc00317 	ldw	ra,12(sp)
 8401f90:	df000217 	ldw	fp,8(sp)
 8401f94:	dc400117 	ldw	r17,4(sp)
 8401f98:	dc000017 	ldw	r16,0(sp)
 8401f9c:	dec00404 	addi	sp,sp,16
 8401fa0:	f800283a 	ret

08401fa4 <testCell>:
/**
 * @details Performs the testing of the trained network
 * Same as training a cell, but without updating weights (learning)
 */

void testCell(Cell *c, MNIST_Image *img){
 8401fa4:	defffc04 	addi	sp,sp,-16
 8401fa8:	dfc00315 	stw	ra,12(sp)
 8401fac:	df000215 	stw	fp,8(sp)
 8401fb0:	df000204 	addi	fp,sp,8
 8401fb4:	e13ffe15 	stw	r4,-8(fp)
 8401fb8:	e17fff15 	stw	r5,-4(fp)
    
    setCellInput(c, img);
 8401fbc:	e17fff17 	ldw	r5,-4(fp)
 8401fc0:	e13ffe17 	ldw	r4,-8(fp)
 8401fc4:	8401ddc0 	call	8401ddc <setCellInput>
    calcCellOutput(c);
 8401fc8:	e13ffe17 	ldw	r4,-8(fp)
 8401fcc:	8401e680 	call	8401e68 <calcCellOutput>
    
}
 8401fd0:	0001883a 	nop
 8401fd4:	e037883a 	mov	sp,fp
 8401fd8:	dfc00117 	ldw	ra,4(sp)
 8401fdc:	df000017 	ldw	fp,0(sp)
 8401fe0:	dec00204 	addi	sp,sp,8
 8401fe4:	f800283a 	ret

08401fe8 <testLayer>:
 * @details Tests a layer by looping through and testing its cells
 * Exactly the same as TrainLayer() but WITHOUT LEARNING.
 * @param l A pointer to the layer that is to be training
 */

int testLayer(Layer *l, MNIST_Image *img){
 8401fe8:	defffa04 	addi	sp,sp,-24
 8401fec:	dfc00515 	stw	ra,20(sp)
 8401ff0:	df000415 	stw	fp,16(sp)
 8401ff4:	df000404 	addi	fp,sp,16
 8401ff8:	e13ffe15 	stw	r4,-8(fp)
 8401ffc:	e17fff15 	stw	r5,-4(fp)

	// loop through all output cells for the given image
	for (int i=0; i < NUMBER_OF_OUTPUT_CELLS; i++){
 8402000:	e03ffc15 	stw	zero,-16(fp)
 8402004:	00000a06 	br	8402030 <testLayer+0x48>
		testCell(&l->cell[i], img);
 8402008:	e0bffc17 	ldw	r2,-16(fp)
 840200c:	108c4424 	muli	r2,r2,12560
 8402010:	e0fffe17 	ldw	r3,-8(fp)
 8402014:	1885883a 	add	r2,r3,r2
 8402018:	e17fff17 	ldw	r5,-4(fp)
 840201c:	1009883a 	mov	r4,r2
 8402020:	8401fa40 	call	8401fa4 <testCell>
 */

int testLayer(Layer *l, MNIST_Image *img){

	// loop through all output cells for the given image
	for (int i=0; i < NUMBER_OF_OUTPUT_CELLS; i++){
 8402024:	e0bffc17 	ldw	r2,-16(fp)
 8402028:	10800044 	addi	r2,r2,1
 840202c:	e0bffc15 	stw	r2,-16(fp)
 8402030:	e0bffc17 	ldw	r2,-16(fp)
 8402034:	10800290 	cmplti	r2,r2,10
 8402038:	103ff31e 	bne	r2,zero,8402008 <__alt_data_end+0xfc402008>
		testCell(&l->cell[i], img);
	}

	uint8_t predictedNum = getLayerPrediction(l);
 840203c:	e13ffe17 	ldw	r4,-8(fp)
 8402040:	8401d240 	call	8401d24 <getLayerPrediction>
 8402044:	e0bffd05 	stb	r2,-12(fp)

    return predictedNum;
 8402048:	e0bffd03 	ldbu	r2,-12(fp)

}
 840204c:	e037883a 	mov	sp,fp
 8402050:	dfc00117 	ldw	ra,4(sp)
 8402054:	df000017 	ldw	fp,0(sp)
 8402058:	dec00204 	addi	sp,sp,8
 840205c:	f800283a 	ret

08402060 <Delay_Ms>:
#define BLUE 0x001f
#define BLACK  0x0000
#define WHITE 0xffff

void Delay_Ms(alt_u16 count_ms)
{
 8402060:	defffd04 	addi	sp,sp,-12
 8402064:	dfc00215 	stw	ra,8(sp)
 8402068:	df000115 	stw	fp,4(sp)
 840206c:	df000104 	addi	fp,sp,4
 8402070:	2005883a 	mov	r2,r4
 8402074:	e0bfff0d 	sth	r2,-4(fp)
    while(count_ms--)
 8402078:	00000206 	br	8402084 <Delay_Ms+0x24>
    {
        usleep(1000);
 840207c:	0100fa04 	movi	r4,1000
 8402080:	840d82c0 	call	840d82c <usleep>
#define BLACK  0x0000
#define WHITE 0xffff

void Delay_Ms(alt_u16 count_ms)
{
    while(count_ms--)
 8402084:	e0bfff0b 	ldhu	r2,-4(fp)
 8402088:	10ffffc4 	addi	r3,r2,-1
 840208c:	e0ffff0d 	sth	r3,-4(fp)
 8402090:	10bfffcc 	andi	r2,r2,65535
 8402094:	103ff91e 	bne	r2,zero,840207c <__alt_data_end+0xfc40207c>
    {
        usleep(1000);
    }
}
 8402098:	0001883a 	nop
 840209c:	e037883a 	mov	sp,fp
 84020a0:	dfc00117 	ldw	ra,4(sp)
 84020a4:	df000017 	ldw	fp,0(sp)
 84020a8:	dec00204 	addi	sp,sp,8
 84020ac:	f800283a 	ret

084020b0 <LCD_SetCursor>:


void LCD_SetCursor(alt_u16 Xpos, alt_u16 Ypos)
{
 84020b0:	defffd04 	addi	sp,sp,-12
 84020b4:	df000215 	stw	fp,8(sp)
 84020b8:	df000204 	addi	fp,sp,8
 84020bc:	2007883a 	mov	r3,r4
 84020c0:	2805883a 	mov	r2,r5
 84020c4:	e0fffe0d 	sth	r3,-8(fp)
 84020c8:	e0bfff0d 	sth	r2,-4(fp)
	 LCD_WR_REG(0x002A);
 84020cc:	00c00a84 	movi	r3,42
 84020d0:	00800404 	movi	r2,16
 84020d4:	10c00035 	stwio	r3,0(r2)
		 LCD_WR_DATA(Xpos>>8);
 84020d8:	e0bffe0b 	ldhu	r2,-8(fp)
 84020dc:	1004d23a 	srli	r2,r2,8
 84020e0:	10ffffcc 	andi	r3,r2,65535
 84020e4:	00800504 	movi	r2,20
 84020e8:	10c00035 	stwio	r3,0(r2)
		 LCD_WR_DATA(Xpos&0XFF);
 84020ec:	e0bffe0b 	ldhu	r2,-8(fp)
 84020f0:	10c03fcc 	andi	r3,r2,255
 84020f4:	00800504 	movi	r2,20
 84020f8:	10c00035 	stwio	r3,0(r2)
	 LCD_WR_REG(0x002B);
 84020fc:	00c00ac4 	movi	r3,43
 8402100:	00800404 	movi	r2,16
 8402104:	10c00035 	stwio	r3,0(r2)
		 LCD_WR_DATA(Ypos>>8);
 8402108:	e0bfff0b 	ldhu	r2,-4(fp)
 840210c:	1004d23a 	srli	r2,r2,8
 8402110:	10ffffcc 	andi	r3,r2,65535
 8402114:	00800504 	movi	r2,20
 8402118:	10c00035 	stwio	r3,0(r2)
		 LCD_WR_DATA(Ypos&0XFF);
 840211c:	e0bfff0b 	ldhu	r2,-4(fp)
 8402120:	10c03fcc 	andi	r3,r2,255
 8402124:	00800504 	movi	r2,20
 8402128:	10c00035 	stwio	r3,0(r2)
	 LCD_WR_REG(0x002C);
 840212c:	00c00b04 	movi	r3,44
 8402130:	00800404 	movi	r2,16
 8402134:	10c00035 	stwio	r3,0(r2)
}
 8402138:	0001883a 	nop
 840213c:	e037883a 	mov	sp,fp
 8402140:	df000017 	ldw	fp,0(sp)
 8402144:	dec00104 	addi	sp,sp,4
 8402148:	f800283a 	ret

0840214c <LCD_Clear>:

void LCD_Clear(alt_u16 Color)
{
 840214c:	defffc04 	addi	sp,sp,-16
 8402150:	dfc00315 	stw	ra,12(sp)
 8402154:	df000215 	stw	fp,8(sp)
 8402158:	df000204 	addi	fp,sp,8
 840215c:	2005883a 	mov	r2,r4
 8402160:	e0bfff0d 	sth	r2,-4(fp)
        alt_u32 index=0;
 8402164:	e03ffe15 	stw	zero,-8(fp)
        LCD_SetCursor(0x00,0x0000);
 8402168:	000b883a 	mov	r5,zero
 840216c:	0009883a 	mov	r4,zero
 8402170:	84020b00 	call	84020b0 <LCD_SetCursor>
        LCD_WR_REG(0x002C);
 8402174:	00c00b04 	movi	r3,44
 8402178:	00800404 	movi	r2,16
 840217c:	10c00035 	stwio	r3,0(r2)
        for(index=0;index<76800;index++)
 8402180:	e03ffe15 	stw	zero,-8(fp)
 8402184:	00000606 	br	84021a0 <LCD_Clear+0x54>
        {
        	LCD_WR_DATA(Color);
 8402188:	e0ffff0b 	ldhu	r3,-4(fp)
 840218c:	00800504 	movi	r2,20
 8402190:	10c00035 	stwio	r3,0(r2)
void LCD_Clear(alt_u16 Color)
{
        alt_u32 index=0;
        LCD_SetCursor(0x00,0x0000);
        LCD_WR_REG(0x002C);
        for(index=0;index<76800;index++)
 8402194:	e0bffe17 	ldw	r2,-8(fp)
 8402198:	10800044 	addi	r2,r2,1
 840219c:	e0bffe15 	stw	r2,-8(fp)
 84021a0:	e0fffe17 	ldw	r3,-8(fp)
 84021a4:	00800074 	movhi	r2,1
 84021a8:	108affc4 	addi	r2,r2,11263
 84021ac:	10fff62e 	bgeu	r2,r3,8402188 <__alt_data_end+0xfc402188>
        {
        	LCD_WR_DATA(Color);
        }
}
 84021b0:	0001883a 	nop
 84021b4:	e037883a 	mov	sp,fp
 84021b8:	dfc00117 	ldw	ra,4(sp)
 84021bc:	df000017 	ldw	fp,0(sp)
 84021c0:	dec00204 	addi	sp,sp,8
 84021c4:	f800283a 	ret

084021c8 <LCD_DrawPoint>:

void LCD_DrawPoint(alt_u16 x,alt_u16 y,alt_u16 color )
{
 84021c8:	defffb04 	addi	sp,sp,-20
 84021cc:	dfc00415 	stw	ra,16(sp)
 84021d0:	df000315 	stw	fp,12(sp)
 84021d4:	df000304 	addi	fp,sp,12
 84021d8:	2807883a 	mov	r3,r5
 84021dc:	3005883a 	mov	r2,r6
 84021e0:	e13ffd0d 	sth	r4,-12(fp)
 84021e4:	e0fffe0d 	sth	r3,-8(fp)
 84021e8:	e0bfff0d 	sth	r2,-4(fp)
        LCD_SetCursor(x,y);
 84021ec:	e0bffd0b 	ldhu	r2,-12(fp)
 84021f0:	e0fffe0b 	ldhu	r3,-8(fp)
 84021f4:	180b883a 	mov	r5,r3
 84021f8:	1009883a 	mov	r4,r2
 84021fc:	84020b00 	call	84020b0 <LCD_SetCursor>
        LCD_WR_REG(0x002C);			//Memory Write
 8402200:	00c00b04 	movi	r3,44
 8402204:	00800404 	movi	r2,16
 8402208:	10c00035 	stwio	r3,0(r2)
        LCD_WR_DATA(color);
 840220c:	e0ffff0b 	ldhu	r3,-4(fp)
 8402210:	00800504 	movi	r2,20
 8402214:	10c00035 	stwio	r3,0(r2)
}
 8402218:	0001883a 	nop
 840221c:	e037883a 	mov	sp,fp
 8402220:	dfc00117 	ldw	ra,4(sp)
 8402224:	df000017 	ldw	fp,0(sp)
 8402228:	dec00204 	addi	sp,sp,8
 840222c:	f800283a 	ret

08402230 <LCD_Init>:
			}
		}
}*/

void LCD_Init()
{
 8402230:	defffe04 	addi	sp,sp,-8
 8402234:	dfc00115 	stw	ra,4(sp)
 8402238:	df000015 	stw	fp,0(sp)
 840223c:	d839883a 	mov	fp,sp
	Set_LCD_RST;
 8402240:	00c00044 	movi	r3,1
 8402244:	00804034 	movhi	r2,256
 8402248:	10802004 	addi	r2,r2,128
 840224c:	10c00035 	stwio	r3,0(r2)
	Delay_Ms(1);
 8402250:	01000044 	movi	r4,1
 8402254:	84020600 	call	8402060 <Delay_Ms>
	Clr_LCD_RST;
 8402258:	0007883a 	mov	r3,zero
 840225c:	00804034 	movhi	r2,256
 8402260:	10802004 	addi	r2,r2,128
 8402264:	10c00035 	stwio	r3,0(r2)
	Delay_Ms(10);       // Delay 10ms // This delay time is necessary
 8402268:	01000284 	movi	r4,10
 840226c:	84020600 	call	8402060 <Delay_Ms>
	Set_LCD_RST;
 8402270:	00c00044 	movi	r3,1
 8402274:	00804034 	movhi	r2,256
 8402278:	10802004 	addi	r2,r2,128
 840227c:	10c00035 	stwio	r3,0(r2)
	Delay_Ms(120);       // Delay 120 ms
 8402280:	01001e04 	movi	r4,120
 8402284:	84020600 	call	8402060 <Delay_Ms>
//	Clr_LCD_CS;



	LCD_WR_REG(0x0011); //Exit Sleep
 8402288:	00c00444 	movi	r3,17
 840228c:	00800404 	movi	r2,16
 8402290:	10c00035 	stwio	r3,0(r2)
	LCD_WR_REG(0x00CF);
 8402294:	00c033c4 	movi	r3,207
 8402298:	00800404 	movi	r2,16
 840229c:	10c00035 	stwio	r3,0(r2)
		LCD_WR_DATA(0x0000);
 84022a0:	0007883a 	mov	r3,zero
 84022a4:	00800504 	movi	r2,20
 84022a8:	10c00035 	stwio	r3,0(r2)
		LCD_WR_DATA(0x0081);
 84022ac:	00c02044 	movi	r3,129
 84022b0:	00800504 	movi	r2,20
 84022b4:	10c00035 	stwio	r3,0(r2)
		LCD_WR_DATA(0X00c0);
 84022b8:	00c03004 	movi	r3,192
 84022bc:	00800504 	movi	r2,20
 84022c0:	10c00035 	stwio	r3,0(r2)

	LCD_WR_REG(0x00ED);
 84022c4:	00c03b44 	movi	r3,237
 84022c8:	00800404 	movi	r2,16
 84022cc:	10c00035 	stwio	r3,0(r2)
		LCD_WR_DATA(0x0064);
 84022d0:	00c01904 	movi	r3,100
 84022d4:	00800504 	movi	r2,20
 84022d8:	10c00035 	stwio	r3,0(r2)
		LCD_WR_DATA(0x0003);
 84022dc:	00c000c4 	movi	r3,3
 84022e0:	00800504 	movi	r2,20
 84022e4:	10c00035 	stwio	r3,0(r2)
		LCD_WR_DATA(0X0012);
 84022e8:	00c00484 	movi	r3,18
 84022ec:	00800504 	movi	r2,20
 84022f0:	10c00035 	stwio	r3,0(r2)
		LCD_WR_DATA(0X0081);
 84022f4:	00c02044 	movi	r3,129
 84022f8:	00800504 	movi	r2,20
 84022fc:	10c00035 	stwio	r3,0(r2)

	LCD_WR_REG(0x00E8);
 8402300:	00c03a04 	movi	r3,232
 8402304:	00800404 	movi	r2,16
 8402308:	10c00035 	stwio	r3,0(r2)
		LCD_WR_DATA(0x0085);
 840230c:	00c02144 	movi	r3,133
 8402310:	00800504 	movi	r2,20
 8402314:	10c00035 	stwio	r3,0(r2)
		LCD_WR_DATA(0x0001);
 8402318:	00c00044 	movi	r3,1
 840231c:	00800504 	movi	r2,20
 8402320:	10c00035 	stwio	r3,0(r2)
		LCD_WR_DATA(0x00798);
 8402324:	00c1e604 	movi	r3,1944
 8402328:	00800504 	movi	r2,20
 840232c:	10c00035 	stwio	r3,0(r2)

	LCD_WR_REG(0x00CB);
 8402330:	00c032c4 	movi	r3,203
 8402334:	00800404 	movi	r2,16
 8402338:	10c00035 	stwio	r3,0(r2)
		LCD_WR_DATA(0x0039);
 840233c:	00c00e44 	movi	r3,57
 8402340:	00800504 	movi	r2,20
 8402344:	10c00035 	stwio	r3,0(r2)
		LCD_WR_DATA(0x002C);
 8402348:	00c00b04 	movi	r3,44
 840234c:	00800504 	movi	r2,20
 8402350:	10c00035 	stwio	r3,0(r2)
		LCD_WR_DATA(0x0000);
 8402354:	0007883a 	mov	r3,zero
 8402358:	00800504 	movi	r2,20
 840235c:	10c00035 	stwio	r3,0(r2)
		LCD_WR_DATA(0x0034);
 8402360:	00c00d04 	movi	r3,52
 8402364:	00800504 	movi	r2,20
 8402368:	10c00035 	stwio	r3,0(r2)
		LCD_WR_DATA(0x0002);
 840236c:	00c00084 	movi	r3,2
 8402370:	00800504 	movi	r2,20
 8402374:	10c00035 	stwio	r3,0(r2)

	LCD_WR_REG(0x00F7);
 8402378:	00c03dc4 	movi	r3,247
 840237c:	00800404 	movi	r2,16
 8402380:	10c00035 	stwio	r3,0(r2)
		LCD_WR_DATA(0x0020);
 8402384:	00c00804 	movi	r3,32
 8402388:	00800504 	movi	r2,20
 840238c:	10c00035 	stwio	r3,0(r2)

	LCD_WR_REG(0x00EA);
 8402390:	00c03a84 	movi	r3,234
 8402394:	00800404 	movi	r2,16
 8402398:	10c00035 	stwio	r3,0(r2)
		LCD_WR_DATA(0x0000);
 840239c:	0007883a 	mov	r3,zero
 84023a0:	00800504 	movi	r2,20
 84023a4:	10c00035 	stwio	r3,0(r2)
		LCD_WR_DATA(0x0000);
 84023a8:	0007883a 	mov	r3,zero
 84023ac:	00800504 	movi	r2,20
 84023b0:	10c00035 	stwio	r3,0(r2)

	LCD_WR_REG(0x00B1);
 84023b4:	00c02c44 	movi	r3,177
 84023b8:	00800404 	movi	r2,16
 84023bc:	10c00035 	stwio	r3,0(r2)
		LCD_WR_DATA(0x0000);
 84023c0:	0007883a 	mov	r3,zero
 84023c4:	00800504 	movi	r2,20
 84023c8:	10c00035 	stwio	r3,0(r2)
		LCD_WR_DATA(0x001b);
 84023cc:	00c006c4 	movi	r3,27
 84023d0:	00800504 	movi	r2,20
 84023d4:	10c00035 	stwio	r3,0(r2)

	LCD_WR_REG(0x00B6);
 84023d8:	00c02d84 	movi	r3,182
 84023dc:	00800404 	movi	r2,16
 84023e0:	10c00035 	stwio	r3,0(r2)
		LCD_WR_DATA(0x000A);
 84023e4:	00c00284 	movi	r3,10
 84023e8:	00800504 	movi	r2,20
 84023ec:	10c00035 	stwio	r3,0(r2)
		LCD_WR_DATA(0x00A2);
 84023f0:	00c02884 	movi	r3,162
 84023f4:	00800504 	movi	r2,20
 84023f8:	10c00035 	stwio	r3,0(r2)

	LCD_WR_REG(0x00C0);    //Power control
 84023fc:	00c03004 	movi	r3,192
 8402400:	00800404 	movi	r2,16
 8402404:	10c00035 	stwio	r3,0(r2)
		LCD_WR_DATA(0x0005);   //VRH[5:0]
 8402408:	00c00144 	movi	r3,5
 840240c:	00800504 	movi	r2,20
 8402410:	10c00035 	stwio	r3,0(r2)

	LCD_WR_REG(0x00C1);    //Power control
 8402414:	00c03044 	movi	r3,193
 8402418:	00800404 	movi	r2,16
 840241c:	10c00035 	stwio	r3,0(r2)
		LCD_WR_DATA(0x0011);   //SAP[2:0];BT[3:0]
 8402420:	00c00444 	movi	r3,17
 8402424:	00800504 	movi	r2,20
 8402428:	10c00035 	stwio	r3,0(r2)

	LCD_WR_REG(0x00C5);    //VCM control
 840242c:	00c03144 	movi	r3,197
 8402430:	00800404 	movi	r2,16
 8402434:	10c00035 	stwio	r3,0(r2)
		LCD_WR_DATA(0x0045);       //3F
 8402438:	00c01144 	movi	r3,69
 840243c:	00800504 	movi	r2,20
 8402440:	10c00035 	stwio	r3,0(r2)
		LCD_WR_DATA(0x0045);       //3C
 8402444:	00c01144 	movi	r3,69
 8402448:	00800504 	movi	r2,20
 840244c:	10c00035 	stwio	r3,0(r2)

	 LCD_WR_REG(0x00C7);    //VCM control2
 8402450:	00c031c4 	movi	r3,199
 8402454:	00800404 	movi	r2,16
 8402458:	10c00035 	stwio	r3,0(r2)
		 LCD_WR_DATA(0X00a2);
 840245c:	00c02884 	movi	r3,162
 8402460:	00800504 	movi	r2,20
 8402464:	10c00035 	stwio	r3,0(r2)

	LCD_WR_REG(0x0036);    // Memory Access Control
 8402468:	00c00d84 	movi	r3,54
 840246c:	00800404 	movi	r2,16
 8402470:	10c00035 	stwio	r3,0(r2)
		LCD_WR_DATA(0x0008);//48
 8402474:	00c00204 	movi	r3,8
 8402478:	00800504 	movi	r2,20
 840247c:	10c00035 	stwio	r3,0(r2)

	LCD_WR_REG(0x00F2);    // 3Gamma Function Disable
 8402480:	00c03c84 	movi	r3,242
 8402484:	00800404 	movi	r2,16
 8402488:	10c00035 	stwio	r3,0(r2)
		LCD_WR_DATA(0x0000);
 840248c:	0007883a 	mov	r3,zero
 8402490:	00800504 	movi	r2,20
 8402494:	10c00035 	stwio	r3,0(r2)

	LCD_WR_REG(0x0026);    //Gamma curve selected
 8402498:	00c00984 	movi	r3,38
 840249c:	00800404 	movi	r2,16
 84024a0:	10c00035 	stwio	r3,0(r2)
		LCD_WR_DATA(0x0001);
 84024a4:	00c00044 	movi	r3,1
 84024a8:	00800504 	movi	r2,20
 84024ac:	10c00035 	stwio	r3,0(r2)

	LCD_WR_REG(0x00E0);    //Set Gamma
 84024b0:	00c03804 	movi	r3,224
 84024b4:	00800404 	movi	r2,16
 84024b8:	10c00035 	stwio	r3,0(r2)
		LCD_WR_DATA(0x000F);
 84024bc:	00c003c4 	movi	r3,15
 84024c0:	00800504 	movi	r2,20
 84024c4:	10c00035 	stwio	r3,0(r2)
		LCD_WR_DATA(0x0026);
 84024c8:	00c00984 	movi	r3,38
 84024cc:	00800504 	movi	r2,20
 84024d0:	10c00035 	stwio	r3,0(r2)
		LCD_WR_DATA(0x0024);
 84024d4:	00c00904 	movi	r3,36
 84024d8:	00800504 	movi	r2,20
 84024dc:	10c00035 	stwio	r3,0(r2)
		LCD_WR_DATA(0x000b);
 84024e0:	00c002c4 	movi	r3,11
 84024e4:	00800504 	movi	r2,20
 84024e8:	10c00035 	stwio	r3,0(r2)
		LCD_WR_DATA(0x000E);
 84024ec:	00c00384 	movi	r3,14
 84024f0:	00800504 	movi	r2,20
 84024f4:	10c00035 	stwio	r3,0(r2)
		LCD_WR_DATA(0x0008);
 84024f8:	00c00204 	movi	r3,8
 84024fc:	00800504 	movi	r2,20
 8402500:	10c00035 	stwio	r3,0(r2)
		LCD_WR_DATA(0x004b);
 8402504:	00c012c4 	movi	r3,75
 8402508:	00800504 	movi	r2,20
 840250c:	10c00035 	stwio	r3,0(r2)
		LCD_WR_DATA(0X00a8);
 8402510:	00c02a04 	movi	r3,168
 8402514:	00800504 	movi	r2,20
 8402518:	10c00035 	stwio	r3,0(r2)
		LCD_WR_DATA(0x003b);
 840251c:	00c00ec4 	movi	r3,59
 8402520:	00800504 	movi	r2,20
 8402524:	10c00035 	stwio	r3,0(r2)
		LCD_WR_DATA(0x000a);
 8402528:	00c00284 	movi	r3,10
 840252c:	00800504 	movi	r2,20
 8402530:	10c00035 	stwio	r3,0(r2)
		LCD_WR_DATA(0x0014);
 8402534:	00c00504 	movi	r3,20
 8402538:	00800504 	movi	r2,20
 840253c:	10c00035 	stwio	r3,0(r2)
		LCD_WR_DATA(0x0006);
 8402540:	00c00184 	movi	r3,6
 8402544:	00800504 	movi	r2,20
 8402548:	10c00035 	stwio	r3,0(r2)
		LCD_WR_DATA(0x0010);
 840254c:	00c00404 	movi	r3,16
 8402550:	00800504 	movi	r2,20
 8402554:	10c00035 	stwio	r3,0(r2)
		LCD_WR_DATA(0x0009);
 8402558:	00c00244 	movi	r3,9
 840255c:	00800504 	movi	r2,20
 8402560:	10c00035 	stwio	r3,0(r2)
		LCD_WR_DATA(0x0000);
 8402564:	0007883a 	mov	r3,zero
 8402568:	00800504 	movi	r2,20
 840256c:	10c00035 	stwio	r3,0(r2)

	LCD_WR_REG(0X00E1);    //Set Gamma
 8402570:	00c03844 	movi	r3,225
 8402574:	00800404 	movi	r2,16
 8402578:	10c00035 	stwio	r3,0(r2)
		LCD_WR_DATA(0x0000);
 840257c:	0007883a 	mov	r3,zero
 8402580:	00800504 	movi	r2,20
 8402584:	10c00035 	stwio	r3,0(r2)
		LCD_WR_DATA(0x001c);
 8402588:	00c00704 	movi	r3,28
 840258c:	00800504 	movi	r2,20
 8402590:	10c00035 	stwio	r3,0(r2)
		LCD_WR_DATA(0x0020);
 8402594:	00c00804 	movi	r3,32
 8402598:	00800504 	movi	r2,20
 840259c:	10c00035 	stwio	r3,0(r2)
		LCD_WR_DATA(0x0004);
 84025a0:	00c00104 	movi	r3,4
 84025a4:	00800504 	movi	r2,20
 84025a8:	10c00035 	stwio	r3,0(r2)
		LCD_WR_DATA(0x0010);
 84025ac:	00c00404 	movi	r3,16
 84025b0:	00800504 	movi	r2,20
 84025b4:	10c00035 	stwio	r3,0(r2)
		LCD_WR_DATA(0x0008);
 84025b8:	00c00204 	movi	r3,8
 84025bc:	00800504 	movi	r2,20
 84025c0:	10c00035 	stwio	r3,0(r2)
		LCD_WR_DATA(0x0034);
 84025c4:	00c00d04 	movi	r3,52
 84025c8:	00800504 	movi	r2,20
 84025cc:	10c00035 	stwio	r3,0(r2)
		LCD_WR_DATA(0x0047);
 84025d0:	00c011c4 	movi	r3,71
 84025d4:	00800504 	movi	r2,20
 84025d8:	10c00035 	stwio	r3,0(r2)
		LCD_WR_DATA(0x0044);
 84025dc:	00c01104 	movi	r3,68
 84025e0:	00800504 	movi	r2,20
 84025e4:	10c00035 	stwio	r3,0(r2)
		LCD_WR_DATA(0x0005);
 84025e8:	00c00144 	movi	r3,5
 84025ec:	00800504 	movi	r2,20
 84025f0:	10c00035 	stwio	r3,0(r2)
		LCD_WR_DATA(0x000b);
 84025f4:	00c002c4 	movi	r3,11
 84025f8:	00800504 	movi	r2,20
 84025fc:	10c00035 	stwio	r3,0(r2)
		LCD_WR_DATA(0x0009);
 8402600:	00c00244 	movi	r3,9
 8402604:	00800504 	movi	r2,20
 8402608:	10c00035 	stwio	r3,0(r2)
		LCD_WR_DATA(0x002f);
 840260c:	00c00bc4 	movi	r3,47
 8402610:	00800504 	movi	r2,20
 8402614:	10c00035 	stwio	r3,0(r2)
		LCD_WR_DATA(0x0036);
 8402618:	00c00d84 	movi	r3,54
 840261c:	00800504 	movi	r2,20
 8402620:	10c00035 	stwio	r3,0(r2)
		LCD_WR_DATA(0x000f);
 8402624:	00c003c4 	movi	r3,15
 8402628:	00800504 	movi	r2,20
 840262c:	10c00035 	stwio	r3,0(r2)

	LCD_WR_REG(0x002A);
 8402630:	00c00a84 	movi	r3,42
 8402634:	00800404 	movi	r2,16
 8402638:	10c00035 	stwio	r3,0(r2)
		LCD_WR_DATA(0x0000);
 840263c:	0007883a 	mov	r3,zero
 8402640:	00800504 	movi	r2,20
 8402644:	10c00035 	stwio	r3,0(r2)
		LCD_WR_DATA(0x0000);
 8402648:	0007883a 	mov	r3,zero
 840264c:	00800504 	movi	r2,20
 8402650:	10c00035 	stwio	r3,0(r2)
		LCD_WR_DATA(0x0000);
 8402654:	0007883a 	mov	r3,zero
 8402658:	00800504 	movi	r2,20
 840265c:	10c00035 	stwio	r3,0(r2)
		LCD_WR_DATA(0x00ef);
 8402660:	00c03bc4 	movi	r3,239
 8402664:	00800504 	movi	r2,20
 8402668:	10c00035 	stwio	r3,0(r2)

	 LCD_WR_REG(0x002B);
 840266c:	00c00ac4 	movi	r3,43
 8402670:	00800404 	movi	r2,16
 8402674:	10c00035 	stwio	r3,0(r2)
		LCD_WR_DATA(0x0000);
 8402678:	0007883a 	mov	r3,zero
 840267c:	00800504 	movi	r2,20
 8402680:	10c00035 	stwio	r3,0(r2)
		LCD_WR_DATA(0x0000);
 8402684:	0007883a 	mov	r3,zero
 8402688:	00800504 	movi	r2,20
 840268c:	10c00035 	stwio	r3,0(r2)
		LCD_WR_DATA(0x0001);
 8402690:	00c00044 	movi	r3,1
 8402694:	00800504 	movi	r2,20
 8402698:	10c00035 	stwio	r3,0(r2)
		LCD_WR_DATA(0x003f);
 840269c:	00c00fc4 	movi	r3,63
 84026a0:	00800504 	movi	r2,20
 84026a4:	10c00035 	stwio	r3,0(r2)

	LCD_WR_REG(0x003A);
 84026a8:	00c00e84 	movi	r3,58
 84026ac:	00800404 	movi	r2,16
 84026b0:	10c00035 	stwio	r3,0(r2)
		LCD_WR_DATA(0x0055);
 84026b4:	00c01544 	movi	r3,85
 84026b8:	00800504 	movi	r2,20
 84026bc:	10c00035 	stwio	r3,0(r2)

	LCD_WR_REG(0x00f6);
 84026c0:	00c03d84 	movi	r3,246
 84026c4:	00800404 	movi	r2,16
 84026c8:	10c00035 	stwio	r3,0(r2)
		LCD_WR_DATA(0x0001);
 84026cc:	00c00044 	movi	r3,1
 84026d0:	00800504 	movi	r2,20
 84026d4:	10c00035 	stwio	r3,0(r2)
		LCD_WR_DATA(0x0030);
 84026d8:	00c00c04 	movi	r3,48
 84026dc:	00800504 	movi	r2,20
 84026e0:	10c00035 	stwio	r3,0(r2)
		LCD_WR_DATA(0x0000);
 84026e4:	0007883a 	mov	r3,zero
 84026e8:	00800504 	movi	r2,20
 84026ec:	10c00035 	stwio	r3,0(r2)

	LCD_WR_REG(0x0029); //display on
 84026f0:	00c00a44 	movi	r3,41
 84026f4:	00800404 	movi	r2,16
 84026f8:	10c00035 	stwio	r3,0(r2)

	LCD_WR_REG(0x002c);    // 0x2C
 84026fc:	00c00b04 	movi	r3,44
 8402700:	00800404 	movi	r2,16
 8402704:	10c00035 	stwio	r3,0(r2)

}
 8402708:	0001883a 	nop
 840270c:	e037883a 	mov	sp,fp
 8402710:	dfc00117 	ldw	ra,4(sp)
 8402714:	df000017 	ldw	fp,0(sp)
 8402718:	dec00204 	addi	sp,sp,8
 840271c:	f800283a 	ret

08402720 <LCD_Pattern_Horizon>:


void LCD_Pattern_Horizon(void)
{
 8402720:	defffc04 	addi	sp,sp,-16
 8402724:	dfc00315 	stw	ra,12(sp)
 8402728:	df000215 	stw	fp,8(sp)
 840272c:	df000204 	addi	fp,sp,8
        alt_u32 index=0;
 8402730:	e03ffe15 	stw	zero,-8(fp)
        alt_u16  data=0;
 8402734:	e03fff0d 	sth	zero,-4(fp)
        LCD_SetCursor(0x00,0x0000);
 8402738:	000b883a 	mov	r5,zero
 840273c:	0009883a 	mov	r4,zero
 8402740:	84020b00 	call	84020b0 <LCD_SetCursor>
        data=0x0000;
 8402744:	e03fff0d 	sth	zero,-4(fp)
        for(index=0;index<240*80;index++)
 8402748:	e03ffe15 	stw	zero,-8(fp)
 840274c:	00000606 	br	8402768 <LCD_Pattern_Horizon+0x48>
        {
        	LCD_WR_DATA(data);
 8402750:	e0ffff0b 	ldhu	r3,-4(fp)
 8402754:	00800504 	movi	r2,20
 8402758:	10c00035 	stwio	r3,0(r2)
{
        alt_u32 index=0;
        alt_u16  data=0;
        LCD_SetCursor(0x00,0x0000);
        data=0x0000;
        for(index=0;index<240*80;index++)
 840275c:	e0bffe17 	ldw	r2,-8(fp)
 8402760:	10800044 	addi	r2,r2,1
 8402764:	e0bffe15 	stw	r2,-8(fp)
 8402768:	e0bffe17 	ldw	r2,-8(fp)
 840276c:	1092c030 	cmpltui	r2,r2,19200
 8402770:	103ff71e 	bne	r2,zero,8402750 <__alt_data_end+0xfc402750>
        {
        	LCD_WR_DATA(data);
        }
        LCD_SetCursor(0x00,80);
 8402774:	01401404 	movi	r5,80
 8402778:	0009883a 	mov	r4,zero
 840277c:	84020b00 	call	84020b0 <LCD_SetCursor>
        data=RED;
 8402780:	00be0004 	movi	r2,-2048
 8402784:	e0bfff0d 	sth	r2,-4(fp)
		for(index=0;index<240*80;index++)
 8402788:	e03ffe15 	stw	zero,-8(fp)
 840278c:	00000606 	br	84027a8 <LCD_Pattern_Horizon+0x88>
		{
			LCD_WR_DATA(data);
 8402790:	e0ffff0b 	ldhu	r3,-4(fp)
 8402794:	00800504 	movi	r2,20
 8402798:	10c00035 	stwio	r3,0(r2)
        {
        	LCD_WR_DATA(data);
        }
        LCD_SetCursor(0x00,80);
        data=RED;
		for(index=0;index<240*80;index++)
 840279c:	e0bffe17 	ldw	r2,-8(fp)
 84027a0:	10800044 	addi	r2,r2,1
 84027a4:	e0bffe15 	stw	r2,-8(fp)
 84027a8:	e0bffe17 	ldw	r2,-8(fp)
 84027ac:	1092c030 	cmpltui	r2,r2,19200
 84027b0:	103ff71e 	bne	r2,zero,8402790 <__alt_data_end+0xfc402790>
		{
			LCD_WR_DATA(data);
		}
	    LCD_SetCursor(0x00,160);
 84027b4:	01402804 	movi	r5,160
 84027b8:	0009883a 	mov	r4,zero
 84027bc:	84020b00 	call	84020b0 <LCD_SetCursor>
		data=GREEN;
 84027c0:	0081f804 	movi	r2,2016
 84027c4:	e0bfff0d 	sth	r2,-4(fp)
		for(index=0;index<240*80;index++)
 84027c8:	e03ffe15 	stw	zero,-8(fp)
 84027cc:	00000606 	br	84027e8 <LCD_Pattern_Horizon+0xc8>
		{
			LCD_WR_DATA(data);
 84027d0:	e0ffff0b 	ldhu	r3,-4(fp)
 84027d4:	00800504 	movi	r2,20
 84027d8:	10c00035 	stwio	r3,0(r2)
		{
			LCD_WR_DATA(data);
		}
	    LCD_SetCursor(0x00,160);
		data=GREEN;
		for(index=0;index<240*80;index++)
 84027dc:	e0bffe17 	ldw	r2,-8(fp)
 84027e0:	10800044 	addi	r2,r2,1
 84027e4:	e0bffe15 	stw	r2,-8(fp)
 84027e8:	e0bffe17 	ldw	r2,-8(fp)
 84027ec:	1092c030 	cmpltui	r2,r2,19200
 84027f0:	103ff71e 	bne	r2,zero,84027d0 <__alt_data_end+0xfc4027d0>
		{
			LCD_WR_DATA(data);
		}
		LCD_SetCursor(0x00,240);
 84027f4:	01403c04 	movi	r5,240
 84027f8:	0009883a 	mov	r4,zero
 84027fc:	84020b00 	call	84020b0 <LCD_SetCursor>
		data=BLUE;
 8402800:	008007c4 	movi	r2,31
 8402804:	e0bfff0d 	sth	r2,-4(fp)
		for(index=0;index<240*80;index++)
 8402808:	e03ffe15 	stw	zero,-8(fp)
 840280c:	00000606 	br	8402828 <LCD_Pattern_Horizon+0x108>
		{
			LCD_WR_DATA(data);
 8402810:	e0ffff0b 	ldhu	r3,-4(fp)
 8402814:	00800504 	movi	r2,20
 8402818:	10c00035 	stwio	r3,0(r2)
		{
			LCD_WR_DATA(data);
		}
		LCD_SetCursor(0x00,240);
		data=BLUE;
		for(index=0;index<240*80;index++)
 840281c:	e0bffe17 	ldw	r2,-8(fp)
 8402820:	10800044 	addi	r2,r2,1
 8402824:	e0bffe15 	stw	r2,-8(fp)
 8402828:	e0bffe17 	ldw	r2,-8(fp)
 840282c:	1092c030 	cmpltui	r2,r2,19200
 8402830:	103ff71e 	bne	r2,zero,8402810 <__alt_data_end+0xfc402810>
		{
			LCD_WR_DATA(data);
		}
}
 8402834:	0001883a 	nop
 8402838:	e037883a 	mov	sp,fp
 840283c:	dfc00117 	ldw	ra,4(sp)
 8402840:	df000017 	ldw	fp,0(sp)
 8402844:	dec00204 	addi	sp,sp,8
 8402848:	f800283a 	ret

0840284c <LCD_Pattern_Vertical>:

void LCD_Pattern_Vertical(void)
{
 840284c:	defff804 	addi	sp,sp,-32
 8402850:	dfc00715 	stw	ra,28(sp)
 8402854:	df000615 	stw	fp,24(sp)
 8402858:	df000604 	addi	fp,sp,24
        int i,j,m;
        alt_u16  data=0;
 840285c:	e03ffd0d 	sth	zero,-12(fp)
        alt_u16  color[4]={WHITE,BLUE,GREEN,RED};
 8402860:	00bfffc4 	movi	r2,-1
 8402864:	e0bffd8d 	sth	r2,-10(fp)
 8402868:	008007c4 	movi	r2,31
 840286c:	e0bffe0d 	sth	r2,-8(fp)
 8402870:	0081f804 	movi	r2,2016
 8402874:	e0bffe8d 	sth	r2,-6(fp)
 8402878:	00be0004 	movi	r2,-2048
 840287c:	e0bfff0d 	sth	r2,-4(fp)
        LCD_SetCursor(0x00,0x0000);
 8402880:	000b883a 	mov	r5,zero
 8402884:	0009883a 	mov	r4,zero
 8402888:	84020b00 	call	84020b0 <LCD_SetCursor>
        for(m=0;m<320;m++)
 840288c:	e03ffc15 	stw	zero,-16(fp)
 8402890:	00001d06 	br	8402908 <LCD_Pattern_Vertical+0xbc>
        {
			for(i=0;i<4;i++)
 8402894:	e03ffa15 	stw	zero,-24(fp)
 8402898:	00001506 	br	84028f0 <LCD_Pattern_Vertical+0xa4>
			{
				data=color[i];
 840289c:	e0bffa17 	ldw	r2,-24(fp)
 84028a0:	1085883a 	add	r2,r2,r2
 84028a4:	e0fffa04 	addi	r3,fp,-24
 84028a8:	1885883a 	add	r2,r3,r2
 84028ac:	10800384 	addi	r2,r2,14
 84028b0:	1080000b 	ldhu	r2,0(r2)
 84028b4:	e0bffd0d 	sth	r2,-12(fp)
				for(j=0;j<60;j++)
 84028b8:	e03ffb15 	stw	zero,-20(fp)
 84028bc:	00000606 	br	84028d8 <LCD_Pattern_Vertical+0x8c>
				{
					LCD_WR_DATA(data);
 84028c0:	e0fffd0b 	ldhu	r3,-12(fp)
 84028c4:	00800504 	movi	r2,20
 84028c8:	10c00035 	stwio	r3,0(r2)
        for(m=0;m<320;m++)
        {
			for(i=0;i<4;i++)
			{
				data=color[i];
				for(j=0;j<60;j++)
 84028cc:	e0bffb17 	ldw	r2,-20(fp)
 84028d0:	10800044 	addi	r2,r2,1
 84028d4:	e0bffb15 	stw	r2,-20(fp)
 84028d8:	e0bffb17 	ldw	r2,-20(fp)
 84028dc:	10800f10 	cmplti	r2,r2,60
 84028e0:	103ff71e 	bne	r2,zero,84028c0 <__alt_data_end+0xfc4028c0>
        alt_u16  data=0;
        alt_u16  color[4]={WHITE,BLUE,GREEN,RED};
        LCD_SetCursor(0x00,0x0000);
        for(m=0;m<320;m++)
        {
			for(i=0;i<4;i++)
 84028e4:	e0bffa17 	ldw	r2,-24(fp)
 84028e8:	10800044 	addi	r2,r2,1
 84028ec:	e0bffa15 	stw	r2,-24(fp)
 84028f0:	e0bffa17 	ldw	r2,-24(fp)
 84028f4:	10800110 	cmplti	r2,r2,4
 84028f8:	103fe81e 	bne	r2,zero,840289c <__alt_data_end+0xfc40289c>
{
        int i,j,m;
        alt_u16  data=0;
        alt_u16  color[4]={WHITE,BLUE,GREEN,RED};
        LCD_SetCursor(0x00,0x0000);
        for(m=0;m<320;m++)
 84028fc:	e0bffc17 	ldw	r2,-16(fp)
 8402900:	10800044 	addi	r2,r2,1
 8402904:	e0bffc15 	stw	r2,-16(fp)
 8402908:	e0bffc17 	ldw	r2,-16(fp)
 840290c:	10805010 	cmplti	r2,r2,320
 8402910:	103fe01e 	bne	r2,zero,8402894 <__alt_data_end+0xfc402894>
				{
					LCD_WR_DATA(data);
				}
			}
        }
}
 8402914:	0001883a 	nop
 8402918:	e037883a 	mov	sp,fp
 840291c:	dfc00117 	ldw	ra,4(sp)
 8402920:	df000017 	ldw	fp,0(sp)
 8402924:	dec00204 	addi	sp,sp,8
 8402928:	f800283a 	ret

0840292c <IsPtInRect>:

//#define BOUND(x, mini, maxi) ((x<(mini)?(mini):( (x>(maxi))?(maxi):(x) )))

//#define COPY_POINT(pt_des, pt_src)  memcpy(&pt_des, &pt_src,sizeof(POINT))

bool IsPtInRect(POINT *pt, RECT *rc){
 840292c:	defffc04 	addi	sp,sp,-16
 8402930:	df000315 	stw	fp,12(sp)
 8402934:	df000304 	addi	fp,sp,12
 8402938:	e13ffe15 	stw	r4,-8(fp)
 840293c:	e17fff15 	stw	r5,-4(fp)
    bool bYes = FALSE;
 8402940:	e03ffd15 	stw	zero,-12(fp)
    
    if (pt->x >= rc->left && pt->x <= rc->right && pt->y >= rc->top && pt->y <= rc->bottom)
 8402944:	e0bffe17 	ldw	r2,-8(fp)
 8402948:	10c00017 	ldw	r3,0(r2)
 840294c:	e0bfff17 	ldw	r2,-4(fp)
 8402950:	10800017 	ldw	r2,0(r2)
 8402954:	18801116 	blt	r3,r2,840299c <IsPtInRect+0x70>
 8402958:	e0bffe17 	ldw	r2,-8(fp)
 840295c:	10800017 	ldw	r2,0(r2)
 8402960:	e0ffff17 	ldw	r3,-4(fp)
 8402964:	18c00117 	ldw	r3,4(r3)
 8402968:	18800c16 	blt	r3,r2,840299c <IsPtInRect+0x70>
 840296c:	e0bffe17 	ldw	r2,-8(fp)
 8402970:	10c00117 	ldw	r3,4(r2)
 8402974:	e0bfff17 	ldw	r2,-4(fp)
 8402978:	10800217 	ldw	r2,8(r2)
 840297c:	18800716 	blt	r3,r2,840299c <IsPtInRect+0x70>
 8402980:	e0bffe17 	ldw	r2,-8(fp)
 8402984:	10800117 	ldw	r2,4(r2)
 8402988:	e0ffff17 	ldw	r3,-4(fp)
 840298c:	18c00317 	ldw	r3,12(r3)
 8402990:	18800216 	blt	r3,r2,840299c <IsPtInRect+0x70>
        bYes = TRUE;
 8402994:	00800044 	movi	r2,1
 8402998:	e0bffd15 	stw	r2,-12(fp)
    
    return bYes;
 840299c:	e0bffd17 	ldw	r2,-12(fp)
}
 84029a0:	e037883a 	mov	sp,fp
 84029a4:	df000017 	ldw	fp,0(sp)
 84029a8:	dec00104 	addi	sp,sp,4
 84029ac:	f800283a 	ret

084029b0 <PtSet>:

void PtSet(POINT *pt, int x, int y){
 84029b0:	defffc04 	addi	sp,sp,-16
 84029b4:	df000315 	stw	fp,12(sp)
 84029b8:	df000304 	addi	fp,sp,12
 84029bc:	e13ffd15 	stw	r4,-12(fp)
 84029c0:	e17ffe15 	stw	r5,-8(fp)
 84029c4:	e1bfff15 	stw	r6,-4(fp)
    pt->x = x;
 84029c8:	e0bffd17 	ldw	r2,-12(fp)
 84029cc:	e0fffe17 	ldw	r3,-8(fp)
 84029d0:	10c00015 	stw	r3,0(r2)
    pt->y = y;
 84029d4:	e0bffd17 	ldw	r2,-12(fp)
 84029d8:	e0ffff17 	ldw	r3,-4(fp)
 84029dc:	10c00115 	stw	r3,4(r2)
}
 84029e0:	0001883a 	nop
 84029e4:	e037883a 	mov	sp,fp
 84029e8:	df000017 	ldw	fp,0(sp)
 84029ec:	dec00104 	addi	sp,sp,4
 84029f0:	f800283a 	ret

084029f4 <RectSet>:

void RectSet(RECT *rc, int left, int right, int top, int bottom){
 84029f4:	defffb04 	addi	sp,sp,-20
 84029f8:	df000415 	stw	fp,16(sp)
 84029fc:	df000404 	addi	fp,sp,16
 8402a00:	e13ffc15 	stw	r4,-16(fp)
 8402a04:	e17ffd15 	stw	r5,-12(fp)
 8402a08:	e1bffe15 	stw	r6,-8(fp)
 8402a0c:	e1ffff15 	stw	r7,-4(fp)
    rc->left = left;
 8402a10:	e0bffc17 	ldw	r2,-16(fp)
 8402a14:	e0fffd17 	ldw	r3,-12(fp)
 8402a18:	10c00015 	stw	r3,0(r2)
    rc->right = right;
 8402a1c:	e0bffc17 	ldw	r2,-16(fp)
 8402a20:	e0fffe17 	ldw	r3,-8(fp)
 8402a24:	10c00115 	stw	r3,4(r2)
    rc->top = top;
 8402a28:	e0bffc17 	ldw	r2,-16(fp)
 8402a2c:	e0ffff17 	ldw	r3,-4(fp)
 8402a30:	10c00215 	stw	r3,8(r2)
    rc->bottom = bottom;
 8402a34:	e0bffc17 	ldw	r2,-16(fp)
 8402a38:	e0c00117 	ldw	r3,4(fp)
 8402a3c:	10c00315 	stw	r3,12(r2)
}
 8402a40:	0001883a 	nop
 8402a44:	e037883a 	mov	sp,fp
 8402a48:	df000017 	ldw	fp,0(sp)
 8402a4c:	dec00104 	addi	sp,sp,4
 8402a50:	f800283a 	ret

08402a54 <RectInflate>:

void RectInflate(RECT *rc, int x, int y){
 8402a54:	defffc04 	addi	sp,sp,-16
 8402a58:	df000315 	stw	fp,12(sp)
 8402a5c:	df000304 	addi	fp,sp,12
 8402a60:	e13ffd15 	stw	r4,-12(fp)
 8402a64:	e17ffe15 	stw	r5,-8(fp)
 8402a68:	e1bfff15 	stw	r6,-4(fp)
    rc->left -= x;
 8402a6c:	e0bffd17 	ldw	r2,-12(fp)
 8402a70:	10c00017 	ldw	r3,0(r2)
 8402a74:	e0bffe17 	ldw	r2,-8(fp)
 8402a78:	1887c83a 	sub	r3,r3,r2
 8402a7c:	e0bffd17 	ldw	r2,-12(fp)
 8402a80:	10c00015 	stw	r3,0(r2)
    rc->right += x;
 8402a84:	e0bffd17 	ldw	r2,-12(fp)
 8402a88:	10c00117 	ldw	r3,4(r2)
 8402a8c:	e0bffe17 	ldw	r2,-8(fp)
 8402a90:	1887883a 	add	r3,r3,r2
 8402a94:	e0bffd17 	ldw	r2,-12(fp)
 8402a98:	10c00115 	stw	r3,4(r2)
    rc->top -= y;
 8402a9c:	e0bffd17 	ldw	r2,-12(fp)
 8402aa0:	10c00217 	ldw	r3,8(r2)
 8402aa4:	e0bfff17 	ldw	r2,-4(fp)
 8402aa8:	1887c83a 	sub	r3,r3,r2
 8402aac:	e0bffd17 	ldw	r2,-12(fp)
 8402ab0:	10c00215 	stw	r3,8(r2)
    rc->bottom += y;
 8402ab4:	e0bffd17 	ldw	r2,-12(fp)
 8402ab8:	10c00317 	ldw	r3,12(r2)
 8402abc:	e0bfff17 	ldw	r2,-4(fp)
 8402ac0:	1887883a 	add	r3,r3,r2
 8402ac4:	e0bffd17 	ldw	r2,-12(fp)
 8402ac8:	10c00315 	stw	r3,12(r2)
}
 8402acc:	0001883a 	nop
 8402ad0:	e037883a 	mov	sp,fp
 8402ad4:	df000017 	ldw	fp,0(sp)
 8402ad8:	dec00104 	addi	sp,sp,4
 8402adc:	f800283a 	ret

08402ae0 <RectOffset>:

void RectOffset(RECT *rc, int x, int y){
 8402ae0:	defffc04 	addi	sp,sp,-16
 8402ae4:	df000315 	stw	fp,12(sp)
 8402ae8:	df000304 	addi	fp,sp,12
 8402aec:	e13ffd15 	stw	r4,-12(fp)
 8402af0:	e17ffe15 	stw	r5,-8(fp)
 8402af4:	e1bfff15 	stw	r6,-4(fp)
    rc->left += x;
 8402af8:	e0bffd17 	ldw	r2,-12(fp)
 8402afc:	10c00017 	ldw	r3,0(r2)
 8402b00:	e0bffe17 	ldw	r2,-8(fp)
 8402b04:	1887883a 	add	r3,r3,r2
 8402b08:	e0bffd17 	ldw	r2,-12(fp)
 8402b0c:	10c00015 	stw	r3,0(r2)
    rc->right += x;
 8402b10:	e0bffd17 	ldw	r2,-12(fp)
 8402b14:	10c00117 	ldw	r3,4(r2)
 8402b18:	e0bffe17 	ldw	r2,-8(fp)
 8402b1c:	1887883a 	add	r3,r3,r2
 8402b20:	e0bffd17 	ldw	r2,-12(fp)
 8402b24:	10c00115 	stw	r3,4(r2)
    rc->top += y;
 8402b28:	e0bffd17 	ldw	r2,-12(fp)
 8402b2c:	10c00217 	ldw	r3,8(r2)
 8402b30:	e0bfff17 	ldw	r2,-4(fp)
 8402b34:	1887883a 	add	r3,r3,r2
 8402b38:	e0bffd17 	ldw	r2,-12(fp)
 8402b3c:	10c00215 	stw	r3,8(r2)
    rc->bottom += y;
 8402b40:	e0bffd17 	ldw	r2,-12(fp)
 8402b44:	10c00317 	ldw	r3,12(r2)
 8402b48:	e0bfff17 	ldw	r2,-4(fp)
 8402b4c:	1887883a 	add	r3,r3,r2
 8402b50:	e0bffd17 	ldw	r2,-12(fp)
 8402b54:	10c00315 	stw	r3,12(r2)
}
 8402b58:	0001883a 	nop
 8402b5c:	e037883a 	mov	sp,fp
 8402b60:	df000017 	ldw	fp,0(sp)
 8402b64:	dec00104 	addi	sp,sp,4
 8402b68:	f800283a 	ret

08402b6c <RectCopy>:

void RectCopy(RECT *rcDes, RECT *rcSrc){
 8402b6c:	defffd04 	addi	sp,sp,-12
 8402b70:	df000215 	stw	fp,8(sp)
 8402b74:	df000204 	addi	fp,sp,8
 8402b78:	e13ffe15 	stw	r4,-8(fp)
 8402b7c:	e17fff15 	stw	r5,-4(fp)
    rcDes->left = rcSrc->left;
 8402b80:	e0bfff17 	ldw	r2,-4(fp)
 8402b84:	10c00017 	ldw	r3,0(r2)
 8402b88:	e0bffe17 	ldw	r2,-8(fp)
 8402b8c:	10c00015 	stw	r3,0(r2)
    rcDes->right = rcSrc->right;
 8402b90:	e0bfff17 	ldw	r2,-4(fp)
 8402b94:	10c00117 	ldw	r3,4(r2)
 8402b98:	e0bffe17 	ldw	r2,-8(fp)
 8402b9c:	10c00115 	stw	r3,4(r2)
    rcDes->top = rcSrc->top;
 8402ba0:	e0bfff17 	ldw	r2,-4(fp)
 8402ba4:	10c00217 	ldw	r3,8(r2)
 8402ba8:	e0bffe17 	ldw	r2,-8(fp)
 8402bac:	10c00215 	stw	r3,8(r2)
    rcDes->bottom = rcSrc->bottom;
 8402bb0:	e0bfff17 	ldw	r2,-4(fp)
 8402bb4:	10c00317 	ldw	r3,12(r2)
 8402bb8:	e0bffe17 	ldw	r2,-8(fp)
 8402bbc:	10c00315 	stw	r3,12(r2)
}
 8402bc0:	0001883a 	nop
 8402bc4:	e037883a 	mov	sp,fp
 8402bc8:	df000017 	ldw	fp,0(sp)
 8402bcc:	dec00104 	addi	sp,sp,4
 8402bd0:	f800283a 	ret

08402bd4 <RectWidth>:

int RectWidth(RECT *rc){
 8402bd4:	defffe04 	addi	sp,sp,-8
 8402bd8:	df000115 	stw	fp,4(sp)
 8402bdc:	df000104 	addi	fp,sp,4
 8402be0:	e13fff15 	stw	r4,-4(fp)
    return (rc->right-rc->left);
 8402be4:	e0bfff17 	ldw	r2,-4(fp)
 8402be8:	10c00117 	ldw	r3,4(r2)
 8402bec:	e0bfff17 	ldw	r2,-4(fp)
 8402bf0:	10800017 	ldw	r2,0(r2)
 8402bf4:	1885c83a 	sub	r2,r3,r2
}
 8402bf8:	e037883a 	mov	sp,fp
 8402bfc:	df000017 	ldw	fp,0(sp)
 8402c00:	dec00104 	addi	sp,sp,4
 8402c04:	f800283a 	ret

08402c08 <RectHeight>:

int RectHeight(RECT *rc){
 8402c08:	defffe04 	addi	sp,sp,-8
 8402c0c:	df000115 	stw	fp,4(sp)
 8402c10:	df000104 	addi	fp,sp,4
 8402c14:	e13fff15 	stw	r4,-4(fp)
    return (rc->bottom-rc->top);
 8402c18:	e0bfff17 	ldw	r2,-4(fp)
 8402c1c:	10c00317 	ldw	r3,12(r2)
 8402c20:	e0bfff17 	ldw	r2,-4(fp)
 8402c24:	10800217 	ldw	r2,8(r2)
 8402c28:	1885c83a 	sub	r2,r3,r2
}
 8402c2c:	e037883a 	mov	sp,fp
 8402c30:	df000017 	ldw	fp,0(sp)
 8402c34:	dec00104 	addi	sp,sp,4
 8402c38:	f800283a 	ret

08402c3c <PtDistance>:

int PtDistance(POINT *pt1, POINT *pt2){
 8402c3c:	defff904 	addi	sp,sp,-28
 8402c40:	dfc00615 	stw	ra,24(sp)
 8402c44:	df000515 	stw	fp,20(sp)
 8402c48:	df000504 	addi	fp,sp,20
 8402c4c:	e13ffe15 	stw	r4,-8(fp)
 8402c50:	e17fff15 	stw	r5,-4(fp)
    int nDistance;
    int a, b;
    a = pt1->x - pt2->x;
 8402c54:	e0bffe17 	ldw	r2,-8(fp)
 8402c58:	10c00017 	ldw	r3,0(r2)
 8402c5c:	e0bfff17 	ldw	r2,-4(fp)
 8402c60:	10800017 	ldw	r2,0(r2)
 8402c64:	1885c83a 	sub	r2,r3,r2
 8402c68:	e0bffb15 	stw	r2,-20(fp)
    b = pt1->y - pt2->y;
 8402c6c:	e0bffe17 	ldw	r2,-8(fp)
 8402c70:	10c00117 	ldw	r3,4(r2)
 8402c74:	e0bfff17 	ldw	r2,-4(fp)
 8402c78:	10800117 	ldw	r2,4(r2)
 8402c7c:	1885c83a 	sub	r2,r3,r2
 8402c80:	e0bffc15 	stw	r2,-16(fp)
    nDistance = a*a + b*b;
 8402c84:	e0fffb17 	ldw	r3,-20(fp)
 8402c88:	e0bffb17 	ldw	r2,-20(fp)
 8402c8c:	1887383a 	mul	r3,r3,r2
 8402c90:	e13ffc17 	ldw	r4,-16(fp)
 8402c94:	e0bffc17 	ldw	r2,-16(fp)
 8402c98:	2085383a 	mul	r2,r4,r2
 8402c9c:	1885883a 	add	r2,r3,r2
 8402ca0:	e0bffd15 	stw	r2,-12(fp)
    nDistance = sqrt(nDistance);
 8402ca4:	e13ffd17 	ldw	r4,-12(fp)
 8402ca8:	84095580 	call	8409558 <__floatsidf>
 8402cac:	100b883a 	mov	r5,r2
 8402cb0:	180d883a 	mov	r6,r3
 8402cb4:	2809883a 	mov	r4,r5
 8402cb8:	300b883a 	mov	r5,r6
 8402cbc:	8406b780 	call	8406b78 <sqrt>
 8402cc0:	100b883a 	mov	r5,r2
 8402cc4:	180d883a 	mov	r6,r3
 8402cc8:	2809883a 	mov	r4,r5
 8402ccc:	300b883a 	mov	r5,r6
 8402cd0:	84094d80 	call	84094d8 <__fixdfsi>
 8402cd4:	e0bffd15 	stw	r2,-12(fp)
    
    return nDistance;
 8402cd8:	e0bffd17 	ldw	r2,-12(fp)
}
 8402cdc:	e037883a 	mov	sp,fp
 8402ce0:	dfc00117 	ldw	ra,4(sp)
 8402ce4:	df000017 	ldw	fp,0(sp)
 8402ce8:	dec00204 	addi	sp,sp,8
 8402cec:	f800283a 	ret

08402cf0 <PtCopy>:

void PtCopy(POINT *ptDes, POINT *ptSrc){
 8402cf0:	defffd04 	addi	sp,sp,-12
 8402cf4:	df000215 	stw	fp,8(sp)
 8402cf8:	df000204 	addi	fp,sp,8
 8402cfc:	e13ffe15 	stw	r4,-8(fp)
 8402d00:	e17fff15 	stw	r5,-4(fp)
    ptDes->x = ptSrc->x;
 8402d04:	e0bfff17 	ldw	r2,-4(fp)
 8402d08:	10c00017 	ldw	r3,0(r2)
 8402d0c:	e0bffe17 	ldw	r2,-8(fp)
 8402d10:	10c00015 	stw	r3,0(r2)
    ptDes->y = ptSrc->y;
 8402d14:	e0bfff17 	ldw	r2,-4(fp)
 8402d18:	10c00117 	ldw	r3,4(r2)
 8402d1c:	e0bffe17 	ldw	r2,-8(fp)
 8402d20:	10c00115 	stw	r3,4(r2)
}
 8402d24:	0001883a 	nop
 8402d28:	e037883a 	mov	sp,fp
 8402d2c:	df000017 	ldw	fp,0(sp)
 8402d30:	dec00104 	addi	sp,sp,4
 8402d34:	f800283a 	ret

08402d38 <GUI_ShowWelcome>:

#include "gui.h"
#include "simple_graphics.h"


void GUI_ShowWelcome(alt_video_display *pDisplay){
 8402d38:	defff904 	addi	sp,sp,-28
 8402d3c:	dfc00615 	stw	ra,24(sp)
 8402d40:	df000515 	stw	fp,20(sp)
 8402d44:	df000504 	addi	fp,sp,20
 8402d48:	e13fff15 	stw	r4,-4(fp)
	int x, y;

	x = 7;
 8402d4c:	008001c4 	movi	r2,7
 8402d50:	e0bffd15 	stw	r2,-12(fp)
	y = pDisplay->height / 2 - 10;
 8402d54:	e0bfff17 	ldw	r2,-4(fp)
 8402d58:	10800217 	ldw	r2,8(r2)
 8402d5c:	1006d7fa 	srli	r3,r2,31
 8402d60:	1885883a 	add	r2,r3,r2
 8402d64:	1005d07a 	srai	r2,r2,1
 8402d68:	10bffd84 	addi	r2,r2,-10
 8402d6c:	e0bffe15 	stw	r2,-8(fp)

	vid_print_string_alpha(x, y, BLUE_24, BLACK_24, tahomabold_32, "Math Training");
 8402d70:	008210b4 	movhi	r2,2114
 8402d74:	10bc2204 	addi	r2,r2,-3960
 8402d78:	d8800115 	stw	r2,4(sp)
 8402d7c:	00821134 	movhi	r2,2116
 8402d80:	10a69804 	addi	r2,r2,-26016
 8402d84:	d8800015 	stw	r2,0(sp)
 8402d88:	000f883a 	mov	r7,zero
 8402d8c:	01803fc4 	movi	r6,255
 8402d90:	e17ffe17 	ldw	r5,-8(fp)
 8402d94:	e13ffd17 	ldw	r4,-12(fp)
 8402d98:	84057780 	call	8405778 <vid_print_string_alpha>

}
 8402d9c:	0001883a 	nop
 8402da0:	e037883a 	mov	sp,fp
 8402da4:	dfc00117 	ldw	ra,4(sp)
 8402da8:	df000017 	ldw	fp,0(sp)
 8402dac:	dec00204 	addi	sp,sp,8
 8402db0:	f800283a 	ret

08402db4 <GUI_DeskInit>:

void GUI_DeskInit(alt_video_display *pDisplay, DESK_INFO *pDeskInfo){
 8402db4:	defff504 	addi	sp,sp,-44
 8402db8:	dfc00a15 	stw	ra,40(sp)
 8402dbc:	df000915 	stw	fp,36(sp)
 8402dc0:	df000904 	addi	fp,sp,36
 8402dc4:	e13ffe15 	stw	r4,-8(fp)
 8402dc8:	e17fff15 	stw	r5,-4(fp)
    /*dimensioni pulsanti*/
    const int BoxH = 40;
 8402dcc:	00800a04 	movi	r2,40
 8402dd0:	e0bff815 	stw	r2,-32(fp)
    const int BoxW = 110;
 8402dd4:	00801b84 	movi	r2,110
 8402dd8:	e0bff915 	stw	r2,-28(fp)
    const int BoxW_quiz = 140;
 8402ddc:	00802304 	movi	r2,140
 8402de0:	e0bffa15 	stw	r2,-24(fp)

    const int GapH = 5;
 8402de4:	00800144 	movi	r2,5
 8402de8:	e0bffb15 	stw	r2,-20(fp)
    const int GapW = 4;
 8402dec:	00800104 	movi	r2,4
 8402df0:	e0bffc15 	stw	r2,-16(fp)
    const int DrawBorder = 8;
 8402df4:	00800204 	movi	r2,8
 8402df8:	e0bffd15 	stw	r2,-12(fp)

    RectSet(&pDeskInfo->clear, DrawBorder, DrawBorder+BoxW, pDisplay->height-BoxH-GapH, pDisplay->height-GapH);
 8402dfc:	e0bfff17 	ldw	r2,-4(fp)
 8402e00:	11000404 	addi	r4,r2,16
 8402e04:	e0fffd17 	ldw	r3,-12(fp)
 8402e08:	e0bff917 	ldw	r2,-28(fp)
 8402e0c:	188b883a 	add	r5,r3,r2
 8402e10:	e0bffe17 	ldw	r2,-8(fp)
 8402e14:	10c00217 	ldw	r3,8(r2)
 8402e18:	e0bff817 	ldw	r2,-32(fp)
 8402e1c:	1887c83a 	sub	r3,r3,r2
 8402e20:	e0bffb17 	ldw	r2,-20(fp)
 8402e24:	188dc83a 	sub	r6,r3,r2
 8402e28:	e0bffe17 	ldw	r2,-8(fp)
 8402e2c:	10c00217 	ldw	r3,8(r2)
 8402e30:	e0bffb17 	ldw	r2,-20(fp)
 8402e34:	1885c83a 	sub	r2,r3,r2
 8402e38:	d8800015 	stw	r2,0(sp)
 8402e3c:	300f883a 	mov	r7,r6
 8402e40:	280d883a 	mov	r6,r5
 8402e44:	e17ffd17 	ldw	r5,-12(fp)
 8402e48:	84029f40 	call	84029f4 <RectSet>

    RectSet(&pDeskInfo->enter, DrawBorder+BoxW+GapW, DrawBorder+2*BoxW+GapW, pDisplay->height-BoxH-GapH, pDisplay->height-GapH);
 8402e4c:	e0bfff17 	ldw	r2,-4(fp)
 8402e50:	11000804 	addi	r4,r2,32
 8402e54:	e0fffd17 	ldw	r3,-12(fp)
 8402e58:	e0bff917 	ldw	r2,-28(fp)
 8402e5c:	1887883a 	add	r3,r3,r2
 8402e60:	e0bffc17 	ldw	r2,-16(fp)
 8402e64:	188b883a 	add	r5,r3,r2
 8402e68:	e0bff917 	ldw	r2,-28(fp)
 8402e6c:	1085883a 	add	r2,r2,r2
 8402e70:	1007883a 	mov	r3,r2
 8402e74:	e0bffd17 	ldw	r2,-12(fp)
 8402e78:	1887883a 	add	r3,r3,r2
 8402e7c:	e0bffc17 	ldw	r2,-16(fp)
 8402e80:	188d883a 	add	r6,r3,r2
 8402e84:	e0bffe17 	ldw	r2,-8(fp)
 8402e88:	10c00217 	ldw	r3,8(r2)
 8402e8c:	e0bff817 	ldw	r2,-32(fp)
 8402e90:	1887c83a 	sub	r3,r3,r2
 8402e94:	e0bffb17 	ldw	r2,-20(fp)
 8402e98:	188fc83a 	sub	r7,r3,r2
 8402e9c:	e0bffe17 	ldw	r2,-8(fp)
 8402ea0:	10c00217 	ldw	r3,8(r2)
 8402ea4:	e0bffb17 	ldw	r2,-20(fp)
 8402ea8:	1885c83a 	sub	r2,r3,r2
 8402eac:	d8800015 	stw	r2,0(sp)
 8402eb0:	84029f40 	call	84029f4 <RectSet>

    RectSet(&pDeskInfo->expression, DrawBorder, DrawBorder+BoxW_quiz, GapH, GapH+BoxH);
 8402eb4:	e0bfff17 	ldw	r2,-4(fp)
 8402eb8:	11000c04 	addi	r4,r2,48
 8402ebc:	e0fffd17 	ldw	r3,-12(fp)
 8402ec0:	e0bffa17 	ldw	r2,-24(fp)
 8402ec4:	188b883a 	add	r5,r3,r2
 8402ec8:	e0fffb17 	ldw	r3,-20(fp)
 8402ecc:	e0bff817 	ldw	r2,-32(fp)
 8402ed0:	1885883a 	add	r2,r3,r2
 8402ed4:	d8800015 	stw	r2,0(sp)
 8402ed8:	e1fffb17 	ldw	r7,-20(fp)
 8402edc:	280d883a 	mov	r6,r5
 8402ee0:	e17ffd17 	ldw	r5,-12(fp)
 8402ee4:	84029f40 	call	84029f4 <RectSet>

    RectSet(&pDeskInfo->result, 12+BoxW_quiz, 12+BoxW_quiz+2*BoxH, GapH, GapH+BoxH);
 8402ee8:	e0bfff17 	ldw	r2,-4(fp)
 8402eec:	11001004 	addi	r4,r2,64
 8402ef0:	e0bffa17 	ldw	r2,-24(fp)
 8402ef4:	11400304 	addi	r5,r2,12
 8402ef8:	e0bffa17 	ldw	r2,-24(fp)
 8402efc:	10c00304 	addi	r3,r2,12
 8402f00:	e0bff817 	ldw	r2,-32(fp)
 8402f04:	1085883a 	add	r2,r2,r2
 8402f08:	188d883a 	add	r6,r3,r2
 8402f0c:	e0fffb17 	ldw	r3,-20(fp)
 8402f10:	e0bff817 	ldw	r2,-32(fp)
 8402f14:	1885883a 	add	r2,r3,r2
 8402f18:	d8800015 	stw	r2,0(sp)
 8402f1c:	e1fffb17 	ldw	r7,-20(fp)
 8402f20:	84029f40 	call	84029f4 <RectSet>

    // desk drawing area
    RectSet(&pDeskInfo->rcPaint, DrawBorder, pDisplay->width-DrawBorder, BoxH+DrawBorder, pDisplay->height-DrawBorder-BoxH);
 8402f24:	e13fff17 	ldw	r4,-4(fp)
 8402f28:	e0bffe17 	ldw	r2,-8(fp)
 8402f2c:	10c00117 	ldw	r3,4(r2)
 8402f30:	e0bffd17 	ldw	r2,-12(fp)
 8402f34:	188bc83a 	sub	r5,r3,r2
 8402f38:	e0fff817 	ldw	r3,-32(fp)
 8402f3c:	e0bffd17 	ldw	r2,-12(fp)
 8402f40:	188d883a 	add	r6,r3,r2
 8402f44:	e0bffe17 	ldw	r2,-8(fp)
 8402f48:	10c00217 	ldw	r3,8(r2)
 8402f4c:	e0bffd17 	ldw	r2,-12(fp)
 8402f50:	1887c83a 	sub	r3,r3,r2
 8402f54:	e0bff817 	ldw	r2,-32(fp)
 8402f58:	1885c83a 	sub	r2,r3,r2
 8402f5c:	d8800015 	stw	r2,0(sp)
 8402f60:	300f883a 	mov	r7,r6
 8402f64:	280d883a 	mov	r6,r5
 8402f68:	e17ffd17 	ldw	r5,-12(fp)
 8402f6c:	84029f40 	call	84029f4 <RectSet>

}
 8402f70:	0001883a 	nop
 8402f74:	e037883a 	mov	sp,fp
 8402f78:	dfc00117 	ldw	ra,4(sp)
 8402f7c:	df000017 	ldw	fp,0(sp)
 8402f80:	dec00204 	addi	sp,sp,8
 8402f84:	f800283a 	ret

08402f88 <GUI_CheckButton>:

int GUI_CheckButton(DESK_INFO *pDeskInfo, POINT *pt){
 8402f88:	defffb04 	addi	sp,sp,-20
 8402f8c:	dfc00415 	stw	ra,16(sp)
 8402f90:	df000315 	stw	fp,12(sp)
 8402f94:	df000304 	addi	fp,sp,12
 8402f98:	e13ffe15 	stw	r4,-8(fp)
 8402f9c:	e17fff15 	stw	r5,-4(fp)
    int ButtonId = BTN_NONE;
 8402fa0:	e03ffd15 	stw	zero,-12(fp)

	if (IsPtInRect(pt, &pDeskInfo->clear))
 8402fa4:	e0bffe17 	ldw	r2,-8(fp)
 8402fa8:	10800404 	addi	r2,r2,16
 8402fac:	100b883a 	mov	r5,r2
 8402fb0:	e13fff17 	ldw	r4,-4(fp)
 8402fb4:	840292c0 	call	840292c <IsPtInRect>
 8402fb8:	10000326 	beq	r2,zero,8402fc8 <GUI_CheckButton+0x40>
		ButtonId = BTN_CLEAR;
 8402fbc:	00800044 	movi	r2,1
 8402fc0:	e0bffd15 	stw	r2,-12(fp)
 8402fc4:	00001a06 	br	8403030 <GUI_CheckButton+0xa8>
	else if (IsPtInRect(pt, &pDeskInfo->enter))
 8402fc8:	e0bffe17 	ldw	r2,-8(fp)
 8402fcc:	10800804 	addi	r2,r2,32
 8402fd0:	100b883a 	mov	r5,r2
 8402fd4:	e13fff17 	ldw	r4,-4(fp)
 8402fd8:	840292c0 	call	840292c <IsPtInRect>
 8402fdc:	10000326 	beq	r2,zero,8402fec <GUI_CheckButton+0x64>
		ButtonId = BTN_ENTER;
 8402fe0:	00800084 	movi	r2,2
 8402fe4:	e0bffd15 	stw	r2,-12(fp)
 8402fe8:	00001106 	br	8403030 <GUI_CheckButton+0xa8>
	else if (IsPtInRect(pt, &pDeskInfo->result))
 8402fec:	e0bffe17 	ldw	r2,-8(fp)
 8402ff0:	10801004 	addi	r2,r2,64
 8402ff4:	100b883a 	mov	r5,r2
 8402ff8:	e13fff17 	ldw	r4,-4(fp)
 8402ffc:	840292c0 	call	840292c <IsPtInRect>
 8403000:	10000326 	beq	r2,zero,8403010 <GUI_CheckButton+0x88>
		ButtonId = BTN_RESULT;
 8403004:	008000c4 	movi	r2,3
 8403008:	e0bffd15 	stw	r2,-12(fp)
 840300c:	00000806 	br	8403030 <GUI_CheckButton+0xa8>
	else if (IsPtInRect(pt, &pDeskInfo->expression))
 8403010:	e0bffe17 	ldw	r2,-8(fp)
 8403014:	10800c04 	addi	r2,r2,48
 8403018:	100b883a 	mov	r5,r2
 840301c:	e13fff17 	ldw	r4,-4(fp)
 8403020:	840292c0 	call	840292c <IsPtInRect>
 8403024:	10000226 	beq	r2,zero,8403030 <GUI_CheckButton+0xa8>
		ButtonId = BTN_NEWGAME;
 8403028:	00800104 	movi	r2,4
 840302c:	e0bffd15 	stw	r2,-12(fp)

    return ButtonId;
 8403030:	e0bffd17 	ldw	r2,-12(fp)
}
 8403034:	e037883a 	mov	sp,fp
 8403038:	dfc00117 	ldw	ra,4(sp)
 840303c:	df000017 	ldw	fp,0(sp)
 8403040:	dec00204 	addi	sp,sp,8
 8403044:	f800283a 	ret

08403048 <GUI_DeskDraw>:

void GUI_DeskDraw(alt_video_display *pDisplay, DESK_INFO *pDeskInfo){
 8403048:	defff304 	addi	sp,sp,-52
 840304c:	dfc00c15 	stw	ra,48(sp)
 8403050:	df000b15 	stw	fp,44(sp)
 8403054:	dc400a15 	stw	r17,40(sp)
 8403058:	dc000915 	stw	r16,36(sp)
 840305c:	df000b04 	addi	fp,sp,44
 8403060:	e13ffc15 	stw	r4,-16(fp)
 8403064:	e17ffd15 	stw	r5,-12(fp)
    RECT rc;

    // draw border (bordo bianco che delimita l'area di scrittura)
    RectCopy(&rc, &pDeskInfo->rcPaint);
 8403068:	e0bffd17 	ldw	r2,-12(fp)
 840306c:	100b883a 	mov	r5,r2
 8403070:	e13ff804 	addi	r4,fp,-32
 8403074:	8402b6c0 	call	8402b6c <RectCopy>
    vid_draw_box (rc.left, rc.top, rc.right, rc.bottom, WHITE_24, DO_NOT_FILL, pDisplay);
 8403078:	e0fff817 	ldw	r3,-32(fp)
 840307c:	e13ffa17 	ldw	r4,-24(fp)
 8403080:	e17ff917 	ldw	r5,-28(fp)
 8403084:	e1bffb17 	ldw	r6,-20(fp)
 8403088:	e0bffc17 	ldw	r2,-16(fp)
 840308c:	d8800215 	stw	r2,8(sp)
 8403090:	d8000115 	stw	zero,4(sp)
 8403094:	00804034 	movhi	r2,256
 8403098:	10bfffc4 	addi	r2,r2,-1
 840309c:	d8800015 	stw	r2,0(sp)
 84030a0:	300f883a 	mov	r7,r6
 84030a4:	280d883a 	mov	r6,r5
 84030a8:	200b883a 	mov	r5,r4
 84030ac:	1809883a 	mov	r4,r3
 84030b0:	84042880 	call	8404288 <vid_draw_box>


	//disegno il pulsante di clear
	RectCopy(&rc, &(pDeskInfo->clear));
 84030b4:	e0bffd17 	ldw	r2,-12(fp)
 84030b8:	10800404 	addi	r2,r2,16
 84030bc:	100b883a 	mov	r5,r2
 84030c0:	e13ff804 	addi	r4,fp,-32
 84030c4:	8402b6c0 	call	8402b6c <RectCopy>
	vid_draw_box (rc.left, rc.top, rc.right, rc.bottom, RED_24, DO_FILL, pDisplay);
 84030c8:	e0fff817 	ldw	r3,-32(fp)
 84030cc:	e13ffa17 	ldw	r4,-24(fp)
 84030d0:	e17ff917 	ldw	r5,-28(fp)
 84030d4:	e1bffb17 	ldw	r6,-20(fp)
 84030d8:	e0bffc17 	ldw	r2,-16(fp)
 84030dc:	d8800215 	stw	r2,8(sp)
 84030e0:	00800044 	movi	r2,1
 84030e4:	d8800115 	stw	r2,4(sp)
 84030e8:	00803ff4 	movhi	r2,255
 84030ec:	d8800015 	stw	r2,0(sp)
 84030f0:	300f883a 	mov	r7,r6
 84030f4:	280d883a 	mov	r6,r5
 84030f8:	200b883a 	mov	r5,r4
 84030fc:	1809883a 	mov	r4,r3
 8403100:	84042880 	call	8404288 <vid_draw_box>
	vid_print_string_alpha(rc.left+30, rc.top+(RectHeight(&rc)-22)/2, WHITE_24, RED_24, tahomabold_20, "Clear");
 8403104:	e0bff817 	ldw	r2,-32(fp)
 8403108:	14400784 	addi	r17,r2,30
 840310c:	e43ffa17 	ldw	r16,-24(fp)
 8403110:	e13ff804 	addi	r4,fp,-32
 8403114:	8402c080 	call	8402c08 <RectHeight>
 8403118:	10bffa84 	addi	r2,r2,-22
 840311c:	1006d7fa 	srli	r3,r2,31
 8403120:	1885883a 	add	r2,r3,r2
 8403124:	1005d07a 	srai	r2,r2,1
 8403128:	8087883a 	add	r3,r16,r2
 840312c:	008210b4 	movhi	r2,2114
 8403130:	10bc2604 	addi	r2,r2,-3944
 8403134:	d8800115 	stw	r2,4(sp)
 8403138:	00821134 	movhi	r2,2116
 840313c:	10a3a804 	addi	r2,r2,-29024
 8403140:	d8800015 	stw	r2,0(sp)
 8403144:	01c03ff4 	movhi	r7,255
 8403148:	01804034 	movhi	r6,256
 840314c:	31bfffc4 	addi	r6,r6,-1
 8403150:	180b883a 	mov	r5,r3
 8403154:	8809883a 	mov	r4,r17
 8403158:	84057780 	call	8405778 <vid_print_string_alpha>

	//disegno il pulsante di enter
	RectCopy(&rc, &(pDeskInfo->enter));
 840315c:	e0bffd17 	ldw	r2,-12(fp)
 8403160:	10800804 	addi	r2,r2,32
 8403164:	100b883a 	mov	r5,r2
 8403168:	e13ff804 	addi	r4,fp,-32
 840316c:	8402b6c0 	call	8402b6c <RectCopy>
	vid_draw_box (rc.left, rc.top, rc.right, rc.bottom, GREEN, DO_FILL, pDisplay);
 8403170:	e0fff817 	ldw	r3,-32(fp)
 8403174:	e13ffa17 	ldw	r4,-24(fp)
 8403178:	e17ff917 	ldw	r5,-28(fp)
 840317c:	e1bffb17 	ldw	r6,-20(fp)
 8403180:	e0bffc17 	ldw	r2,-16(fp)
 8403184:	d8800215 	stw	r2,8(sp)
 8403188:	00800044 	movi	r2,1
 840318c:	d8800115 	stw	r2,4(sp)
 8403190:	00bfc014 	movui	r2,65280
 8403194:	d8800015 	stw	r2,0(sp)
 8403198:	300f883a 	mov	r7,r6
 840319c:	280d883a 	mov	r6,r5
 84031a0:	200b883a 	mov	r5,r4
 84031a4:	1809883a 	mov	r4,r3
 84031a8:	84042880 	call	8404288 <vid_draw_box>
	vid_print_string_alpha(rc.left+30, rc.top+(RectHeight(&rc)-22)/2, BLACK_24, GREEN, tahomabold_20, "Done");
 84031ac:	e0bff817 	ldw	r2,-32(fp)
 84031b0:	14400784 	addi	r17,r2,30
 84031b4:	e43ffa17 	ldw	r16,-24(fp)
 84031b8:	e13ff804 	addi	r4,fp,-32
 84031bc:	8402c080 	call	8402c08 <RectHeight>
 84031c0:	10bffa84 	addi	r2,r2,-22
 84031c4:	1006d7fa 	srli	r3,r2,31
 84031c8:	1885883a 	add	r2,r3,r2
 84031cc:	1005d07a 	srai	r2,r2,1
 84031d0:	8087883a 	add	r3,r16,r2
 84031d4:	008210b4 	movhi	r2,2114
 84031d8:	10bc2804 	addi	r2,r2,-3936
 84031dc:	d8800115 	stw	r2,4(sp)
 84031e0:	00821134 	movhi	r2,2116
 84031e4:	10a3a804 	addi	r2,r2,-29024
 84031e8:	d8800015 	stw	r2,0(sp)
 84031ec:	01ffc014 	movui	r7,65280
 84031f0:	000d883a 	mov	r6,zero
 84031f4:	180b883a 	mov	r5,r3
 84031f8:	8809883a 	mov	r4,r17
 84031fc:	84057780 	call	8405778 <vid_print_string_alpha>

	//disegno il campo expression
	RectCopy(&rc, &(pDeskInfo->expression));
 8403200:	e0bffd17 	ldw	r2,-12(fp)
 8403204:	10800c04 	addi	r2,r2,48
 8403208:	100b883a 	mov	r5,r2
 840320c:	e13ff804 	addi	r4,fp,-32
 8403210:	8402b6c0 	call	8402b6c <RectCopy>
	vid_draw_box (rc.left, rc.top, rc.right, rc.bottom, WHITE_24, DO_FILL, pDisplay);
 8403214:	e0fff817 	ldw	r3,-32(fp)
 8403218:	e13ffa17 	ldw	r4,-24(fp)
 840321c:	e17ff917 	ldw	r5,-28(fp)
 8403220:	e1bffb17 	ldw	r6,-20(fp)
 8403224:	e0bffc17 	ldw	r2,-16(fp)
 8403228:	d8800215 	stw	r2,8(sp)
 840322c:	00800044 	movi	r2,1
 8403230:	d8800115 	stw	r2,4(sp)
 8403234:	00804034 	movhi	r2,256
 8403238:	10bfffc4 	addi	r2,r2,-1
 840323c:	d8800015 	stw	r2,0(sp)
 8403240:	300f883a 	mov	r7,r6
 8403244:	280d883a 	mov	r6,r5
 8403248:	200b883a 	mov	r5,r4
 840324c:	1809883a 	mov	r4,r3
 8403250:	84042880 	call	8404288 <vid_draw_box>

	//disegno il campo result
	RectCopy(&rc, &(pDeskInfo->result));
 8403254:	e0bffd17 	ldw	r2,-12(fp)
 8403258:	10801004 	addi	r2,r2,64
 840325c:	100b883a 	mov	r5,r2
 8403260:	e13ff804 	addi	r4,fp,-32
 8403264:	8402b6c0 	call	8402b6c <RectCopy>
	vid_draw_box (rc.left, rc.top, rc.right, rc.bottom, WHITE_24, DO_FILL, pDisplay);
 8403268:	e0fff817 	ldw	r3,-32(fp)
 840326c:	e13ffa17 	ldw	r4,-24(fp)
 8403270:	e17ff917 	ldw	r5,-28(fp)
 8403274:	e1bffb17 	ldw	r6,-20(fp)
 8403278:	e0bffc17 	ldw	r2,-16(fp)
 840327c:	d8800215 	stw	r2,8(sp)
 8403280:	00800044 	movi	r2,1
 8403284:	d8800115 	stw	r2,4(sp)
 8403288:	00804034 	movhi	r2,256
 840328c:	10bfffc4 	addi	r2,r2,-1
 8403290:	d8800015 	stw	r2,0(sp)
 8403294:	300f883a 	mov	r7,r6
 8403298:	280d883a 	mov	r6,r5
 840329c:	200b883a 	mov	r5,r4
 84032a0:	1809883a 	mov	r4,r3
 84032a4:	84042880 	call	8404288 <vid_draw_box>

}
 84032a8:	0001883a 	nop
 84032ac:	e6fffe04 	addi	sp,fp,-8
 84032b0:	dfc00317 	ldw	ra,12(sp)
 84032b4:	df000217 	ldw	fp,8(sp)
 84032b8:	dc400117 	ldw	r17,4(sp)
 84032bc:	dc000017 	ldw	r16,0(sp)
 84032c0:	dec00404 	addi	sp,sp,16
 84032c4:	f800283a 	ret

084032c8 <GUI_ClearRect>:


void GUI_ClearRect(RECT_ID rect, DESK_INFO *pDeskInfo, alt_video_display *pDisplay){
 84032c8:	defff404 	addi	sp,sp,-48
 84032cc:	dfc00b15 	stw	ra,44(sp)
 84032d0:	df000a15 	stw	fp,40(sp)
 84032d4:	df000a04 	addi	fp,sp,40
 84032d8:	e13ffd15 	stw	r4,-12(fp)
 84032dc:	e17ffe15 	stw	r5,-8(fp)
 84032e0:	e1bfff15 	stw	r6,-4(fp)
    RECT rc;
    switch(rect){
 84032e4:	e0bffd17 	ldw	r2,-12(fp)
 84032e8:	10c000e0 	cmpeqi	r3,r2,3
 84032ec:	18004c1e 	bne	r3,zero,8403420 <GUI_ClearRect+0x158>
 84032f0:	10c00128 	cmpgeui	r3,r2,4
 84032f4:	1800031e 	bne	r3,zero,8403304 <GUI_ClearRect+0x3c>
 84032f8:	108000a0 	cmpeqi	r2,r2,2
 84032fc:	1000331e 	bne	r2,zero,84033cc <GUI_ClearRect+0x104>
    	case BTN_RESULT:
    		RectCopy(&rc, &pDeskInfo->result);
    		vid_draw_box (rc.left, rc.top, rc.right, rc.bottom, WHITE_24, DO_FILL, pDisplay);
    		break;
    	default:
    		break;
 8403300:	00005d06 	br	8403478 <GUI_ClearRect+0x1b0>
}


void GUI_ClearRect(RECT_ID rect, DESK_INFO *pDeskInfo, alt_video_display *pDisplay){
    RECT rc;
    switch(rect){
 8403304:	10c00160 	cmpeqi	r3,r2,5
 8403308:	1800031e 	bne	r3,zero,8403318 <GUI_ClearRect+0x50>
 840330c:	108001a0 	cmpeqi	r2,r2,6
 8403310:	1000181e 	bne	r2,zero,8403374 <GUI_ClearRect+0xac>
    	case BTN_RESULT:
    		RectCopy(&rc, &pDeskInfo->result);
    		vid_draw_box (rc.left, rc.top, rc.right, rc.bottom, WHITE_24, DO_FILL, pDisplay);
    		break;
    	default:
    		break;
 8403314:	00005806 	br	8403478 <GUI_ClearRect+0x1b0>

void GUI_ClearRect(RECT_ID rect, DESK_INFO *pDeskInfo, alt_video_display *pDisplay){
    RECT rc;
    switch(rect){
    	case RECT_PAINT:
    		RectCopy(&rc, &pDeskInfo->rcPaint);
 8403318:	e0bffe17 	ldw	r2,-8(fp)
 840331c:	100b883a 	mov	r5,r2
 8403320:	e13ff904 	addi	r4,fp,-28
 8403324:	8402b6c0 	call	8402b6c <RectCopy>
    		RectInflate(&rc, -1, -1);
 8403328:	01bfffc4 	movi	r6,-1
 840332c:	017fffc4 	movi	r5,-1
 8403330:	e13ff904 	addi	r4,fp,-28
 8403334:	8402a540 	call	8402a54 <RectInflate>
    		vid_draw_box (rc.left, rc.top, rc.right, rc.bottom, BLACK_24, DO_FILL, pDisplay);
 8403338:	e0fff917 	ldw	r3,-28(fp)
 840333c:	e13ffb17 	ldw	r4,-20(fp)
 8403340:	e17ffa17 	ldw	r5,-24(fp)
 8403344:	e1bffc17 	ldw	r6,-16(fp)
 8403348:	e0bfff17 	ldw	r2,-4(fp)
 840334c:	d8800215 	stw	r2,8(sp)
 8403350:	00800044 	movi	r2,1
 8403354:	d8800115 	stw	r2,4(sp)
 8403358:	d8000015 	stw	zero,0(sp)
 840335c:	300f883a 	mov	r7,r6
 8403360:	280d883a 	mov	r6,r5
 8403364:	200b883a 	mov	r5,r4
 8403368:	1809883a 	mov	r4,r3
 840336c:	84042880 	call	8404288 <vid_draw_box>
    		break;
 8403370:	00004106 	br	8403478 <GUI_ClearRect+0x1b0>
    	case RECT_EXP:
    		RectCopy(&rc, &pDeskInfo->expression);
 8403374:	e0bffe17 	ldw	r2,-8(fp)
 8403378:	10800c04 	addi	r2,r2,48
 840337c:	100b883a 	mov	r5,r2
 8403380:	e13ff904 	addi	r4,fp,-28
 8403384:	8402b6c0 	call	8402b6c <RectCopy>
    		vid_draw_box (rc.left, rc.top, rc.right, rc.bottom, WHITE_24, DO_FILL, pDisplay);
 8403388:	e0fff917 	ldw	r3,-28(fp)
 840338c:	e13ffb17 	ldw	r4,-20(fp)
 8403390:	e17ffa17 	ldw	r5,-24(fp)
 8403394:	e1bffc17 	ldw	r6,-16(fp)
 8403398:	e0bfff17 	ldw	r2,-4(fp)
 840339c:	d8800215 	stw	r2,8(sp)
 84033a0:	00800044 	movi	r2,1
 84033a4:	d8800115 	stw	r2,4(sp)
 84033a8:	00804034 	movhi	r2,256
 84033ac:	10bfffc4 	addi	r2,r2,-1
 84033b0:	d8800015 	stw	r2,0(sp)
 84033b4:	300f883a 	mov	r7,r6
 84033b8:	280d883a 	mov	r6,r5
 84033bc:	200b883a 	mov	r5,r4
 84033c0:	1809883a 	mov	r4,r3
 84033c4:	84042880 	call	8404288 <vid_draw_box>
    		break;
 84033c8:	00002b06 	br	8403478 <GUI_ClearRect+0x1b0>
    	case BTN_ENTER:
    		RectCopy(&rc, &pDeskInfo->enter);
 84033cc:	e0bffe17 	ldw	r2,-8(fp)
 84033d0:	10800804 	addi	r2,r2,32
 84033d4:	100b883a 	mov	r5,r2
 84033d8:	e13ff904 	addi	r4,fp,-28
 84033dc:	8402b6c0 	call	8402b6c <RectCopy>
    		vid_draw_box (rc.left, rc.top, rc.right, rc.bottom, GREEN, DO_FILL, pDisplay);
 84033e0:	e0fff917 	ldw	r3,-28(fp)
 84033e4:	e13ffb17 	ldw	r4,-20(fp)
 84033e8:	e17ffa17 	ldw	r5,-24(fp)
 84033ec:	e1bffc17 	ldw	r6,-16(fp)
 84033f0:	e0bfff17 	ldw	r2,-4(fp)
 84033f4:	d8800215 	stw	r2,8(sp)
 84033f8:	00800044 	movi	r2,1
 84033fc:	d8800115 	stw	r2,4(sp)
 8403400:	00bfc014 	movui	r2,65280
 8403404:	d8800015 	stw	r2,0(sp)
 8403408:	300f883a 	mov	r7,r6
 840340c:	280d883a 	mov	r6,r5
 8403410:	200b883a 	mov	r5,r4
 8403414:	1809883a 	mov	r4,r3
 8403418:	84042880 	call	8404288 <vid_draw_box>
    		break;
 840341c:	00001606 	br	8403478 <GUI_ClearRect+0x1b0>
    	case BTN_RESULT:
    		RectCopy(&rc, &pDeskInfo->result);
 8403420:	e0bffe17 	ldw	r2,-8(fp)
 8403424:	10801004 	addi	r2,r2,64
 8403428:	100b883a 	mov	r5,r2
 840342c:	e13ff904 	addi	r4,fp,-28
 8403430:	8402b6c0 	call	8402b6c <RectCopy>
    		vid_draw_box (rc.left, rc.top, rc.right, rc.bottom, WHITE_24, DO_FILL, pDisplay);
 8403434:	e0fff917 	ldw	r3,-28(fp)
 8403438:	e13ffb17 	ldw	r4,-20(fp)
 840343c:	e17ffa17 	ldw	r5,-24(fp)
 8403440:	e1bffc17 	ldw	r6,-16(fp)
 8403444:	e0bfff17 	ldw	r2,-4(fp)
 8403448:	d8800215 	stw	r2,8(sp)
 840344c:	00800044 	movi	r2,1
 8403450:	d8800115 	stw	r2,4(sp)
 8403454:	00804034 	movhi	r2,256
 8403458:	10bfffc4 	addi	r2,r2,-1
 840345c:	d8800015 	stw	r2,0(sp)
 8403460:	300f883a 	mov	r7,r6
 8403464:	280d883a 	mov	r6,r5
 8403468:	200b883a 	mov	r5,r4
 840346c:	1809883a 	mov	r4,r3
 8403470:	84042880 	call	8404288 <vid_draw_box>
    		break;
 8403474:	0001883a 	nop
    	default:
    		break;
    }
}
 8403478:	0001883a 	nop
 840347c:	e037883a 	mov	sp,fp
 8403480:	dfc00117 	ldw	ra,4(sp)
 8403484:	df000017 	ldw	fp,0(sp)
 8403488:	dec00204 	addi	sp,sp,8
 840348c:	f800283a 	ret

08403490 <Print>:

void Print (RECT_ID rect, DESK_INFO desk, char string[]){
 8403490:	defff804 	addi	sp,sp,-32
 8403494:	dfc00415 	stw	ra,16(sp)
 8403498:	df000315 	stw	fp,12(sp)
 840349c:	df000304 	addi	fp,sp,12
 84034a0:	e13fff15 	stw	r4,-4(fp)
 84034a4:	e1400215 	stw	r5,8(fp)
 84034a8:	e1800315 	stw	r6,12(fp)
 84034ac:	e1c00415 	stw	r7,16(fp)
	switch(rect){
 84034b0:	e0bfff17 	ldw	r2,-4(fp)
 84034b4:	10c00120 	cmpeqi	r3,r2,4
 84034b8:	1800611e 	bne	r3,zero,8403640 <Print+0x1b0>
 84034bc:	10c00168 	cmpgeui	r3,r2,5
 84034c0:	1800031e 	bne	r3,zero,84034d0 <Print+0x40>
 84034c4:	108000a0 	cmpeqi	r2,r2,2
 84034c8:	1000061e 	bne	r2,zero,84034e4 <Print+0x54>
			break;
		case BTN_NEWGAME:
			vid_print_string_alpha(desk.expression.left+10, desk.expression.top+9, BLACK_24, YELLOW_24, tahomabold_20, string);
			break;
		default:
			break;
 84034cc:	00006c06 	br	8403680 <Print+0x1f0>
    		break;
    }
}

void Print (RECT_ID rect, DESK_INFO desk, char string[]){
	switch(rect){
 84034d0:	10c00160 	cmpeqi	r3,r2,5
 84034d4:	1800121e 	bne	r3,zero,8403520 <Print+0x90>
 84034d8:	108001a0 	cmpeqi	r2,r2,6
 84034dc:	1000481e 	bne	r2,zero,8403600 <Print+0x170>
			break;
		case BTN_NEWGAME:
			vid_print_string_alpha(desk.expression.left+10, desk.expression.top+9, BLACK_24, YELLOW_24, tahomabold_20, string);
			break;
		default:
			break;
 84034e0:	00006706 	br	8403680 <Print+0x1f0>
}

void Print (RECT_ID rect, DESK_INFO desk, char string[]){
	switch(rect){
		case BTN_ENTER:
			vid_print_string_alpha(desk.enter.left+30, desk.enter.top+9, BLACK_24, GREEN, tahomabold_20, string);
 84034e4:	e0800a17 	ldw	r2,40(fp)
 84034e8:	10c00784 	addi	r3,r2,30
 84034ec:	e0800c17 	ldw	r2,48(fp)
 84034f0:	11000244 	addi	r4,r2,9
 84034f4:	e0801617 	ldw	r2,88(fp)
 84034f8:	d8800115 	stw	r2,4(sp)
 84034fc:	00821134 	movhi	r2,2116
 8403500:	10a3a804 	addi	r2,r2,-29024
 8403504:	d8800015 	stw	r2,0(sp)
 8403508:	01ffc014 	movui	r7,65280
 840350c:	000d883a 	mov	r6,zero
 8403510:	200b883a 	mov	r5,r4
 8403514:	1809883a 	mov	r4,r3
 8403518:	84057780 	call	8405778 <vid_print_string_alpha>
			break;
 840351c:	00005806 	br	8403680 <Print+0x1f0>
		case RECT_PAINT:
			if(strcmp(string, "Nope")==0)
 8403520:	014210b4 	movhi	r5,2114
 8403524:	297c2a04 	addi	r5,r5,-3928
 8403528:	e1001617 	ldw	r4,88(fp)
 840352c:	840a3100 	call	840a310 <strcmp>
 8403530:	10000f1e 	bne	r2,zero,8403570 <Print+0xe0>
				vid_print_string_alpha(desk.rcPaint.left+75, desk.rcPaint.top+80, RED_24, BLACK_24, tahomabold_32, string);
 8403534:	e0800217 	ldw	r2,8(fp)
 8403538:	10c012c4 	addi	r3,r2,75
 840353c:	e0800417 	ldw	r2,16(fp)
 8403540:	11001404 	addi	r4,r2,80
 8403544:	e0801617 	ldw	r2,88(fp)
 8403548:	d8800115 	stw	r2,4(sp)
 840354c:	00821134 	movhi	r2,2116
 8403550:	10a69804 	addi	r2,r2,-26016
 8403554:	d8800015 	stw	r2,0(sp)
 8403558:	000f883a 	mov	r7,zero
 840355c:	01803ff4 	movhi	r6,255
 8403560:	200b883a 	mov	r5,r4
 8403564:	1809883a 	mov	r4,r3
 8403568:	84057780 	call	8405778 <vid_print_string_alpha>
			else if(strcmp(string, "Nice")==0)
				vid_print_string_alpha(desk.rcPaint.left+75, desk.rcPaint.top+80, GREEN, BLACK_24, tahomabold_32, string);
			else
				vid_print_string_alpha(desk.rcPaint.left+30, desk.rcPaint.top+80, PINK_24, BLACK_24, tahomabold_32, string);
			break;
 840356c:	00004406 	br	8403680 <Print+0x1f0>
			vid_print_string_alpha(desk.enter.left+30, desk.enter.top+9, BLACK_24, GREEN, tahomabold_20, string);
			break;
		case RECT_PAINT:
			if(strcmp(string, "Nope")==0)
				vid_print_string_alpha(desk.rcPaint.left+75, desk.rcPaint.top+80, RED_24, BLACK_24, tahomabold_32, string);
			else if(strcmp(string, "Nice")==0)
 8403570:	014210b4 	movhi	r5,2114
 8403574:	297c2c04 	addi	r5,r5,-3920
 8403578:	e1001617 	ldw	r4,88(fp)
 840357c:	840a3100 	call	840a310 <strcmp>
 8403580:	10000f1e 	bne	r2,zero,84035c0 <Print+0x130>
				vid_print_string_alpha(desk.rcPaint.left+75, desk.rcPaint.top+80, GREEN, BLACK_24, tahomabold_32, string);
 8403584:	e0800217 	ldw	r2,8(fp)
 8403588:	10c012c4 	addi	r3,r2,75
 840358c:	e0800417 	ldw	r2,16(fp)
 8403590:	11001404 	addi	r4,r2,80
 8403594:	e0801617 	ldw	r2,88(fp)
 8403598:	d8800115 	stw	r2,4(sp)
 840359c:	00821134 	movhi	r2,2116
 84035a0:	10a69804 	addi	r2,r2,-26016
 84035a4:	d8800015 	stw	r2,0(sp)
 84035a8:	000f883a 	mov	r7,zero
 84035ac:	01bfc014 	movui	r6,65280
 84035b0:	200b883a 	mov	r5,r4
 84035b4:	1809883a 	mov	r4,r3
 84035b8:	84057780 	call	8405778 <vid_print_string_alpha>
			else
				vid_print_string_alpha(desk.rcPaint.left+30, desk.rcPaint.top+80, PINK_24, BLACK_24, tahomabold_32, string);
			break;
 84035bc:	00003006 	br	8403680 <Print+0x1f0>
			if(strcmp(string, "Nope")==0)
				vid_print_string_alpha(desk.rcPaint.left+75, desk.rcPaint.top+80, RED_24, BLACK_24, tahomabold_32, string);
			else if(strcmp(string, "Nice")==0)
				vid_print_string_alpha(desk.rcPaint.left+75, desk.rcPaint.top+80, GREEN, BLACK_24, tahomabold_32, string);
			else
				vid_print_string_alpha(desk.rcPaint.left+30, desk.rcPaint.top+80, PINK_24, BLACK_24, tahomabold_32, string);
 84035c0:	e0800217 	ldw	r2,8(fp)
 84035c4:	10c00784 	addi	r3,r2,30
 84035c8:	e0800417 	ldw	r2,16(fp)
 84035cc:	11001404 	addi	r4,r2,80
 84035d0:	e0801617 	ldw	r2,88(fp)
 84035d4:	d8800115 	stw	r2,4(sp)
 84035d8:	00821134 	movhi	r2,2116
 84035dc:	10a69804 	addi	r2,r2,-26016
 84035e0:	d8800015 	stw	r2,0(sp)
 84035e4:	000f883a 	mov	r7,zero
 84035e8:	01804034 	movhi	r6,256
 84035ec:	31b032c4 	addi	r6,r6,-16181
 84035f0:	200b883a 	mov	r5,r4
 84035f4:	1809883a 	mov	r4,r3
 84035f8:	84057780 	call	8405778 <vid_print_string_alpha>
			break;
 84035fc:	00002006 	br	8403680 <Print+0x1f0>
		case RECT_EXP:
			vid_print_string_alpha(desk.expression.left+30, desk.expression.top+9, BLACK_24, WHITE_24, tahomabold_20, string);
 8403600:	e0800e17 	ldw	r2,56(fp)
 8403604:	10c00784 	addi	r3,r2,30
 8403608:	e0801017 	ldw	r2,64(fp)
 840360c:	11000244 	addi	r4,r2,9
 8403610:	e0801617 	ldw	r2,88(fp)
 8403614:	d8800115 	stw	r2,4(sp)
 8403618:	00821134 	movhi	r2,2116
 840361c:	10a3a804 	addi	r2,r2,-29024
 8403620:	d8800015 	stw	r2,0(sp)
 8403624:	01c04034 	movhi	r7,256
 8403628:	39ffffc4 	addi	r7,r7,-1
 840362c:	000d883a 	mov	r6,zero
 8403630:	200b883a 	mov	r5,r4
 8403634:	1809883a 	mov	r4,r3
 8403638:	84057780 	call	8405778 <vid_print_string_alpha>
			break;
 840363c:	00001006 	br	8403680 <Print+0x1f0>
		case BTN_NEWGAME:
			vid_print_string_alpha(desk.expression.left+10, desk.expression.top+9, BLACK_24, YELLOW_24, tahomabold_20, string);
 8403640:	e0800e17 	ldw	r2,56(fp)
 8403644:	10c00284 	addi	r3,r2,10
 8403648:	e0801017 	ldw	r2,64(fp)
 840364c:	11000244 	addi	r4,r2,9
 8403650:	e0801617 	ldw	r2,88(fp)
 8403654:	d8800115 	stw	r2,4(sp)
 8403658:	00821134 	movhi	r2,2116
 840365c:	10a3a804 	addi	r2,r2,-29024
 8403660:	d8800015 	stw	r2,0(sp)
 8403664:	01c04034 	movhi	r7,256
 8403668:	39ffc004 	addi	r7,r7,-256
 840366c:	000d883a 	mov	r6,zero
 8403670:	200b883a 	mov	r5,r4
 8403674:	1809883a 	mov	r4,r3
 8403678:	84057780 	call	8405778 <vid_print_string_alpha>
			break;
 840367c:	0001883a 	nop
		default:
			break;
	}
}
 8403680:	0001883a 	nop
 8403684:	e037883a 	mov	sp,fp
 8403688:	dfc00117 	ldw	ra,4(sp)
 840368c:	df000017 	ldw	fp,0(sp)
 8403690:	dec00504 	addi	sp,sp,20
 8403694:	f800283a 	ret

08403698 <Update_img>:

void Update_img(POINT pt, bool* img, DESK_INFO desk){
 8403698:	defff504 	addi	sp,sp,-44
 840369c:	df000915 	stw	fp,36(sp)
 84036a0:	df000904 	addi	fp,sp,36
 84036a4:	e13ffd15 	stw	r4,-12(fp)
 84036a8:	e17ffe15 	stw	r5,-8(fp)
 84036ac:	e1bfff15 	stw	r6,-4(fp)
 84036b0:	e1c00115 	stw	r7,4(fp)
	int x_start = pt.x-DOT_SIZE;
 84036b4:	e0bffd17 	ldw	r2,-12(fp)
 84036b8:	10bffc44 	addi	r2,r2,-15
 84036bc:	e0bff915 	stw	r2,-28(fp)
	int y_start = pt.y-DOT_SIZE;
 84036c0:	e0bffe17 	ldw	r2,-8(fp)
 84036c4:	10bffc44 	addi	r2,r2,-15
 84036c8:	e0bffa15 	stw	r2,-24(fp)
	int x_min = desk.rcPaint.left+1;		//9
 84036cc:	e0800117 	ldw	r2,4(fp)
 84036d0:	10800044 	addi	r2,r2,1
 84036d4:	e0bffb15 	stw	r2,-20(fp)
	int y_min = desk.rcPaint.top+1;		//49
 84036d8:	e0800317 	ldw	r2,12(fp)
 84036dc:	10800044 	addi	r2,r2,1
 84036e0:	e0bffc15 	stw	r2,-16(fp)

	for(int y=y_start; y<y_start+2*DOT_SIZE; y++)			//"disegno" un quadrato di lato 30 intorno al punto toccato sul touchscreen
 84036e4:	e0bffa17 	ldw	r2,-24(fp)
 84036e8:	e0bff715 	stw	r2,-36(fp)
 84036ec:	00002206 	br	8403778 <Update_img+0xe0>
		for(int x=x_start; x<x_start+2*DOT_SIZE; x++){
 84036f0:	e0bff917 	ldw	r2,-28(fp)
 84036f4:	e0bff815 	stw	r2,-32(fp)
 84036f8:	00001806 	br	840375c <Update_img+0xc4>
			if(x >= x_min && y >= y_min)					//per evitare numeri negativi
 84036fc:	e0fff817 	ldw	r3,-32(fp)
 8403700:	e0bffb17 	ldw	r2,-20(fp)
 8403704:	18801216 	blt	r3,r2,8403750 <Update_img+0xb8>
 8403708:	e0fff717 	ldw	r3,-36(fp)
 840370c:	e0bffc17 	ldw	r2,-16(fp)
 8403710:	18800f16 	blt	r3,r2,8403750 <Update_img+0xb8>
				img[(x-x_min)+DRAW_WIDTH*(y-y_min)]=1;		//aggiorno l'immagine tenendo conto dei bordi di rcPaint
 8403714:	e0fff817 	ldw	r3,-32(fp)
 8403718:	e0bffb17 	ldw	r2,-20(fp)
 840371c:	1887c83a 	sub	r3,r3,r2
 8403720:	e13ff717 	ldw	r4,-36(fp)
 8403724:	e0bffc17 	ldw	r2,-16(fp)
 8403728:	2085c83a 	sub	r2,r4,r2
 840372c:	10803824 	muli	r2,r2,224
 8403730:	1885883a 	add	r2,r3,r2
 8403734:	1085883a 	add	r2,r2,r2
 8403738:	1085883a 	add	r2,r2,r2
 840373c:	1007883a 	mov	r3,r2
 8403740:	e0bfff17 	ldw	r2,-4(fp)
 8403744:	10c5883a 	add	r2,r2,r3
 8403748:	00c00044 	movi	r3,1
 840374c:	10c00015 	stw	r3,0(r2)
	int y_start = pt.y-DOT_SIZE;
	int x_min = desk.rcPaint.left+1;		//9
	int y_min = desk.rcPaint.top+1;		//49

	for(int y=y_start; y<y_start+2*DOT_SIZE; y++)			//"disegno" un quadrato di lato 30 intorno al punto toccato sul touchscreen
		for(int x=x_start; x<x_start+2*DOT_SIZE; x++){
 8403750:	e0bff817 	ldw	r2,-32(fp)
 8403754:	10800044 	addi	r2,r2,1
 8403758:	e0bff815 	stw	r2,-32(fp)
 840375c:	e0bff917 	ldw	r2,-28(fp)
 8403760:	10800784 	addi	r2,r2,30
 8403764:	e0fff817 	ldw	r3,-32(fp)
 8403768:	18bfe416 	blt	r3,r2,84036fc <__alt_data_end+0xfc4036fc>
	int x_start = pt.x-DOT_SIZE;
	int y_start = pt.y-DOT_SIZE;
	int x_min = desk.rcPaint.left+1;		//9
	int y_min = desk.rcPaint.top+1;		//49

	for(int y=y_start; y<y_start+2*DOT_SIZE; y++)			//"disegno" un quadrato di lato 30 intorno al punto toccato sul touchscreen
 840376c:	e0bff717 	ldw	r2,-36(fp)
 8403770:	10800044 	addi	r2,r2,1
 8403774:	e0bff715 	stw	r2,-36(fp)
 8403778:	e0bffa17 	ldw	r2,-24(fp)
 840377c:	10800784 	addi	r2,r2,30
 8403780:	e0fff717 	ldw	r3,-36(fp)
 8403784:	18bfda16 	blt	r3,r2,84036f0 <__alt_data_end+0xfc4036f0>
		for(int x=x_start; x<x_start+2*DOT_SIZE; x++){
			if(x >= x_min && y >= y_min)					//per evitare numeri negativi
				img[(x-x_min)+DRAW_WIDTH*(y-y_min)]=1;		//aggiorno l'immagine tenendo conto dei bordi di rcPaint
		}
}
 8403788:	0001883a 	nop
 840378c:	e037883a 	mov	sp,fp
 8403790:	df000017 	ldw	fp,0(sp)
 8403794:	dec00204 	addi	sp,sp,8
 8403798:	f800283a 	ret

0840379c <Resize_image>:

void Resize_image(bool* img, MNIST_Image* mnist_img){
 840379c:	defff704 	addi	sp,sp,-36
 84037a0:	dfc00815 	stw	ra,32(sp)
 84037a4:	df000715 	stw	fp,28(sp)
 84037a8:	df000704 	addi	fp,sp,28
 84037ac:	e13ffe15 	stw	r4,-8(fp)
 84037b0:	e17fff15 	stw	r5,-4(fp)
	int row=0;
 84037b4:	e03ffc15 	stw	zero,-16(fp)
	int column=0;
 84037b8:	e03ffd15 	stw	zero,-12(fp)

	for(int k=0; k<28*28; k++)
 84037bc:	e03ff915 	stw	zero,-28(fp)
 84037c0:	00000706 	br	84037e0 <Resize_image+0x44>
		mnist_img->pixel[k]=0;
 84037c4:	e0ffff17 	ldw	r3,-4(fp)
 84037c8:	e0bff917 	ldw	r2,-28(fp)
 84037cc:	1885883a 	add	r2,r3,r2
 84037d0:	10000005 	stb	zero,0(r2)

void Resize_image(bool* img, MNIST_Image* mnist_img){
	int row=0;
	int column=0;

	for(int k=0; k<28*28; k++)
 84037d4:	e0bff917 	ldw	r2,-28(fp)
 84037d8:	10800044 	addi	r2,r2,1
 84037dc:	e0bff915 	stw	r2,-28(fp)
 84037e0:	e0bff917 	ldw	r2,-28(fp)
 84037e4:	1080c410 	cmplti	r2,r2,784
 84037e8:	103ff61e 	bne	r2,zero,84037c4 <__alt_data_end+0xfc4037c4>
		mnist_img->pixel[k]=0;

	for(int i=0; i<224*224; i++){
 84037ec:	e03ffa15 	stw	zero,-24(fp)
 84037f0:	00002906 	br	8403898 <Resize_image+0xfc>
		row=i/224;
 84037f4:	e0bffa17 	ldw	r2,-24(fp)
 84037f8:	01403804 	movi	r5,224
 84037fc:	1009883a 	mov	r4,r2
 8403800:	8406fac0 	call	8406fac <__divsi3>
 8403804:	e0bffc15 	stw	r2,-16(fp)
		column=i%224;
 8403808:	e0bffa17 	ldw	r2,-24(fp)
 840380c:	01403804 	movi	r5,224
 8403810:	1009883a 	mov	r4,r2
 8403814:	84070300 	call	8407030 <__modsi3>
 8403818:	e0bffd15 	stw	r2,-12(fp)
		mnist_img->pixel[(column/8)+(row/8)*28] += (uint8_t)img[i];
 840381c:	e0bffd17 	ldw	r2,-12(fp)
 8403820:	1000010e 	bge	r2,zero,8403828 <Resize_image+0x8c>
 8403824:	108001c4 	addi	r2,r2,7
 8403828:	1005d0fa 	srai	r2,r2,3
 840382c:	1007883a 	mov	r3,r2
 8403830:	e0bffc17 	ldw	r2,-16(fp)
 8403834:	1000010e 	bge	r2,zero,840383c <Resize_image+0xa0>
 8403838:	108001c4 	addi	r2,r2,7
 840383c:	1005d0fa 	srai	r2,r2,3
 8403840:	11000724 	muli	r4,r2,28
 8403844:	1909883a 	add	r4,r3,r4
 8403848:	10800724 	muli	r2,r2,28
 840384c:	1885883a 	add	r2,r3,r2
 8403850:	e0ffff17 	ldw	r3,-4(fp)
 8403854:	1885883a 	add	r2,r3,r2
 8403858:	10c00003 	ldbu	r3,0(r2)
 840385c:	e0bffa17 	ldw	r2,-24(fp)
 8403860:	1085883a 	add	r2,r2,r2
 8403864:	1085883a 	add	r2,r2,r2
 8403868:	100b883a 	mov	r5,r2
 840386c:	e0bffe17 	ldw	r2,-8(fp)
 8403870:	1145883a 	add	r2,r2,r5
 8403874:	10800017 	ldw	r2,0(r2)
 8403878:	1885883a 	add	r2,r3,r2
 840387c:	1007883a 	mov	r3,r2
 8403880:	e0bfff17 	ldw	r2,-4(fp)
 8403884:	1105883a 	add	r2,r2,r4
 8403888:	10c00005 	stb	r3,0(r2)
	int column=0;

	for(int k=0; k<28*28; k++)
		mnist_img->pixel[k]=0;

	for(int i=0; i<224*224; i++){
 840388c:	e0bffa17 	ldw	r2,-24(fp)
 8403890:	10800044 	addi	r2,r2,1
 8403894:	e0bffa15 	stw	r2,-24(fp)
 8403898:	e0bffa17 	ldw	r2,-24(fp)
 840389c:	00f0ffd4 	movui	r3,50175
 84038a0:	18bfd40e 	bge	r3,r2,84037f4 <__alt_data_end+0xfc4037f4>
		row=i/224;
		column=i%224;
		mnist_img->pixel[(column/8)+(row/8)*28] += (uint8_t)img[i];
	}
	for(int j=0; j<28*28; j++){
 84038a4:	e03ffb15 	stw	zero,-20(fp)
 84038a8:	00001f06 	br	8403928 <Resize_image+0x18c>
		if(j%28 == 0)
 84038ac:	e0bffb17 	ldw	r2,-20(fp)
 84038b0:	01400704 	movi	r5,28
 84038b4:	1009883a 	mov	r4,r2
 84038b8:	84070300 	call	8407030 <__modsi3>
 84038bc:	1000021e 	bne	r2,zero,84038c8 <Resize_image+0x12c>
			printf("\n");
 84038c0:	01000284 	movi	r4,10
 84038c4:	840a1540 	call	840a154 <putchar>
		if(mnist_img->pixel[j] >= 32){
 84038c8:	e0ffff17 	ldw	r3,-4(fp)
 84038cc:	e0bffb17 	ldw	r2,-20(fp)
 84038d0:	1885883a 	add	r2,r3,r2
 84038d4:	10800003 	ldbu	r2,0(r2)
 84038d8:	10803fcc 	andi	r2,r2,255
 84038dc:	10800830 	cmpltui	r2,r2,32
 84038e0:	1000081e 	bne	r2,zero,8403904 <Resize_image+0x168>
			mnist_img->pixel[j]=1;
 84038e4:	e0ffff17 	ldw	r3,-4(fp)
 84038e8:	e0bffb17 	ldw	r2,-20(fp)
 84038ec:	1885883a 	add	r2,r3,r2
 84038f0:	00c00044 	movi	r3,1
 84038f4:	10c00005 	stb	r3,0(r2)
			printf("x");
 84038f8:	01001e04 	movi	r4,120
 84038fc:	840a1540 	call	840a154 <putchar>
 8403900:	00000606 	br	840391c <Resize_image+0x180>
		}
		else{
			mnist_img->pixel[j]=0;
 8403904:	e0ffff17 	ldw	r3,-4(fp)
 8403908:	e0bffb17 	ldw	r2,-20(fp)
 840390c:	1885883a 	add	r2,r3,r2
 8403910:	10000005 	stb	zero,0(r2)
			printf("o");
 8403914:	01001bc4 	movi	r4,111
 8403918:	840a1540 	call	840a154 <putchar>
	for(int i=0; i<224*224; i++){
		row=i/224;
		column=i%224;
		mnist_img->pixel[(column/8)+(row/8)*28] += (uint8_t)img[i];
	}
	for(int j=0; j<28*28; j++){
 840391c:	e0bffb17 	ldw	r2,-20(fp)
 8403920:	10800044 	addi	r2,r2,1
 8403924:	e0bffb15 	stw	r2,-20(fp)
 8403928:	e0bffb17 	ldw	r2,-20(fp)
 840392c:	1080c410 	cmplti	r2,r2,784
 8403930:	103fde1e 	bne	r2,zero,84038ac <__alt_data_end+0xfc4038ac>
		else{
			mnist_img->pixel[j]=0;
			printf("o");
		}
	}
}
 8403934:	0001883a 	nop
 8403938:	e037883a 	mov	sp,fp
 840393c:	dfc00117 	ldw	ra,4(sp)
 8403940:	df000017 	ldw	fp,0(sp)
 8403944:	dec00204 	addi	sp,sp,8
 8403948:	f800283a 	ret

0840394c <GUI>:

void GUI(alt_video_display *pDisplay, DESK_INFO *DeskInfo, TOUCH_HANDLE *pTouch){
 840394c:	defffb04 	addi	sp,sp,-20
 8403950:	dfc00415 	stw	ra,16(sp)
 8403954:	df000315 	stw	fp,12(sp)
 8403958:	df000304 	addi	fp,sp,12
 840395c:	e13ffd15 	stw	r4,-12(fp)
 8403960:	e17ffe15 	stw	r5,-8(fp)
 8403964:	e1bfff15 	stw	r6,-4(fp)
    //const int nDotSize = DOT_SIZE;

    // Schermata iniziale
	vid_clean_screen(pDisplay, BLACK_24);
 8403968:	000b883a 	mov	r5,zero
 840396c:	e13ffd17 	ldw	r4,-12(fp)
 8403970:	8403f3c0 	call	8403f3c <vid_clean_screen>
	GUI_ShowWelcome(pDisplay);
 8403974:	e13ffd17 	ldw	r4,-12(fp)
 8403978:	8402d380 	call	8402d38 <GUI_ShowWelcome>
	usleep(1*1000*1000);
 840397c:	010003f4 	movhi	r4,15
 8403980:	21109004 	addi	r4,r4,16960
 8403984:	840d82c0 	call	840d82c <usleep>

    // clean screen
    vid_clean_screen(pDisplay, BLACK_24);
 8403988:	000b883a 	mov	r5,zero
 840398c:	e13ffd17 	ldw	r4,-12(fp)
 8403990:	8403f3c0 	call	8403f3c <vid_clean_screen>

    GUI_DeskInit(pDisplay, DeskInfo);		//imposta i vari rettangoli
 8403994:	e17ffe17 	ldw	r5,-8(fp)
 8403998:	e13ffd17 	ldw	r4,-12(fp)
 840399c:	8402db40 	call	8402db4 <GUI_DeskInit>
    GUI_DeskDraw(pDisplay, DeskInfo);		//colora e riempie tutto
 84039a0:	e17ffe17 	ldw	r5,-8(fp)
 84039a4:	e13ffd17 	ldw	r4,-12(fp)
 84039a8:	84030480 	call	8403048 <GUI_DeskDraw>

}
 84039ac:	0001883a 	nop
 84039b0:	e037883a 	mov	sp,fp
 84039b4:	dfc00117 	ldw	ra,4(sp)
 84039b8:	df000017 	ldw	fp,0(sp)
 84039bc:	dec00204 	addi	sp,sp,8
 84039c0:	f800283a 	ret

084039c4 <ShowHelp>:

void ShowHelp (alt_video_display *Display, DESK_INFO *DeskInfo, TOUCH_HANDLE *pTouch){
 84039c4:	defff904 	addi	sp,sp,-28
 84039c8:	dfc00615 	stw	ra,24(sp)
 84039cc:	df000515 	stw	fp,20(sp)
 84039d0:	df000504 	addi	fp,sp,20
 84039d4:	e13ffd15 	stw	r4,-12(fp)
 84039d8:	e17ffe15 	stw	r5,-8(fp)
 84039dc:	e1bfff15 	stw	r6,-4(fp)
	vid_clean_screen(Display, BLUE_24);
 84039e0:	01403fc4 	movi	r5,255
 84039e4:	e13ffd17 	ldw	r4,-12(fp)
 84039e8:	8403f3c0 	call	8403f3c <vid_clean_screen>
	vid_print_string_alpha(30, 10, WHITE_24, BLUE_24, tahomabold_20, "How to...");
 84039ec:	008210b4 	movhi	r2,2114
 84039f0:	10bc2e04 	addi	r2,r2,-3912
 84039f4:	d8800115 	stw	r2,4(sp)
 84039f8:	00821134 	movhi	r2,2116
 84039fc:	10a3a804 	addi	r2,r2,-29024
 8403a00:	d8800015 	stw	r2,0(sp)
 8403a04:	01c03fc4 	movi	r7,255
 8403a08:	01804034 	movhi	r6,256
 8403a0c:	31bfffc4 	addi	r6,r6,-1
 8403a10:	01400284 	movi	r5,10
 8403a14:	01000784 	movi	r4,30
 8403a18:	84057780 	call	8405778 <vid_print_string_alpha>
	vid_print_string_alpha(30, 40, WHITE_24, BLUE_24, tahomabold_20, ">Draw digit");
 8403a1c:	008210b4 	movhi	r2,2114
 8403a20:	10bc3104 	addi	r2,r2,-3900
 8403a24:	d8800115 	stw	r2,4(sp)
 8403a28:	00821134 	movhi	r2,2116
 8403a2c:	10a3a804 	addi	r2,r2,-29024
 8403a30:	d8800015 	stw	r2,0(sp)
 8403a34:	01c03fc4 	movi	r7,255
 8403a38:	01804034 	movhi	r6,256
 8403a3c:	31bfffc4 	addi	r6,r6,-1
 8403a40:	01400a04 	movi	r5,40
 8403a44:	01000784 	movi	r4,30
 8403a48:	84057780 	call	8405778 <vid_print_string_alpha>
	vid_print_string_alpha(30, 70, WHITE_24, BLUE_24, tahomabold_20, ">Enter to check");
 8403a4c:	008210b4 	movhi	r2,2114
 8403a50:	10bc3404 	addi	r2,r2,-3888
 8403a54:	d8800115 	stw	r2,4(sp)
 8403a58:	00821134 	movhi	r2,2116
 8403a5c:	10a3a804 	addi	r2,r2,-29024
 8403a60:	d8800015 	stw	r2,0(sp)
 8403a64:	01c03fc4 	movi	r7,255
 8403a68:	01804034 	movhi	r6,256
 8403a6c:	31bfffc4 	addi	r6,r6,-1
 8403a70:	01401184 	movi	r5,70
 8403a74:	01000784 	movi	r4,30
 8403a78:	84057780 	call	8405778 <vid_print_string_alpha>
	vid_print_string_alpha(30, 100, WHITE_24, BLUE_24, tahomabold_20, "  clear otherwise");
 8403a7c:	008210b4 	movhi	r2,2114
 8403a80:	10bc3804 	addi	r2,r2,-3872
 8403a84:	d8800115 	stw	r2,4(sp)
 8403a88:	00821134 	movhi	r2,2116
 8403a8c:	10a3a804 	addi	r2,r2,-29024
 8403a90:	d8800015 	stw	r2,0(sp)
 8403a94:	01c03fc4 	movi	r7,255
 8403a98:	01804034 	movhi	r6,256
 8403a9c:	31bfffc4 	addi	r6,r6,-1
 8403aa0:	01401904 	movi	r5,100
 8403aa4:	01000784 	movi	r4,30
 8403aa8:	84057780 	call	8405778 <vid_print_string_alpha>
	vid_print_string_alpha(30, 130, WHITE_24, BLUE_24, tahomabold_20, ">Touch result");
 8403aac:	008210b4 	movhi	r2,2114
 8403ab0:	10bc3d04 	addi	r2,r2,-3852
 8403ab4:	d8800115 	stw	r2,4(sp)
 8403ab8:	00821134 	movhi	r2,2116
 8403abc:	10a3a804 	addi	r2,r2,-29024
 8403ac0:	d8800015 	stw	r2,0(sp)
 8403ac4:	01c03fc4 	movi	r7,255
 8403ac8:	01804034 	movhi	r6,256
 8403acc:	31bfffc4 	addi	r6,r6,-1
 8403ad0:	01402084 	movi	r5,130
 8403ad4:	01000784 	movi	r4,30
 8403ad8:	84057780 	call	8405778 <vid_print_string_alpha>
	vid_print_string_alpha(30, 160, WHITE_24, BLUE_24, tahomabold_20, "  to validate digit");
 8403adc:	008210b4 	movhi	r2,2114
 8403ae0:	10bc4104 	addi	r2,r2,-3836
 8403ae4:	d8800115 	stw	r2,4(sp)
 8403ae8:	00821134 	movhi	r2,2116
 8403aec:	10a3a804 	addi	r2,r2,-29024
 8403af0:	d8800015 	stw	r2,0(sp)
 8403af4:	01c03fc4 	movi	r7,255
 8403af8:	01804034 	movhi	r6,256
 8403afc:	31bfffc4 	addi	r6,r6,-1
 8403b00:	01402804 	movi	r5,160
 8403b04:	01000784 	movi	r4,30
 8403b08:	84057780 	call	8405778 <vid_print_string_alpha>
	vid_print_string_alpha(30, 190, WHITE_24, BLUE_24, tahomabold_20, "  clear otherwise");
 8403b0c:	008210b4 	movhi	r2,2114
 8403b10:	10bc3804 	addi	r2,r2,-3872
 8403b14:	d8800115 	stw	r2,4(sp)
 8403b18:	00821134 	movhi	r2,2116
 8403b1c:	10a3a804 	addi	r2,r2,-29024
 8403b20:	d8800015 	stw	r2,0(sp)
 8403b24:	01c03fc4 	movi	r7,255
 8403b28:	01804034 	movhi	r6,256
 8403b2c:	31bfffc4 	addi	r6,r6,-1
 8403b30:	01402f84 	movi	r5,190
 8403b34:	01000784 	movi	r4,30
 8403b38:	84057780 	call	8405778 <vid_print_string_alpha>
	vid_print_string_alpha(30, 220, WHITE_24, BLUE_24, tahomabold_20, ">Done to confirm");
 8403b3c:	008210b4 	movhi	r2,2114
 8403b40:	10bc4604 	addi	r2,r2,-3816
 8403b44:	d8800115 	stw	r2,4(sp)
 8403b48:	00821134 	movhi	r2,2116
 8403b4c:	10a3a804 	addi	r2,r2,-29024
 8403b50:	d8800015 	stw	r2,0(sp)
 8403b54:	01c03fc4 	movi	r7,255
 8403b58:	01804034 	movhi	r6,256
 8403b5c:	31bfffc4 	addi	r6,r6,-1
 8403b60:	01403704 	movi	r5,220
 8403b64:	01000784 	movi	r4,30
 8403b68:	84057780 	call	8405778 <vid_print_string_alpha>
	vid_print_string_alpha(30, 250, WHITE_24, BLUE_24, tahomabold_20, ">New Game");
 8403b6c:	008210b4 	movhi	r2,2114
 8403b70:	10bc4b04 	addi	r2,r2,-3796
 8403b74:	d8800115 	stw	r2,4(sp)
 8403b78:	00821134 	movhi	r2,2116
 8403b7c:	10a3a804 	addi	r2,r2,-29024
 8403b80:	d8800015 	stw	r2,0(sp)
 8403b84:	01c03fc4 	movi	r7,255
 8403b88:	01804034 	movhi	r6,256
 8403b8c:	31bfffc4 	addi	r6,r6,-1
 8403b90:	01403e84 	movi	r5,250
 8403b94:	01000784 	movi	r4,30
 8403b98:	84057780 	call	8405778 <vid_print_string_alpha>
	while(SLIDERS_DATA_REG & 0x01){
 8403b9c:	0001883a 	nop
 8403ba0:	00804034 	movhi	r2,256
 8403ba4:	10801c04 	addi	r2,r2,112
 8403ba8:	10800017 	ldw	r2,0(r2)
 8403bac:	1080004c 	andi	r2,r2,1
 8403bb0:	103ffb1e 	bne	r2,zero,8403ba0 <__alt_data_end+0xfc403ba0>

	};
	// init GUI again
	GUI(Display, DeskInfo, pTouch);
 8403bb4:	e1bfff17 	ldw	r6,-4(fp)
 8403bb8:	e17ffe17 	ldw	r5,-8(fp)
 8403bbc:	e13ffd17 	ldw	r4,-12(fp)
 8403bc0:	840394c0 	call	840394c <GUI>
}
 8403bc4:	0001883a 	nop
 8403bc8:	e037883a 	mov	sp,fp
 8403bcc:	dfc00117 	ldw	ra,4(sp)
 8403bd0:	df000017 	ldw	fp,0(sp)
 8403bd4:	dec00204 	addi	sp,sp,8
 8403bd8:	f800283a 	ret

08403bdc <NewExpression>:
#include "random_gen.h"
#include <time.h>
#include <string.h>


expression NewExpression () {
 8403bdc:	defff504 	addi	sp,sp,-44
 8403be0:	dfc00a15 	stw	ra,40(sp)
 8403be4:	df000915 	stw	fp,36(sp)
 8403be8:	df000904 	addi	fp,sp,36
 8403bec:	e13fff15 	stw	r4,-4(fp)
	expression exp;
	int op;

	srand((unsigned)time(NULL));
 8403bf0:	0009883a 	mov	r4,zero
 8403bf4:	840a5140 	call	840a514 <time>
 8403bf8:	1009883a 	mov	r4,r2
 8403bfc:	840a2400 	call	840a240 <srand>
	op = rand() % 5 + 1;
 8403c00:	840a2580 	call	840a258 <rand>
 8403c04:	01400144 	movi	r5,5
 8403c08:	1009883a 	mov	r4,r2
 8403c0c:	84070300 	call	8407030 <__modsi3>
 8403c10:	10800044 	addi	r2,r2,1
 8403c14:	e0bff715 	stw	r2,-36(fp)

	switch (op){
 8403c18:	e0bff717 	ldw	r2,-36(fp)
 8403c1c:	108001a8 	cmpgeui	r2,r2,6
 8403c20:	1000861e 	bne	r2,zero,8403e3c <NewExpression+0x260>
 8403c24:	e0bff717 	ldw	r2,-36(fp)
 8403c28:	100690ba 	slli	r3,r2,2
 8403c2c:	00821034 	movhi	r2,2112
 8403c30:	108f1004 	addi	r2,r2,15424
 8403c34:	1885883a 	add	r2,r3,r2
 8403c38:	10800017 	ldw	r2,0(r2)
 8403c3c:	1000683a 	jmp	r2
 8403c40:	08403e3c 	xorhi	at,at,248
 8403c44:	08403c58 	cmpnei	at,at,241
 8403c48:	08403cb0 	cmpltui	at,at,242
 8403c4c:	08403d10 	cmplti	at,at,244
 8403c50:	08403d6c 	andhi	at,at,245
 8403c54:	08403dd4 	ori	at,at,247
		case 1:  // operatore '+'
			exp.operator = '+';
 8403c58:	00800ac4 	movi	r2,43
 8403c5c:	e0bffb05 	stb	r2,-20(fp)
			exp.value1 = rand() % 90;
 8403c60:	840a2580 	call	840a258 <rand>
 8403c64:	01401684 	movi	r5,90
 8403c68:	1009883a 	mov	r4,r2
 8403c6c:	84070300 	call	8407030 <__modsi3>
 8403c70:	e0bff815 	stw	r2,-32(fp)
			do{				   
				exp.value2 = rand() % 90;
 8403c74:	840a2580 	call	840a258 <rand>
 8403c78:	01401684 	movi	r5,90
 8403c7c:	1009883a 	mov	r4,r2
 8403c80:	84070300 	call	8407030 <__modsi3>
 8403c84:	e0bff915 	stw	r2,-28(fp)
				exp.answer = exp.value1 + exp.value2;
 8403c88:	e0fff817 	ldw	r3,-32(fp)
 8403c8c:	e0bff917 	ldw	r2,-28(fp)
 8403c90:	1885883a 	add	r2,r3,r2
 8403c94:	e0bffa15 	stw	r2,-24(fp)
			} while (exp.answer < 0 || exp.answer >= 100);
 8403c98:	e0bffa17 	ldw	r2,-24(fp)
 8403c9c:	103ff516 	blt	r2,zero,8403c74 <__alt_data_end+0xfc403c74>
 8403ca0:	e0bffa17 	ldw	r2,-24(fp)
 8403ca4:	10801908 	cmpgei	r2,r2,100
 8403ca8:	103ff21e 	bne	r2,zero,8403c74 <__alt_data_end+0xfc403c74>
			break;
 8403cac:	00006306 	br	8403e3c <NewExpression+0x260>

		case 2:  // operatore '-'
			exp.operator = '-';
 8403cb0:	00800b44 	movi	r2,45
 8403cb4:	e0bffb05 	stb	r2,-20(fp)
			exp.value1 = rand() % 99 + 1;
 8403cb8:	840a2580 	call	840a258 <rand>
 8403cbc:	014018c4 	movi	r5,99
 8403cc0:	1009883a 	mov	r4,r2
 8403cc4:	84070300 	call	8407030 <__modsi3>
 8403cc8:	10800044 	addi	r2,r2,1
 8403ccc:	e0bff815 	stw	r2,-32(fp)
			do{				   
				exp.value2 = rand() % 40 + 1;
 8403cd0:	840a2580 	call	840a258 <rand>
 8403cd4:	01400a04 	movi	r5,40
 8403cd8:	1009883a 	mov	r4,r2
 8403cdc:	84070300 	call	8407030 <__modsi3>
 8403ce0:	10800044 	addi	r2,r2,1
 8403ce4:	e0bff915 	stw	r2,-28(fp)
				exp.answer = exp.value1 - exp.value2;
 8403ce8:	e0fff817 	ldw	r3,-32(fp)
 8403cec:	e0bff917 	ldw	r2,-28(fp)
 8403cf0:	1885c83a 	sub	r2,r3,r2
 8403cf4:	e0bffa15 	stw	r2,-24(fp)
			} while (exp.answer < 0 || exp.answer >= 100);
 8403cf8:	e0bffa17 	ldw	r2,-24(fp)
 8403cfc:	103ff416 	blt	r2,zero,8403cd0 <__alt_data_end+0xfc403cd0>
 8403d00:	e0bffa17 	ldw	r2,-24(fp)
 8403d04:	10801908 	cmpgei	r2,r2,100
 8403d08:	103ff11e 	bne	r2,zero,8403cd0 <__alt_data_end+0xfc403cd0>
			break;
 8403d0c:	00004b06 	br	8403e3c <NewExpression+0x260>

		case 3:  // operatore '*'
			exp.operator = '*';
 8403d10:	00800a84 	movi	r2,42
 8403d14:	e0bffb05 	stb	r2,-20(fp)
			exp.value1 = rand() % 12 + 1;
 8403d18:	840a2580 	call	840a258 <rand>
 8403d1c:	01400304 	movi	r5,12
 8403d20:	1009883a 	mov	r4,r2
 8403d24:	84070300 	call	8407030 <__modsi3>
 8403d28:	10800044 	addi	r2,r2,1
 8403d2c:	e0bff815 	stw	r2,-32(fp)
			do {
				exp.value2 = rand() % 10;
 8403d30:	840a2580 	call	840a258 <rand>
 8403d34:	01400284 	movi	r5,10
 8403d38:	1009883a 	mov	r4,r2
 8403d3c:	84070300 	call	8407030 <__modsi3>
 8403d40:	e0bff915 	stw	r2,-28(fp)
				exp.answer = exp.value1 * exp.value2;
 8403d44:	e0fff817 	ldw	r3,-32(fp)
 8403d48:	e0bff917 	ldw	r2,-28(fp)
 8403d4c:	1885383a 	mul	r2,r3,r2
 8403d50:	e0bffa15 	stw	r2,-24(fp)
			} while (exp.answer < 0 || exp.answer >= 100);
 8403d54:	e0bffa17 	ldw	r2,-24(fp)
 8403d58:	103ff516 	blt	r2,zero,8403d30 <__alt_data_end+0xfc403d30>
 8403d5c:	e0bffa17 	ldw	r2,-24(fp)
 8403d60:	10801908 	cmpgei	r2,r2,100
 8403d64:	103ff21e 	bne	r2,zero,8403d30 <__alt_data_end+0xfc403d30>
			break;
 8403d68:	00003406 	br	8403e3c <NewExpression+0x260>

		case 4:  // operatore '/'
			exp.operator = '/';
 8403d6c:	00800bc4 	movi	r2,47
 8403d70:	e0bffb05 	stb	r2,-20(fp)
			exp.value1 = rand() % 80 + 20;
 8403d74:	840a2580 	call	840a258 <rand>
 8403d78:	01401404 	movi	r5,80
 8403d7c:	1009883a 	mov	r4,r2
 8403d80:	84070300 	call	8407030 <__modsi3>
 8403d84:	10800504 	addi	r2,r2,20
 8403d88:	e0bff815 	stw	r2,-32(fp)
			do {
				exp.value2 = rand() % 40 + 4;
 8403d8c:	840a2580 	call	840a258 <rand>
 8403d90:	01400a04 	movi	r5,40
 8403d94:	1009883a 	mov	r4,r2
 8403d98:	84070300 	call	8407030 <__modsi3>
 8403d9c:	10800104 	addi	r2,r2,4
 8403da0:	e0bff915 	stw	r2,-28(fp)
				exp.answer = exp.value1 / exp.value2;
 8403da4:	e0bff817 	ldw	r2,-32(fp)
 8403da8:	e0fff917 	ldw	r3,-28(fp)
 8403dac:	180b883a 	mov	r5,r3
 8403db0:	1009883a 	mov	r4,r2
 8403db4:	8406fac0 	call	8406fac <__divsi3>
 8403db8:	e0bffa15 	stw	r2,-24(fp)
			} while (exp.answer < 0 || exp.answer >100);
 8403dbc:	e0bffa17 	ldw	r2,-24(fp)
 8403dc0:	103ff216 	blt	r2,zero,8403d8c <__alt_data_end+0xfc403d8c>
 8403dc4:	e0bffa17 	ldw	r2,-24(fp)
 8403dc8:	10801948 	cmpgei	r2,r2,101
 8403dcc:	103fef1e 	bne	r2,zero,8403d8c <__alt_data_end+0xfc403d8c>
			break;
 8403dd0:	00001a06 	br	8403e3c <NewExpression+0x260>

		case 5:  // operatore '%'
			exp.operator = '%';
 8403dd4:	00800944 	movi	r2,37
 8403dd8:	e0bffb05 	stb	r2,-20(fp)
			exp.value1 = rand() % 80 + 20;
 8403ddc:	840a2580 	call	840a258 <rand>
 8403de0:	01401404 	movi	r5,80
 8403de4:	1009883a 	mov	r4,r2
 8403de8:	84070300 	call	8407030 <__modsi3>
 8403dec:	10800504 	addi	r2,r2,20
 8403df0:	e0bff815 	stw	r2,-32(fp)
			do {
				exp.value2 = rand() % 90 + 4;
 8403df4:	840a2580 	call	840a258 <rand>
 8403df8:	01401684 	movi	r5,90
 8403dfc:	1009883a 	mov	r4,r2
 8403e00:	84070300 	call	8407030 <__modsi3>
 8403e04:	10800104 	addi	r2,r2,4
 8403e08:	e0bff915 	stw	r2,-28(fp)
				exp.answer = exp.value1 % exp.value2;
 8403e0c:	e0bff817 	ldw	r2,-32(fp)
 8403e10:	e0fff917 	ldw	r3,-28(fp)
 8403e14:	180b883a 	mov	r5,r3
 8403e18:	1009883a 	mov	r4,r2
 8403e1c:	84070300 	call	8407030 <__modsi3>
 8403e20:	e0bffa15 	stw	r2,-24(fp)
			} while (exp.answer < 0 || exp.answer >100);
 8403e24:	e0bffa17 	ldw	r2,-24(fp)
 8403e28:	103ff216 	blt	r2,zero,8403df4 <__alt_data_end+0xfc403df4>
 8403e2c:	e0bffa17 	ldw	r2,-24(fp)
 8403e30:	10801948 	cmpgei	r2,r2,101
 8403e34:	103fef1e 	bne	r2,zero,8403df4 <__alt_data_end+0xfc403df4>
			break;
 8403e38:	0001883a 	nop

	} //fine switch

	char expression[7] = {exp.value1/10==0 ? '_':(char)(exp.value1/10+48),
 8403e3c:	e0bff817 	ldw	r2,-32(fp)
 8403e40:	10800244 	addi	r2,r2,9
 8403e44:	108004f0 	cmpltui	r2,r2,19
 8403e48:	1000061e 	bne	r2,zero,8403e64 <NewExpression+0x288>
 8403e4c:	e0bff817 	ldw	r2,-32(fp)
 8403e50:	01400284 	movi	r5,10
 8403e54:	1009883a 	mov	r4,r2
 8403e58:	8406fac0 	call	8406fac <__divsi3>
 8403e5c:	10800c04 	addi	r2,r2,48
 8403e60:	00000106 	br	8403e68 <NewExpression+0x28c>
 8403e64:	008017c4 	movi	r2,95
 8403e68:	e0bffd05 	stb	r2,-12(fp)
						(char)(exp.value1%10+48),
 8403e6c:	e0bff817 	ldw	r2,-32(fp)
 8403e70:	01400284 	movi	r5,10
 8403e74:	1009883a 	mov	r4,r2
 8403e78:	84070300 	call	8407030 <__modsi3>
 8403e7c:	10800c04 	addi	r2,r2,48
			} while (exp.answer < 0 || exp.answer >100);
			break;

	} //fine switch

	char expression[7] = {exp.value1/10==0 ? '_':(char)(exp.value1/10+48),
 8403e80:	e0bffd45 	stb	r2,-11(fp)
						(char)(exp.value1%10+48),
						exp.operator,
 8403e84:	e0bffb03 	ldbu	r2,-20(fp)
			} while (exp.answer < 0 || exp.answer >100);
			break;

	} //fine switch

	char expression[7] = {exp.value1/10==0 ? '_':(char)(exp.value1/10+48),
 8403e88:	e0bffd85 	stb	r2,-10(fp)
						(char)(exp.value1%10+48),
						exp.operator,
						exp.value2/10==0 ? '_':(char)(exp.value2/10+48),
 8403e8c:	e0bff917 	ldw	r2,-28(fp)
 8403e90:	10800244 	addi	r2,r2,9
			} while (exp.answer < 0 || exp.answer >100);
			break;

	} //fine switch

	char expression[7] = {exp.value1/10==0 ? '_':(char)(exp.value1/10+48),
 8403e94:	108004f0 	cmpltui	r2,r2,19
 8403e98:	1000061e 	bne	r2,zero,8403eb4 <NewExpression+0x2d8>
						(char)(exp.value1%10+48),
						exp.operator,
						exp.value2/10==0 ? '_':(char)(exp.value2/10+48),
 8403e9c:	e0bff917 	ldw	r2,-28(fp)
 8403ea0:	01400284 	movi	r5,10
 8403ea4:	1009883a 	mov	r4,r2
 8403ea8:	8406fac0 	call	8406fac <__divsi3>
 8403eac:	10800c04 	addi	r2,r2,48
 8403eb0:	00000106 	br	8403eb8 <NewExpression+0x2dc>
			} while (exp.answer < 0 || exp.answer >100);
			break;

	} //fine switch

	char expression[7] = {exp.value1/10==0 ? '_':(char)(exp.value1/10+48),
 8403eb4:	008017c4 	movi	r2,95
 8403eb8:	e0bffdc5 	stb	r2,-9(fp)
						(char)(exp.value1%10+48),
						exp.operator,
						exp.value2/10==0 ? '_':(char)(exp.value2/10+48),
	   					(char)(exp.value2%10+48),
 8403ebc:	e0bff917 	ldw	r2,-28(fp)
 8403ec0:	01400284 	movi	r5,10
 8403ec4:	1009883a 	mov	r4,r2
 8403ec8:	84070300 	call	8407030 <__modsi3>
 8403ecc:	10800c04 	addi	r2,r2,48
			} while (exp.answer < 0 || exp.answer >100);
			break;

	} //fine switch

	char expression[7] = {exp.value1/10==0 ? '_':(char)(exp.value1/10+48),
 8403ed0:	e0bffe05 	stb	r2,-8(fp)
 8403ed4:	00800f44 	movi	r2,61
 8403ed8:	e0bffe45 	stb	r2,-7(fp)
 8403edc:	e03ffe85 	stb	zero,-6(fp)
						exp.operator,
						exp.value2/10==0 ? '_':(char)(exp.value2/10+48),
	   					(char)(exp.value2%10+48),
	   					'=',
	   					'\0'};
	strcpy(exp.string, expression);
 8403ee0:	e0fffd04 	addi	r3,fp,-12
 8403ee4:	e0bff804 	addi	r2,fp,-32
 8403ee8:	10800344 	addi	r2,r2,13
 8403eec:	180b883a 	mov	r5,r3
 8403ef0:	1009883a 	mov	r4,r2
 8403ef4:	840a3ec0 	call	840a3ec <strcpy>
	//printf("%d %c %d = %d\n",exp.value1, exp.operator, exp.value2, exp.answer );
	return exp;
 8403ef8:	e0bfff17 	ldw	r2,-4(fp)
 8403efc:	e0fff817 	ldw	r3,-32(fp)
 8403f00:	10c00015 	stw	r3,0(r2)
 8403f04:	e0fff917 	ldw	r3,-28(fp)
 8403f08:	10c00115 	stw	r3,4(r2)
 8403f0c:	e0fffa17 	ldw	r3,-24(fp)
 8403f10:	10c00215 	stw	r3,8(r2)
 8403f14:	e0fffb17 	ldw	r3,-20(fp)
 8403f18:	10c00315 	stw	r3,12(r2)
 8403f1c:	e0fffc17 	ldw	r3,-16(fp)
 8403f20:	10c00415 	stw	r3,16(r2)
}
 8403f24:	e0bfff17 	ldw	r2,-4(fp)
 8403f28:	e037883a 	mov	sp,fp
 8403f2c:	dfc00117 	ldw	ra,4(sp)
 8403f30:	df000017 	ldw	fp,0(sp)
 8403f34:	dec00204 	addi	sp,sp,8
 8403f38:	f800283a 	ret

08403f3c <vid_clean_screen>:
#include "LCD.h"
#endif


// richard add
void vid_clean_screen(alt_video_display* display, int color){
 8403f3c:	defffa04 	addi	sp,sp,-24
 8403f40:	dfc00515 	stw	ra,20(sp)
 8403f44:	df000415 	stw	fp,16(sp)
 8403f48:	df000404 	addi	fp,sp,16
 8403f4c:	e13ffe15 	stw	r4,-8(fp)
 8403f50:	e17fff15 	stw	r5,-4(fp)
    vid_paint_block(0 , 0,display->width, display->height, color, display);
 8403f54:	e0bffe17 	ldw	r2,-8(fp)
 8403f58:	10c00117 	ldw	r3,4(r2)
 8403f5c:	e0bffe17 	ldw	r2,-8(fp)
 8403f60:	11000217 	ldw	r4,8(r2)
 8403f64:	e0bffe17 	ldw	r2,-8(fp)
 8403f68:	d8800115 	stw	r2,4(sp)
 8403f6c:	e0bfff17 	ldw	r2,-4(fp)
 8403f70:	d8800015 	stw	r2,0(sp)
 8403f74:	200f883a 	mov	r7,r4
 8403f78:	180d883a 	mov	r6,r3
 8403f7c:	000b883a 	mov	r5,zero
 8403f80:	0009883a 	mov	r4,zero
 8403f84:	84045ac0 	call	84045ac <vid_paint_block>
}
 8403f88:	0001883a 	nop
 8403f8c:	e037883a 	mov	sp,fp
 8403f90:	dfc00117 	ldw	ra,4(sp)
 8403f94:	df000017 	ldw	fp,0(sp)
 8403f98:	dec00204 	addi	sp,sp,8
 8403f9c:	f800283a 	ret

08403fa0 <vid_draw_line>:
*           vid_draw_horiz_line(), which is much faster than 
*           vid_draw_sloped_line.
*
******************************************************************/
__inline__ void vid_draw_line(int horiz_start, int vert_start, int horiz_end, int vert_end, int width, int color, alt_video_display* display)
{
 8403fa0:	defff704 	addi	sp,sp,-36
 8403fa4:	dfc00815 	stw	ra,32(sp)
 8403fa8:	df000715 	stw	fp,28(sp)
 8403fac:	df000704 	addi	fp,sp,28
 8403fb0:	e13ffc15 	stw	r4,-16(fp)
 8403fb4:	e17ffd15 	stw	r5,-12(fp)
 8403fb8:	e1bffe15 	stw	r6,-8(fp)
 8403fbc:	e1ffff15 	stw	r7,-4(fp)
 
  if( vert_start == vert_end )
 8403fc0:	e0fffd17 	ldw	r3,-12(fp)
 8403fc4:	e0bfff17 	ldw	r2,-4(fp)
 8403fc8:	1880121e 	bne	r3,r2,8404014 <vid_draw_line+0x74>
//                         (unsigned short)horiz_end,  
//                         (unsigned short)vert_start,
//                         color,
//                         display->buffer_ptrs[display->buffer_being_written]->buffer);

    vid_draw_horiz_line( (unsigned short)horiz_start, 
 8403fcc:	e0bffc17 	ldw	r2,-16(fp)
 8403fd0:	10ffffcc 	andi	r3,r2,65535
 8403fd4:	18e0001c 	xori	r3,r3,32768
 8403fd8:	18e00004 	addi	r3,r3,-32768
 8403fdc:	e0bffe17 	ldw	r2,-8(fp)
 8403fe0:	113fffcc 	andi	r4,r2,65535
 8403fe4:	2120001c 	xori	r4,r4,32768
 8403fe8:	21200004 	addi	r4,r4,-32768
 8403fec:	e0bffd17 	ldw	r2,-12(fp)
 8403ff0:	117fffcc 	andi	r5,r2,65535
 8403ff4:	e0800417 	ldw	r2,16(fp)
 8403ff8:	d8800015 	stw	r2,0(sp)
 8403ffc:	e1c00317 	ldw	r7,12(fp)
 8404000:	280d883a 	mov	r6,r5
 8404004:	200b883a 	mov	r5,r4
 8404008:	1809883a 	mov	r4,r3
 840400c:	84046400 	call	8404640 <vid_draw_horiz_line>
                          (unsigned short)vert_end, 
                          (unsigned short)width, 
                          color,
                          display );
  }
}
 8404010:	00001006 	br	8404054 <vid_draw_line+0xb4>
                         color,
                         display );
  }
  else
  {
    vid_draw_sloped_line( (unsigned short)horiz_start, 
 8404014:	e0bffc17 	ldw	r2,-16(fp)
 8404018:	113fffcc 	andi	r4,r2,65535
 840401c:	e0bffd17 	ldw	r2,-12(fp)
 8404020:	117fffcc 	andi	r5,r2,65535
 8404024:	e0bffe17 	ldw	r2,-8(fp)
 8404028:	11bfffcc 	andi	r6,r2,65535
 840402c:	e0bfff17 	ldw	r2,-4(fp)
 8404030:	11ffffcc 	andi	r7,r2,65535
 8404034:	e0800217 	ldw	r2,8(fp)
 8404038:	10bfffcc 	andi	r2,r2,65535
 840403c:	e0c00417 	ldw	r3,16(fp)
 8404040:	d8c00215 	stw	r3,8(sp)
 8404044:	e0c00317 	ldw	r3,12(fp)
 8404048:	d8c00115 	stw	r3,4(sp)
 840404c:	d8800015 	stw	r2,0(sp)
 8404050:	84048100 	call	8404810 <vid_draw_sloped_line>
                          (unsigned short)vert_end, 
                          (unsigned short)width, 
                          color,
                          display );
  }
}
 8404054:	0001883a 	nop
 8404058:	e037883a 	mov	sp,fp
 840405c:	dfc00117 	ldw	ra,4(sp)
 8404060:	df000017 	ldw	fp,0(sp)
 8404064:	dec00204 	addi	sp,sp,8
 8404068:	f800283a 	ret

0840406c <vid_move_block>:
*           the backfill_color parameter.
*
******************************************************************/

int vid_move_block(int xbegin, int ybegin, int xend, int yend, int x_distance, int y_distance, int backfill_color, alt_video_display* display)
{
 840406c:	defff504 	addi	sp,sp,-44
 8404070:	dfc00a15 	stw	ra,40(sp)
 8404074:	df000915 	stw	fp,36(sp)
 8404078:	df000904 	addi	fp,sp,36
 840407c:	e13ffc15 	stw	r4,-16(fp)
 8404080:	e17ffd15 	stw	r5,-12(fp)
 8404084:	e1bffe15 	stw	r6,-8(fp)
 8404088:	e1ffff15 	stw	r7,-4(fp)
  int read_x, read_y, write_x, write_y;
  short temp_pixel;

  if(x_distance <= 0 && y_distance <= 0) {
 840408c:	e0800217 	ldw	r2,8(fp)
 8404090:	00803516 	blt	zero,r2,8404168 <vid_move_block+0xfc>
 8404094:	e0800317 	ldw	r2,12(fp)
 8404098:	00803316 	blt	zero,r2,8404168 <vid_move_block+0xfc>
    //Move by rows because they are contiguous in memory (could help speed if in SDRAM)
    for (read_y = ybegin; read_y < yend; read_y++) {
 840409c:	e0bffd17 	ldw	r2,-12(fp)
 84040a0:	e0bff815 	stw	r2,-32(fp)
 84040a4:	00002d06 	br	840415c <vid_move_block+0xf0>
      write_y = read_y + y_distance;
 84040a8:	e0fff817 	ldw	r3,-32(fp)
 84040ac:	e0800317 	ldw	r2,12(fp)
 84040b0:	1885883a 	add	r2,r3,r2
 84040b4:	e0bff915 	stw	r2,-28(fp)
      for(read_x = xbegin; read_x < xend; read_x++) {
 84040b8:	e0bffc17 	ldw	r2,-16(fp)
 84040bc:	e0bff715 	stw	r2,-36(fp)
 84040c0:	00002006 	br	8404144 <vid_move_block+0xd8>
        write_x = read_x + x_distance;
 84040c4:	e0fff717 	ldw	r3,-36(fp)
 84040c8:	e0800217 	ldw	r2,8(fp)
 84040cc:	1885883a 	add	r2,r3,r2
 84040d0:	e0bffa15 	stw	r2,-24(fp)
        temp_pixel = vid_get_pixel(read_x, read_y, display);
 84040d4:	e1800517 	ldw	r6,20(fp)
 84040d8:	e17ff817 	ldw	r5,-32(fp)
 84040dc:	e13ff717 	ldw	r4,-36(fp)
 84040e0:	840456c0 	call	840456c <vid_get_pixel>
 84040e4:	e0bffb0d 	sth	r2,-20(fp)
        vid_set_pixel(write_x, write_y, temp_pixel);
 84040e8:	e0bffb0f 	ldh	r2,-20(fp)
 84040ec:	100d883a 	mov	r6,r2
 84040f0:	e17ff917 	ldw	r5,-28(fp)
 84040f4:	e13ffa17 	ldw	r4,-24(fp)
 84040f8:	84044cc0 	call	84044cc <vid_set_pixel>
        if(read_x >= xend + x_distance || read_y >= yend + y_distance)
 84040fc:	e0fffe17 	ldw	r3,-8(fp)
 8404100:	e0800217 	ldw	r2,8(fp)
 8404104:	1885883a 	add	r2,r3,r2
 8404108:	e0fff717 	ldw	r3,-36(fp)
 840410c:	1880050e 	bge	r3,r2,8404124 <vid_move_block+0xb8>
 8404110:	e0ffff17 	ldw	r3,-4(fp)
 8404114:	e0800317 	ldw	r2,12(fp)
 8404118:	1885883a 	add	r2,r3,r2
 840411c:	e0fff817 	ldw	r3,-32(fp)
 8404120:	18800516 	blt	r3,r2,8404138 <vid_move_block+0xcc>
        {
	        vid_set_pixel(read_x, read_y, backfill_color);
 8404124:	e0800417 	ldw	r2,16(fp)
 8404128:	100d883a 	mov	r6,r2
 840412c:	e17ff817 	ldw	r5,-32(fp)
 8404130:	e13ff717 	ldw	r4,-36(fp)
 8404134:	84044cc0 	call	84044cc <vid_set_pixel>

  if(x_distance <= 0 && y_distance <= 0) {
    //Move by rows because they are contiguous in memory (could help speed if in SDRAM)
    for (read_y = ybegin; read_y < yend; read_y++) {
      write_y = read_y + y_distance;
      for(read_x = xbegin; read_x < xend; read_x++) {
 8404138:	e0bff717 	ldw	r2,-36(fp)
 840413c:	10800044 	addi	r2,r2,1
 8404140:	e0bff715 	stw	r2,-36(fp)
 8404144:	e0fff717 	ldw	r3,-36(fp)
 8404148:	e0bffe17 	ldw	r2,-8(fp)
 840414c:	18bfdd16 	blt	r3,r2,84040c4 <__alt_data_end+0xfc4040c4>
  int read_x, read_y, write_x, write_y;
  short temp_pixel;

  if(x_distance <= 0 && y_distance <= 0) {
    //Move by rows because they are contiguous in memory (could help speed if in SDRAM)
    for (read_y = ybegin; read_y < yend; read_y++) {
 8404150:	e0bff817 	ldw	r2,-32(fp)
 8404154:	10800044 	addi	r2,r2,1
 8404158:	e0bff815 	stw	r2,-32(fp)
 840415c:	e0fff817 	ldw	r3,-32(fp)
 8404160:	e0bfff17 	ldw	r2,-4(fp)
 8404164:	18bfd016 	blt	r3,r2,84040a8 <__alt_data_end+0xfc4040a8>
	        vid_set_pixel(read_x, read_y, backfill_color);
        }
      }
    }
  }
  return (0);
 8404168:	0005883a 	mov	r2,zero
}
 840416c:	e037883a 	mov	sp,fp
 8404170:	dfc00117 	ldw	ra,4(sp)
 8404174:	df000017 	ldw	fp,0(sp)
 8404178:	dec00204 	addi	sp,sp,8
 840417c:	f800283a 	ret

08404180 <vid_print_string>:
*           using the specified font and color.
*           Calls vid_print_char
*
******************************************************************/
int vid_print_string(int horiz_offset, int vert_offset, int color, char *font, alt_video_display* display, char string[])
{
 8404180:	defff604 	addi	sp,sp,-40
 8404184:	dfc00915 	stw	ra,36(sp)
 8404188:	df000815 	stw	fp,32(sp)
 840418c:	df000804 	addi	fp,sp,32
 8404190:	e13ffc15 	stw	r4,-16(fp)
 8404194:	e17ffd15 	stw	r5,-12(fp)
 8404198:	e1bffe15 	stw	r6,-8(fp)
 840419c:	e1ffff15 	stw	r7,-4(fp)
  int i = 0;
 84041a0:	e03ffa15 	stw	zero,-24(fp)
  int original_horiz_offset;

  original_horiz_offset = horiz_offset;
 84041a4:	e0bffc17 	ldw	r2,-16(fp)
 84041a8:	e0bffb15 	stw	r2,-20(fp)

  // Print until we hit the '\0' char.
  while (string[i]) {
 84041ac:	00002806 	br	8404250 <vid_print_string+0xd0>
    //Handle newline char here.
    if (string[i] == '\n') {
 84041b0:	e0bffa17 	ldw	r2,-24(fp)
 84041b4:	e0c00317 	ldw	r3,12(fp)
 84041b8:	1885883a 	add	r2,r3,r2
 84041bc:	10800003 	ldbu	r2,0(r2)
 84041c0:	10803fcc 	andi	r2,r2,255
 84041c4:	1080201c 	xori	r2,r2,128
 84041c8:	10bfe004 	addi	r2,r2,-128
 84041cc:	10800298 	cmpnei	r2,r2,10
 84041d0:	1000091e 	bne	r2,zero,84041f8 <vid_print_string+0x78>
      horiz_offset = original_horiz_offset;
 84041d4:	e0bffb17 	ldw	r2,-20(fp)
 84041d8:	e0bffc15 	stw	r2,-16(fp)
      vert_offset += 12;
 84041dc:	e0bffd17 	ldw	r2,-12(fp)
 84041e0:	10800304 	addi	r2,r2,12
 84041e4:	e0bffd15 	stw	r2,-12(fp)
      i++;
 84041e8:	e0bffa17 	ldw	r2,-24(fp)
 84041ec:	10800044 	addi	r2,r2,1
 84041f0:	e0bffa15 	stw	r2,-24(fp)
      continue;
 84041f4:	00001606 	br	8404250 <vid_print_string+0xd0>
    }
    // Lay down that character and increment our offsets.
    vid_print_char (horiz_offset, vert_offset, color, string[i], font, display);
 84041f8:	e0bffa17 	ldw	r2,-24(fp)
 84041fc:	e0c00317 	ldw	r3,12(fp)
 8404200:	1885883a 	add	r2,r3,r2
 8404204:	10800003 	ldbu	r2,0(r2)
 8404208:	10c03fcc 	andi	r3,r2,255
 840420c:	18c0201c 	xori	r3,r3,128
 8404210:	18ffe004 	addi	r3,r3,-128
 8404214:	e0800217 	ldw	r2,8(fp)
 8404218:	d8800115 	stw	r2,4(sp)
 840421c:	e0bfff17 	ldw	r2,-4(fp)
 8404220:	d8800015 	stw	r2,0(sp)
 8404224:	180f883a 	mov	r7,r3
 8404228:	e1bffe17 	ldw	r6,-8(fp)
 840422c:	e17ffd17 	ldw	r5,-12(fp)
 8404230:	e13ffc17 	ldw	r4,-16(fp)
 8404234:	84043e00 	call	84043e0 <vid_print_char>
    i++;
 8404238:	e0bffa17 	ldw	r2,-24(fp)
 840423c:	10800044 	addi	r2,r2,1
 8404240:	e0bffa15 	stw	r2,-24(fp)
    horiz_offset += 8;
 8404244:	e0bffc17 	ldw	r2,-16(fp)
 8404248:	10800204 	addi	r2,r2,8
 840424c:	e0bffc15 	stw	r2,-16(fp)
  int original_horiz_offset;

  original_horiz_offset = horiz_offset;

  // Print until we hit the '\0' char.
  while (string[i]) {
 8404250:	e0bffa17 	ldw	r2,-24(fp)
 8404254:	e0c00317 	ldw	r3,12(fp)
 8404258:	1885883a 	add	r2,r3,r2
 840425c:	10800003 	ldbu	r2,0(r2)
 8404260:	10803fcc 	andi	r2,r2,255
 8404264:	1080201c 	xori	r2,r2,128
 8404268:	10bfe004 	addi	r2,r2,-128
 840426c:	103fd01e 	bne	r2,zero,84041b0 <__alt_data_end+0xfc4041b0>
    // Lay down that character and increment our offsets.
    vid_print_char (horiz_offset, vert_offset, color, string[i], font, display);
    i++;
    horiz_offset += 8;
  }
  return (0);
 8404270:	0005883a 	mov	r2,zero
}
 8404274:	e037883a 	mov	sp,fp
 8404278:	dfc00117 	ldw	ra,4(sp)
 840427c:	df000017 	ldw	fp,0(sp)
 8404280:	dec00204 	addi	sp,sp,8
 8404284:	f800283a 	ret

08404288 <vid_draw_box>:
*  points.  The fill parameter tells the function whether or not
*  to fill in the box.  1 = fill, 0 = do not fill.
*
******************************************************************/
int vid_draw_box (int horiz_start, int vert_start, int horiz_end, int vert_end, int color, int fill, alt_video_display* display)
{
 8404288:	defff704 	addi	sp,sp,-36
 840428c:	dfc00815 	stw	ra,32(sp)
 8404290:	df000715 	stw	fp,28(sp)
 8404294:	df000704 	addi	fp,sp,28
 8404298:	e13ffc15 	stw	r4,-16(fp)
 840429c:	e17ffd15 	stw	r5,-12(fp)
 84042a0:	e1bffe15 	stw	r6,-8(fp)
 84042a4:	e1ffff15 	stw	r7,-4(fp)

  // If we want to fill in our box
  if (fill) {
 84042a8:	e0800317 	ldw	r2,12(fp)
 84042ac:	10000a26 	beq	r2,zero,84042d8 <vid_draw_box+0x50>
     vid_paint_block (horiz_start, vert_start, horiz_end, vert_end, color, display);
 84042b0:	e0800417 	ldw	r2,16(fp)
 84042b4:	d8800115 	stw	r2,4(sp)
 84042b8:	e0800217 	ldw	r2,8(fp)
 84042bc:	d8800015 	stw	r2,0(sp)
 84042c0:	e1ffff17 	ldw	r7,-4(fp)
 84042c4:	e1bffe17 	ldw	r6,-8(fp)
 84042c8:	e17ffd17 	ldw	r5,-12(fp)
 84042cc:	e13ffc17 	ldw	r4,-16(fp)
 84042d0:	84045ac0 	call	84045ac <vid_paint_block>
 84042d4:	00003c06 	br	84043c8 <vid_draw_box+0x140>
  // If we're not filling in the box, just draw four lines.
  } else {
    vid_draw_line(horiz_start, vert_start, horiz_start, vert_end-1, 1, color, display);
 84042d8:	e0bfff17 	ldw	r2,-4(fp)
 84042dc:	10ffffc4 	addi	r3,r2,-1
 84042e0:	e0800417 	ldw	r2,16(fp)
 84042e4:	d8800215 	stw	r2,8(sp)
 84042e8:	e0800217 	ldw	r2,8(fp)
 84042ec:	d8800115 	stw	r2,4(sp)
 84042f0:	00800044 	movi	r2,1
 84042f4:	d8800015 	stw	r2,0(sp)
 84042f8:	180f883a 	mov	r7,r3
 84042fc:	e1bffc17 	ldw	r6,-16(fp)
 8404300:	e17ffd17 	ldw	r5,-12(fp)
 8404304:	e13ffc17 	ldw	r4,-16(fp)
 8404308:	8403fa00 	call	8403fa0 <vid_draw_line>
    vid_draw_line(horiz_end-1, vert_start, horiz_end-1, vert_end-1, 1, color, display);
 840430c:	e0bffe17 	ldw	r2,-8(fp)
 8404310:	10ffffc4 	addi	r3,r2,-1
 8404314:	e0bffe17 	ldw	r2,-8(fp)
 8404318:	113fffc4 	addi	r4,r2,-1
 840431c:	e0bfff17 	ldw	r2,-4(fp)
 8404320:	117fffc4 	addi	r5,r2,-1
 8404324:	e0800417 	ldw	r2,16(fp)
 8404328:	d8800215 	stw	r2,8(sp)
 840432c:	e0800217 	ldw	r2,8(fp)
 8404330:	d8800115 	stw	r2,4(sp)
 8404334:	00800044 	movi	r2,1
 8404338:	d8800015 	stw	r2,0(sp)
 840433c:	280f883a 	mov	r7,r5
 8404340:	200d883a 	mov	r6,r4
 8404344:	e17ffd17 	ldw	r5,-12(fp)
 8404348:	1809883a 	mov	r4,r3
 840434c:	8403fa00 	call	8403fa0 <vid_draw_line>
    vid_draw_line(horiz_start, vert_start, horiz_end-1, vert_start, 1, color, display);
 8404350:	e0bffe17 	ldw	r2,-8(fp)
 8404354:	10ffffc4 	addi	r3,r2,-1
 8404358:	e0800417 	ldw	r2,16(fp)
 840435c:	d8800215 	stw	r2,8(sp)
 8404360:	e0800217 	ldw	r2,8(fp)
 8404364:	d8800115 	stw	r2,4(sp)
 8404368:	00800044 	movi	r2,1
 840436c:	d8800015 	stw	r2,0(sp)
 8404370:	e1fffd17 	ldw	r7,-12(fp)
 8404374:	180d883a 	mov	r6,r3
 8404378:	e17ffd17 	ldw	r5,-12(fp)
 840437c:	e13ffc17 	ldw	r4,-16(fp)
 8404380:	8403fa00 	call	8403fa0 <vid_draw_line>
    vid_draw_line(horiz_start, vert_end-1, horiz_end-1, vert_end-1, 1, color, display);
 8404384:	e0bfff17 	ldw	r2,-4(fp)
 8404388:	10ffffc4 	addi	r3,r2,-1
 840438c:	e0bffe17 	ldw	r2,-8(fp)
 8404390:	113fffc4 	addi	r4,r2,-1
 8404394:	e0bfff17 	ldw	r2,-4(fp)
 8404398:	117fffc4 	addi	r5,r2,-1
 840439c:	e0800417 	ldw	r2,16(fp)
 84043a0:	d8800215 	stw	r2,8(sp)
 84043a4:	e0800217 	ldw	r2,8(fp)
 84043a8:	d8800115 	stw	r2,4(sp)
 84043ac:	00800044 	movi	r2,1
 84043b0:	d8800015 	stw	r2,0(sp)
 84043b4:	280f883a 	mov	r7,r5
 84043b8:	200d883a 	mov	r6,r4
 84043bc:	180b883a 	mov	r5,r3
 84043c0:	e13ffc17 	ldw	r4,-16(fp)
 84043c4:	8403fa00 	call	8403fa0 <vid_draw_line>
  }

  return (0);
 84043c8:	0005883a 	mov	r2,zero
}
 84043cc:	e037883a 	mov	sp,fp
 84043d0:	dfc00117 	ldw	ra,4(sp)
 84043d4:	df000017 	ldw	fp,0(sp)
 84043d8:	dec00204 	addi	sp,sp,8
 84043dc:	f800283a 	ret

084043e0 <vid_print_char>:
*           screen using the specified font and color.
*
******************************************************************/

int vid_print_char (int horiz_offset, int vert_offset, int color, char character, char *font, alt_video_display* display)
{
 84043e0:	defff704 	addi	sp,sp,-36
 84043e4:	dfc00815 	stw	ra,32(sp)
 84043e8:	df000715 	stw	fp,28(sp)
 84043ec:	df000704 	addi	fp,sp,28
 84043f0:	e13ffc15 	stw	r4,-16(fp)
 84043f4:	e17ffd15 	stw	r5,-12(fp)
 84043f8:	e1bffe15 	stw	r6,-8(fp)
 84043fc:	3805883a 	mov	r2,r7
 8404400:	e0bfff05 	stb	r2,-4(fp)
  int i, j;
  
  char temp_char, char_row;

  // Convert the ASCII value to an array offset
  temp_char = (character - 0x20);
 8404404:	e0bfff03 	ldbu	r2,-4(fp)
 8404408:	10bff804 	addi	r2,r2,-32
 840440c:	e0bffb05 	stb	r2,-20(fp)

  //Each character is 8 pixels wide and 11 tall.
  for(i = 0; i < 11; i++) {
 8404410:	e03ff915 	stw	zero,-28(fp)
 8404414:	00002406 	br	84044a8 <vid_print_char+0xc8>
      char_row = *(font + (temp_char * FONT_10PT_ROW) + i);
 8404418:	e0bffb07 	ldb	r2,-20(fp)
 840441c:	108002e4 	muli	r2,r2,11
 8404420:	1007883a 	mov	r3,r2
 8404424:	e0bff917 	ldw	r2,-28(fp)
 8404428:	1885883a 	add	r2,r3,r2
 840442c:	e0c00217 	ldw	r3,8(fp)
 8404430:	1885883a 	add	r2,r3,r2
 8404434:	10800003 	ldbu	r2,0(r2)
 8404438:	e0bffb45 	stb	r2,-19(fp)
    for (j = 0; j < 8; j++) {
 840443c:	e03ffa15 	stw	zero,-24(fp)
 8404440:	00001306 	br	8404490 <vid_print_char+0xb0>
      //If the font table says the pixel in this location is on for this character, then set it.
      if (char_row & (((unsigned char)0x80) >> j)) {
 8404444:	e0fffb47 	ldb	r3,-19(fp)
 8404448:	01002004 	movi	r4,128
 840444c:	e0bffa17 	ldw	r2,-24(fp)
 8404450:	2085d83a 	sra	r2,r4,r2
 8404454:	1884703a 	and	r2,r3,r2
 8404458:	10000a26 	beq	r2,zero,8404484 <vid_print_char+0xa4>
        vid_set_pixel((horiz_offset + j), (vert_offset + i), color); // plot the pixel
 840445c:	e0fffc17 	ldw	r3,-16(fp)
 8404460:	e0bffa17 	ldw	r2,-24(fp)
 8404464:	1889883a 	add	r4,r3,r2
 8404468:	e0fffd17 	ldw	r3,-12(fp)
 840446c:	e0bff917 	ldw	r2,-28(fp)
 8404470:	1885883a 	add	r2,r3,r2
 8404474:	e0fffe17 	ldw	r3,-8(fp)
 8404478:	180d883a 	mov	r6,r3
 840447c:	100b883a 	mov	r5,r2
 8404480:	84044cc0 	call	84044cc <vid_set_pixel>
  temp_char = (character - 0x20);

  //Each character is 8 pixels wide and 11 tall.
  for(i = 0; i < 11; i++) {
      char_row = *(font + (temp_char * FONT_10PT_ROW) + i);
    for (j = 0; j < 8; j++) {
 8404484:	e0bffa17 	ldw	r2,-24(fp)
 8404488:	10800044 	addi	r2,r2,1
 840448c:	e0bffa15 	stw	r2,-24(fp)
 8404490:	e0bffa17 	ldw	r2,-24(fp)
 8404494:	10800210 	cmplti	r2,r2,8
 8404498:	103fea1e 	bne	r2,zero,8404444 <__alt_data_end+0xfc404444>

  // Convert the ASCII value to an array offset
  temp_char = (character - 0x20);

  //Each character is 8 pixels wide and 11 tall.
  for(i = 0; i < 11; i++) {
 840449c:	e0bff917 	ldw	r2,-28(fp)
 84044a0:	10800044 	addi	r2,r2,1
 84044a4:	e0bff915 	stw	r2,-28(fp)
 84044a8:	e0bff917 	ldw	r2,-28(fp)
 84044ac:	108002d0 	cmplti	r2,r2,11
 84044b0:	103fd91e 	bne	r2,zero,8404418 <__alt_data_end+0xfc404418>
      if (char_row & (((unsigned char)0x80) >> j)) {
        vid_set_pixel((horiz_offset + j), (vert_offset + i), color); // plot the pixel
      }
    }
  }
  return(0);
 84044b4:	0005883a 	mov	r2,zero
}
 84044b8:	e037883a 	mov	sp,fp
 84044bc:	dfc00117 	ldw	ra,4(sp)
 84044c0:	df000017 	ldw	fp,0(sp)
 84044c4:	dec00204 	addi	sp,sp,8
 84044c8:	f800283a 	ret

084044cc <vid_set_pixel>:
*           efficient when painting large areas of the screen.
*
******************************************************************/

void vid_set_pixel(int horiz, int vert, unsigned int color)
{
 84044cc:	defffa04 	addi	sp,sp,-24
 84044d0:	dfc00515 	stw	ra,20(sp)
 84044d4:	df000415 	stw	fp,16(sp)
 84044d8:	df000404 	addi	fp,sp,16
 84044dc:	e13ffd15 	stw	r4,-12(fp)
 84044e0:	e17ffe15 	stw	r5,-8(fp)
 84044e4:	e1bfff15 	stw	r6,-4(fp)
	alt_u16 color16;


	// encode to RGB  5 6 5
	color16 = (color & 0xFF) >> 3; // blue
 84044e8:	e0bfff17 	ldw	r2,-4(fp)
 84044ec:	10803fcc 	andi	r2,r2,255
 84044f0:	1004d0fa 	srli	r2,r2,3
 84044f4:	e0bffc0d 	sth	r2,-16(fp)
	color16 |= (color & 0xFC00) >> 5; // green
 84044f8:	e0bfff17 	ldw	r2,-4(fp)
 84044fc:	10bf000c 	andi	r2,r2,64512
 8404500:	1004d17a 	srli	r2,r2,5
 8404504:	1007883a 	mov	r3,r2
 8404508:	e0bffc0b 	ldhu	r2,-16(fp)
 840450c:	1884b03a 	or	r2,r3,r2
 8404510:	e0bffc0d 	sth	r2,-16(fp)
	color16 |= (color & 0xF80000) >> 8; // blue
 8404514:	e0bfff17 	ldw	r2,-4(fp)
 8404518:	10803e2c 	andhi	r2,r2,248
 840451c:	1004d23a 	srli	r2,r2,8
 8404520:	1007883a 	mov	r3,r2
 8404524:	e0bffc0b 	ldhu	r2,-16(fp)
 8404528:	1884b03a 	or	r2,r3,r2
 840452c:	e0bffc0d 	sth	r2,-16(fp)
	LCD_DrawPoint(horiz, vert, color16);
 8404530:	e0bffd17 	ldw	r2,-12(fp)
 8404534:	10ffffcc 	andi	r3,r2,65535
 8404538:	e0bffe17 	ldw	r2,-8(fp)
 840453c:	10bfffcc 	andi	r2,r2,65535
 8404540:	e13ffc0b 	ldhu	r4,-16(fp)
 8404544:	200d883a 	mov	r6,r4
 8404548:	100b883a 	mov	r5,r2
 840454c:	1809883a 	mov	r4,r3
 8404550:	84021c80 	call	84021c8 <LCD_DrawPoint>

}
 8404554:	0001883a 	nop
 8404558:	e037883a 	mov	sp,fp
 840455c:	dfc00117 	ldw	ra,4(sp)
 8404560:	df000017 	ldw	fp,0(sp)
 8404564:	dec00204 	addi	sp,sp,8
 8404568:	f800283a 	ret

0840456c <vid_get_pixel>:
*
*  Purpose: Reads the color of the pixel at the given coordinates
*
******************************************************************/
short vid_get_pixel(int horiz, int vert, alt_video_display* display)
{
 840456c:	defffb04 	addi	sp,sp,-20
 8404570:	dfc00415 	stw	ra,16(sp)
 8404574:	df000315 	stw	fp,12(sp)
 8404578:	df000304 	addi	fp,sp,12
 840457c:	e13ffd15 	stw	r4,-12(fp)
 8404580:	e17ffe15 	stw	r5,-8(fp)
 8404584:	e1bfff15 	stw	r6,-4(fp)
	printf("vid_get_pixel is not implemented\r\n");
 8404588:	010210b4 	movhi	r4,2114
 840458c:	213c4e04 	addi	r4,r4,-3784
 8404590:	840a22c0 	call	840a22c <puts>
	/*LCD_ReadPoint(horiz, vert);*/
	return 0;
 8404594:	0005883a 	mov	r2,zero
}
 8404598:	e037883a 	mov	sp,fp
 840459c:	dfc00117 	ldw	ra,4(sp)
 84045a0:	df000017 	ldw	fp,0(sp)
 84045a4:	dec00204 	addi	sp,sp,8
 84045a8:	f800283a 	ret

084045ac <vid_paint_block>:
*           The color parameter must contain two pixel's worth
*           (32 bits).
*
******************************************************************/
void vid_paint_block (int Hstart,int Vstart, int Hend, int Vend, int color, alt_video_display* display)
{
 84045ac:	defff804 	addi	sp,sp,-32
 84045b0:	dfc00715 	stw	ra,28(sp)
 84045b4:	df000615 	stw	fp,24(sp)
 84045b8:	df000604 	addi	fp,sp,24
 84045bc:	e13ffc15 	stw	r4,-16(fp)
 84045c0:	e17ffd15 	stw	r5,-12(fp)
 84045c4:	e1bffe15 	stw	r6,-8(fp)
 84045c8:	e1ffff15 	stw	r7,-4(fp)
	int x,y;
	for(y=Vstart;y<Vend;y++){
 84045cc:	e0bffd17 	ldw	r2,-12(fp)
 84045d0:	e0bffb15 	stw	r2,-20(fp)
 84045d4:	00001106 	br	840461c <vid_paint_block+0x70>
		for(x=Hstart;x<Hend;x++){
 84045d8:	e0bffc17 	ldw	r2,-16(fp)
 84045dc:	e0bffa15 	stw	r2,-24(fp)
 84045e0:	00000806 	br	8404604 <vid_paint_block+0x58>
			vid_set_pixel(x, y, color);
 84045e4:	e0800217 	ldw	r2,8(fp)
 84045e8:	100d883a 	mov	r6,r2
 84045ec:	e17ffb17 	ldw	r5,-20(fp)
 84045f0:	e13ffa17 	ldw	r4,-24(fp)
 84045f4:	84044cc0 	call	84044cc <vid_set_pixel>
******************************************************************/
void vid_paint_block (int Hstart,int Vstart, int Hend, int Vend, int color, alt_video_display* display)
{
	int x,y;
	for(y=Vstart;y<Vend;y++){
		for(x=Hstart;x<Hend;x++){
 84045f8:	e0bffa17 	ldw	r2,-24(fp)
 84045fc:	10800044 	addi	r2,r2,1
 8404600:	e0bffa15 	stw	r2,-24(fp)
 8404604:	e0fffa17 	ldw	r3,-24(fp)
 8404608:	e0bffe17 	ldw	r2,-8(fp)
 840460c:	18bff516 	blt	r3,r2,84045e4 <__alt_data_end+0xfc4045e4>
*
******************************************************************/
void vid_paint_block (int Hstart,int Vstart, int Hend, int Vend, int color, alt_video_display* display)
{
	int x,y;
	for(y=Vstart;y<Vend;y++){
 8404610:	e0bffb17 	ldw	r2,-20(fp)
 8404614:	10800044 	addi	r2,r2,1
 8404618:	e0bffb15 	stw	r2,-20(fp)
 840461c:	e0fffb17 	ldw	r3,-20(fp)
 8404620:	e0bfff17 	ldw	r2,-4(fp)
 8404624:	18bfec16 	blt	r3,r2,84045d8 <__alt_data_end+0xfc4045d8>
		for(x=Hstart;x<Hend;x++){
			vid_set_pixel(x, y, color);
		}
	}
}
 8404628:	0001883a 	nop
 840462c:	e037883a 	mov	sp,fp
 8404630:	dfc00117 	ldw	ra,4(sp)
 8404634:	df000017 	ldw	fp,0(sp)
 8404638:	dec00204 	addi	sp,sp,8
 840463c:	f800283a 	ret

08404640 <vid_draw_horiz_line>:
*  Purpose: Draws a horizontal line on the screen quickly.
*           Good for filling stuff.
*
******************************************************************/
void vid_draw_horiz_line (short Hstart, short Hend, int V, int color, alt_video_display* display)
{
 8404640:	defff904 	addi	sp,sp,-28
 8404644:	dfc00615 	stw	ra,24(sp)
 8404648:	df000515 	stw	fp,20(sp)
 840464c:	df000504 	addi	fp,sp,20
 8404650:	2007883a 	mov	r3,r4
 8404654:	2805883a 	mov	r2,r5
 8404658:	e1bffe15 	stw	r6,-8(fp)
 840465c:	e1ffff15 	stw	r7,-4(fp)
 8404660:	e0fffc0d 	sth	r3,-16(fp)
 8404664:	e0bffd0d 	sth	r2,-12(fp)
	int x;
	for(x=Hstart;x<Hend;x++){
 8404668:	e0bffc0f 	ldh	r2,-16(fp)
 840466c:	e0bffb15 	stw	r2,-20(fp)
 8404670:	00000806 	br	8404694 <vid_draw_horiz_line+0x54>
		vid_set_pixel(x, V, color);
 8404674:	e0bfff17 	ldw	r2,-4(fp)
 8404678:	100d883a 	mov	r6,r2
 840467c:	e17ffe17 	ldw	r5,-8(fp)
 8404680:	e13ffb17 	ldw	r4,-20(fp)
 8404684:	84044cc0 	call	84044cc <vid_set_pixel>
*
******************************************************************/
void vid_draw_horiz_line (short Hstart, short Hend, int V, int color, alt_video_display* display)
{
	int x;
	for(x=Hstart;x<Hend;x++){
 8404688:	e0bffb17 	ldw	r2,-20(fp)
 840468c:	10800044 	addi	r2,r2,1
 8404690:	e0bffb15 	stw	r2,-20(fp)
 8404694:	e0bffd0f 	ldh	r2,-12(fp)
 8404698:	e0fffb17 	ldw	r3,-20(fp)
 840469c:	18bff516 	blt	r3,r2,8404674 <__alt_data_end+0xfc404674>
		vid_set_pixel(x, V, color);
	}
}
 84046a0:	0001883a 	nop
 84046a4:	e037883a 	mov	sp,fp
 84046a8:	dfc00117 	ldw	ra,4(sp)
 84046ac:	df000017 	ldw	fp,0(sp)
 84046b0:	dec00204 	addi	sp,sp,8
 84046b4:	f800283a 	ret

084046b8 <vid_merge_colors>:
*  Purpose: Takes 5-bit color values for each red, green, and blue
*           and merges them into one 16-bit color value.
*
******************************************************************/
int vid_merge_colors(int red, int green, int blue)
{
 84046b8:	defffc04 	addi	sp,sp,-16
 84046bc:	df000315 	stw	fp,12(sp)
 84046c0:	df000304 	addi	fp,sp,12
 84046c4:	e13ffd15 	stw	r4,-12(fp)
 84046c8:	e17ffe15 	stw	r5,-8(fp)
 84046cc:	e1bfff15 	stw	r6,-4(fp)
  // Green actually has 6-bits, but we'll make it's LSB 1 to be consistent.
  return ((blue) | (((green << 1) | 0x1) << 5) | (red << 11));
 84046d0:	e0bffe17 	ldw	r2,-8(fp)
 84046d4:	1085883a 	add	r2,r2,r2
 84046d8:	10800054 	ori	r2,r2,1
 84046dc:	1006917a 	slli	r3,r2,5
 84046e0:	e0bfff17 	ldw	r2,-4(fp)
 84046e4:	1886b03a 	or	r3,r3,r2
 84046e8:	e0bffd17 	ldw	r2,-12(fp)
 84046ec:	100492fa 	slli	r2,r2,11
 84046f0:	1884b03a 	or	r2,r3,r2
}
 84046f4:	e037883a 	mov	sp,fp
 84046f8:	df000017 	ldw	fp,0(sp)
 84046fc:	dec00104 	addi	sp,sp,4
 8404700:	f800283a 	ret

08404704 <vid_color_convert24_16>:
*           sample and converts it to 16-bits, displayable by the 
*           VGA controller in 16-bit mode
*
******************************************************************/
unsigned short vid_color_convert24_16(char* color24)
{
 8404704:	defffc04 	addi	sp,sp,-16
 8404708:	df000315 	stw	fp,12(sp)
 840470c:	df000304 	addi	fp,sp,12
 8404710:	e13fff15 	stw	r4,-4(fp)
	unsigned char red, green, blue;
	unsigned short output;
	
	red = *(color24 + 0) & 0xF8;
 8404714:	e0bfff17 	ldw	r2,-4(fp)
 8404718:	10800003 	ldbu	r2,0(r2)
 840471c:	1007883a 	mov	r3,r2
 8404720:	00bffe04 	movi	r2,-8
 8404724:	1884703a 	and	r2,r3,r2
 8404728:	e0bffd05 	stb	r2,-12(fp)
	green = *(color24 + 1) & 0xFC; // green is actualy 6 bits
 840472c:	e0bfff17 	ldw	r2,-4(fp)
 8404730:	10800044 	addi	r2,r2,1
 8404734:	10800003 	ldbu	r2,0(r2)
 8404738:	1007883a 	mov	r3,r2
 840473c:	00bfff04 	movi	r2,-4
 8404740:	1884703a 	and	r2,r3,r2
 8404744:	e0bffd45 	stb	r2,-11(fp)
	blue = *(color24 + 2) & 0xF8;
 8404748:	e0bfff17 	ldw	r2,-4(fp)
 840474c:	10800084 	addi	r2,r2,2
 8404750:	10800003 	ldbu	r2,0(r2)
 8404754:	1007883a 	mov	r3,r2
 8404758:	00bffe04 	movi	r2,-8
 840475c:	1884703a 	and	r2,r3,r2
 8404760:	e0bffd85 	stb	r2,-10(fp)

	output = ((blue >> 3) | (green << 3) | (red << 8));  
 8404764:	e0bffd83 	ldbu	r2,-10(fp)
 8404768:	1004d0fa 	srli	r2,r2,3
 840476c:	10803fcc 	andi	r2,r2,255
 8404770:	e0fffd43 	ldbu	r3,-11(fp)
 8404774:	180690fa 	slli	r3,r3,3
 8404778:	10c4b03a 	or	r2,r2,r3
 840477c:	1007883a 	mov	r3,r2
 8404780:	e0bffd03 	ldbu	r2,-12(fp)
 8404784:	1004923a 	slli	r2,r2,8
 8404788:	1884b03a 	or	r2,r3,r2
 840478c:	e0bffe0d 	sth	r2,-8(fp)
	return output;
 8404790:	e0bffe0b 	ldhu	r2,-8(fp)
}
 8404794:	e037883a 	mov	sp,fp
 8404798:	df000017 	ldw	fp,0(sp)
 840479c:	dec00104 	addi	sp,sp,4
 84047a0:	f800283a 	ret

084047a4 <vid_color_convert16_24>:
*           sample and converts it to 16-bits, displayable by the 
*           VGA controller in 16-bit mode
*
******************************************************************/
int vid_color_convert16_24(unsigned short color16, char* color24)
{
 84047a4:	defffd04 	addi	sp,sp,-12
 84047a8:	df000215 	stw	fp,8(sp)
 84047ac:	df000204 	addi	fp,sp,8
 84047b0:	2005883a 	mov	r2,r4
 84047b4:	e17fff15 	stw	r5,-4(fp)
 84047b8:	e0bffe0d 	sth	r2,-8(fp)
	*(color24 + 0) = color16 >> 11;
 84047bc:	e0bffe0b 	ldhu	r2,-8(fp)
 84047c0:	1004d2fa 	srli	r2,r2,11
 84047c4:	1007883a 	mov	r3,r2
 84047c8:	e0bfff17 	ldw	r2,-4(fp)
 84047cc:	10c00005 	stb	r3,0(r2)
	*(color24 + 1) = ((color16 & 0x3E) >> 5);
 84047d0:	e0bfff17 	ldw	r2,-4(fp)
 84047d4:	10800044 	addi	r2,r2,1
 84047d8:	e0fffe0b 	ldhu	r3,-8(fp)
 84047dc:	18c00f8c 	andi	r3,r3,62
 84047e0:	1807d17a 	srai	r3,r3,5
 84047e4:	10c00005 	stb	r3,0(r2)
	*(color24 + 2) = (color16 & 0x1F);
 84047e8:	e0bfff17 	ldw	r2,-4(fp)
 84047ec:	10800084 	addi	r2,r2,2
 84047f0:	e0fffe0b 	ldhu	r3,-8(fp)
 84047f4:	18c007cc 	andi	r3,r3,31
 84047f8:	10c00005 	stb	r3,0(r2)
	
	return (0);
 84047fc:	0005883a 	mov	r2,zero
}
 8404800:	e037883a 	mov	sp,fp
 8404804:	df000017 	ldw	fp,0(sp)
 8404808:	dec00104 	addi	sp,sp,4
 840480c:	f800283a 	ret

08404810 <vid_draw_sloped_line>:
                           unsigned short horiz_end, 
                           unsigned short vert_end, 
                           unsigned short width, 
                           int color, 
                           alt_video_display* display)
{
 8404810:	deffef04 	addi	sp,sp,-68
 8404814:	dfc01015 	stw	ra,64(sp)
 8404818:	df000f15 	stw	fp,60(sp)
 840481c:	df000f04 	addi	fp,sp,60
 8404820:	2011883a 	mov	r8,r4
 8404824:	3009883a 	mov	r4,r6
 8404828:	3807883a 	mov	r3,r7
 840482c:	e0800217 	ldw	r2,8(fp)
 8404830:	e23ffb0d 	sth	r8,-20(fp)
 8404834:	e17ffc0d 	sth	r5,-16(fp)
 8404838:	e13ffd0d 	sth	r4,-12(fp)
 840483c:	e0fffe0d 	sth	r3,-8(fp)
 8404840:	e0bfff0d 	sth	r2,-4(fp)
  // Find the vertical and horizontal distance between the two points
  int horiz_delta = abs(horiz_end-horiz_start);
 8404844:	e0fffd0b 	ldhu	r3,-12(fp)
 8404848:	e0bffb0b 	ldhu	r2,-20(fp)
 840484c:	1885c83a 	sub	r2,r3,r2
 8404850:	1000010e 	bge	r2,zero,8404858 <vid_draw_sloped_line+0x48>
 8404854:	0085c83a 	sub	r2,zero,r2
 8404858:	e0bff115 	stw	r2,-60(fp)
  int vert_delta = abs(vert_end-vert_start);
 840485c:	e0fffe0b 	ldhu	r3,-8(fp)
 8404860:	e0bffc0b 	ldhu	r2,-16(fp)
 8404864:	1885c83a 	sub	r2,r3,r2
 8404868:	1000010e 	bge	r2,zero,8404870 <vid_draw_sloped_line+0x60>
 840486c:	0085c83a 	sub	r2,zero,r2
 8404870:	e0bff215 	stw	r2,-56(fp)

  // Find out what direction we are going
  int horiz_incr, vert_incr;
  if (horiz_start > horiz_end) { horiz_incr=-1; } else { horiz_incr=1; }
 8404874:	e0bffb0b 	ldhu	r2,-20(fp)
 8404878:	e0fffd0b 	ldhu	r3,-12(fp)
 840487c:	1880032e 	bgeu	r3,r2,840488c <vid_draw_sloped_line+0x7c>
 8404880:	00bfffc4 	movi	r2,-1
 8404884:	e0bff315 	stw	r2,-52(fp)
 8404888:	00000206 	br	8404894 <vid_draw_sloped_line+0x84>
 840488c:	00800044 	movi	r2,1
 8404890:	e0bff315 	stw	r2,-52(fp)
  if (vert_start > vert_end) { vert_incr=-1; } else { vert_incr=1; }
 8404894:	e0bffc0b 	ldhu	r2,-16(fp)
 8404898:	e0fffe0b 	ldhu	r3,-8(fp)
 840489c:	1880032e 	bgeu	r3,r2,84048ac <vid_draw_sloped_line+0x9c>
 84048a0:	00bfffc4 	movi	r2,-1
 84048a4:	e0bff415 	stw	r2,-48(fp)
 84048a8:	00000206 	br	84048b4 <vid_draw_sloped_line+0xa4>
 84048ac:	00800044 	movi	r2,1
 84048b0:	e0bff415 	stw	r2,-48(fp)

  // Find out which axis is always incremented when drawing the line
  // If it's the horizontal axis
  if (horiz_delta >= vert_delta) {
 84048b4:	e0fff117 	ldw	r3,-60(fp)
 84048b8:	e0bff217 	ldw	r2,-56(fp)
 84048bc:	18803516 	blt	r3,r2,8404994 <vid_draw_sloped_line+0x184>
    int dPr   = vert_delta<<1;
 84048c0:	e0bff217 	ldw	r2,-56(fp)
 84048c4:	1085883a 	add	r2,r2,r2
 84048c8:	e0bff715 	stw	r2,-36(fp)
    int dPru  = dPr - (horiz_delta<<1);
 84048cc:	e0bff117 	ldw	r2,-60(fp)
 84048d0:	1085883a 	add	r2,r2,r2
 84048d4:	1007883a 	mov	r3,r2
 84048d8:	e0bff717 	ldw	r2,-36(fp)
 84048dc:	10c5c83a 	sub	r2,r2,r3
 84048e0:	e0bff815 	stw	r2,-32(fp)
    int P     = dPr - horiz_delta;
 84048e4:	e0fff717 	ldw	r3,-36(fp)
 84048e8:	e0bff117 	ldw	r2,-60(fp)
 84048ec:	1885c83a 	sub	r2,r3,r2
 84048f0:	e0bff515 	stw	r2,-44(fp)

    // Process the line, one horizontal point at at time
    for (; horiz_delta >= 0; horiz_delta--) {
 84048f4:	00002406 	br	8404988 <vid_draw_sloped_line+0x178>
      // plot the pixel
      vid_set_pixel(horiz_start, vert_start, color);
 84048f8:	e0bffb0b 	ldhu	r2,-20(fp)
 84048fc:	e0fffc0b 	ldhu	r3,-16(fp)
 8404900:	e1000317 	ldw	r4,12(fp)
 8404904:	200d883a 	mov	r6,r4
 8404908:	180b883a 	mov	r5,r3
 840490c:	1009883a 	mov	r4,r2
 8404910:	84044cc0 	call	84044cc <vid_set_pixel>
      // If we're moving both up and right
      if (P > 0) {
 8404914:	e0bff517 	ldw	r2,-44(fp)
 8404918:	00800f0e 	bge	zero,r2,8404958 <vid_draw_sloped_line+0x148>
        horiz_start+=horiz_incr;
 840491c:	e0bff317 	ldw	r2,-52(fp)
 8404920:	1007883a 	mov	r3,r2
 8404924:	e0bffb0b 	ldhu	r2,-20(fp)
 8404928:	1885883a 	add	r2,r3,r2
 840492c:	e0bffb0d 	sth	r2,-20(fp)
        vert_start+=vert_incr;
 8404930:	e0bff417 	ldw	r2,-48(fp)
 8404934:	1007883a 	mov	r3,r2
 8404938:	e0bffc0b 	ldhu	r2,-16(fp)
 840493c:	1885883a 	add	r2,r3,r2
 8404940:	e0bffc0d 	sth	r2,-16(fp)
        P+=dPru;
 8404944:	e0fff517 	ldw	r3,-44(fp)
 8404948:	e0bff817 	ldw	r2,-32(fp)
 840494c:	1885883a 	add	r2,r3,r2
 8404950:	e0bff515 	stw	r2,-44(fp)
 8404954:	00000906 	br	840497c <vid_draw_sloped_line+0x16c>
      } else {
        horiz_start+=horiz_incr;
 8404958:	e0bff317 	ldw	r2,-52(fp)
 840495c:	1007883a 	mov	r3,r2
 8404960:	e0bffb0b 	ldhu	r2,-20(fp)
 8404964:	1885883a 	add	r2,r3,r2
 8404968:	e0bffb0d 	sth	r2,-20(fp)
        P+=dPr;
 840496c:	e0fff517 	ldw	r3,-44(fp)
 8404970:	e0bff717 	ldw	r2,-36(fp)
 8404974:	1885883a 	add	r2,r3,r2
 8404978:	e0bff515 	stw	r2,-44(fp)
    int dPr   = vert_delta<<1;
    int dPru  = dPr - (horiz_delta<<1);
    int P     = dPr - horiz_delta;

    // Process the line, one horizontal point at at time
    for (; horiz_delta >= 0; horiz_delta--) {
 840497c:	e0bff117 	ldw	r2,-60(fp)
 8404980:	10bfffc4 	addi	r2,r2,-1
 8404984:	e0bff115 	stw	r2,-60(fp)
 8404988:	e0bff117 	ldw	r2,-60(fp)
 840498c:	103fda0e 	bge	r2,zero,84048f8 <__alt_data_end+0xfc4048f8>
        vert_start+=vert_incr;
        P+=dPr;
      }
    }
  }
}
 8404990:	00003406 	br	8404a64 <vid_draw_sloped_line+0x254>
        P+=dPr;
      }
    }
  // If it's the vertical axis
  } else {
    int dPr   = horiz_delta<<1;
 8404994:	e0bff117 	ldw	r2,-60(fp)
 8404998:	1085883a 	add	r2,r2,r2
 840499c:	e0bff915 	stw	r2,-28(fp)
    int dPru  = dPr - (vert_delta<<1);
 84049a0:	e0bff217 	ldw	r2,-56(fp)
 84049a4:	1085883a 	add	r2,r2,r2
 84049a8:	1007883a 	mov	r3,r2
 84049ac:	e0bff917 	ldw	r2,-28(fp)
 84049b0:	10c5c83a 	sub	r2,r2,r3
 84049b4:	e0bffa15 	stw	r2,-24(fp)
    int P     = dPr - vert_delta;
 84049b8:	e0fff917 	ldw	r3,-28(fp)
 84049bc:	e0bff217 	ldw	r2,-56(fp)
 84049c0:	1885c83a 	sub	r2,r3,r2
 84049c4:	e0bff615 	stw	r2,-40(fp)

    // Process the line, one vertical point at at time
    for (; vert_delta>=0; vert_delta--) {
 84049c8:	00002406 	br	8404a5c <vid_draw_sloped_line+0x24c>
      // plot the pixel
      vid_set_pixel(horiz_start, vert_start, color);
 84049cc:	e0bffb0b 	ldhu	r2,-20(fp)
 84049d0:	e0fffc0b 	ldhu	r3,-16(fp)
 84049d4:	e1000317 	ldw	r4,12(fp)
 84049d8:	200d883a 	mov	r6,r4
 84049dc:	180b883a 	mov	r5,r3
 84049e0:	1009883a 	mov	r4,r2
 84049e4:	84044cc0 	call	84044cc <vid_set_pixel>
      // If we're moving both up and right
      if (P > 0) {
 84049e8:	e0bff617 	ldw	r2,-40(fp)
 84049ec:	00800f0e 	bge	zero,r2,8404a2c <vid_draw_sloped_line+0x21c>
        horiz_start+=horiz_incr;
 84049f0:	e0bff317 	ldw	r2,-52(fp)
 84049f4:	1007883a 	mov	r3,r2
 84049f8:	e0bffb0b 	ldhu	r2,-20(fp)
 84049fc:	1885883a 	add	r2,r3,r2
 8404a00:	e0bffb0d 	sth	r2,-20(fp)
        vert_start+=vert_incr;
 8404a04:	e0bff417 	ldw	r2,-48(fp)
 8404a08:	1007883a 	mov	r3,r2
 8404a0c:	e0bffc0b 	ldhu	r2,-16(fp)
 8404a10:	1885883a 	add	r2,r3,r2
 8404a14:	e0bffc0d 	sth	r2,-16(fp)
        P+=dPru;
 8404a18:	e0fff617 	ldw	r3,-40(fp)
 8404a1c:	e0bffa17 	ldw	r2,-24(fp)
 8404a20:	1885883a 	add	r2,r3,r2
 8404a24:	e0bff615 	stw	r2,-40(fp)
 8404a28:	00000906 	br	8404a50 <vid_draw_sloped_line+0x240>
      } else {
        vert_start+=vert_incr;
 8404a2c:	e0bff417 	ldw	r2,-48(fp)
 8404a30:	1007883a 	mov	r3,r2
 8404a34:	e0bffc0b 	ldhu	r2,-16(fp)
 8404a38:	1885883a 	add	r2,r3,r2
 8404a3c:	e0bffc0d 	sth	r2,-16(fp)
        P+=dPr;
 8404a40:	e0fff617 	ldw	r3,-40(fp)
 8404a44:	e0bff917 	ldw	r2,-28(fp)
 8404a48:	1885883a 	add	r2,r3,r2
 8404a4c:	e0bff615 	stw	r2,-40(fp)
    int dPr   = horiz_delta<<1;
    int dPru  = dPr - (vert_delta<<1);
    int P     = dPr - vert_delta;

    // Process the line, one vertical point at at time
    for (; vert_delta>=0; vert_delta--) {
 8404a50:	e0bff217 	ldw	r2,-56(fp)
 8404a54:	10bfffc4 	addi	r2,r2,-1
 8404a58:	e0bff215 	stw	r2,-56(fp)
 8404a5c:	e0bff217 	ldw	r2,-56(fp)
 8404a60:	103fda0e 	bge	r2,zero,84049cc <__alt_data_end+0xfc4049cc>
        vert_start+=vert_incr;
        P+=dPr;
      }
    }
  }
}
 8404a64:	0001883a 	nop
 8404a68:	e037883a 	mov	sp,fp
 8404a6c:	dfc00117 	ldw	ra,4(sp)
 8404a70:	df000017 	ldw	fp,0(sp)
 8404a74:	dec00204 	addi	sp,sp,8
 8404a78:	f800283a 	ret

08404a7c <vid_draw_circle>:
*  tells the function whether or not to fill in the box.  1 = fill,
*  0 = do not fill.
*
******************************************************************/
int vid_draw_circle(int Hcenter, int Vcenter, int radius, int color, char fill, alt_video_display* display)
{
 8404a7c:	defff104 	addi	sp,sp,-60
 8404a80:	dfc00e15 	stw	ra,56(sp)
 8404a84:	df000d15 	stw	fp,52(sp)
 8404a88:	df000d04 	addi	fp,sp,52
 8404a8c:	e13ffb15 	stw	r4,-20(fp)
 8404a90:	e17ffc15 	stw	r5,-16(fp)
 8404a94:	e1bffd15 	stw	r6,-12(fp)
 8404a98:	e1fffe15 	stw	r7,-8(fp)
 8404a9c:	e0800217 	ldw	r2,8(fp)
 8404aa0:	e0bfff05 	stb	r2,-4(fp)
  int x = 0;
 8404aa4:	e03ff815 	stw	zero,-32(fp)
  int y = radius;
 8404aa8:	e0bffd17 	ldw	r2,-12(fp)
 8404aac:	e0bff915 	stw	r2,-28(fp)
  int p = (5 - radius*4)/4;
 8404ab0:	e0bffd17 	ldw	r2,-12(fp)
 8404ab4:	1085883a 	add	r2,r2,r2
 8404ab8:	1085883a 	add	r2,r2,r2
 8404abc:	1007883a 	mov	r3,r2
 8404ac0:	00800144 	movi	r2,5
 8404ac4:	10c5c83a 	sub	r2,r2,r3
 8404ac8:	1000010e 	bge	r2,zero,8404ad0 <vid_draw_circle+0x54>
 8404acc:	108000c4 	addi	r2,r2,3
 8404ad0:	1005d0ba 	srai	r2,r2,2
 8404ad4:	e0bffa15 	stw	r2,-24(fp)

  // Start the circle with the top, bottom, left, and right pixels.
  vid_round_corner_points(Hcenter, Vcenter, x, y, 0, 0, color, fill, display);
 8404ad8:	e0bfff07 	ldb	r2,-4(fp)
 8404adc:	e0c00317 	ldw	r3,12(fp)
 8404ae0:	d8c00415 	stw	r3,16(sp)
 8404ae4:	d8800315 	stw	r2,12(sp)
 8404ae8:	e0bffe17 	ldw	r2,-8(fp)
 8404aec:	d8800215 	stw	r2,8(sp)
 8404af0:	d8000115 	stw	zero,4(sp)
 8404af4:	d8000015 	stw	zero,0(sp)
 8404af8:	e1fff917 	ldw	r7,-28(fp)
 8404afc:	e1bff817 	ldw	r6,-32(fp)
 8404b00:	e17ffc17 	ldw	r5,-16(fp)
 8404b04:	e13ffb17 	ldw	r4,-20(fp)
 8404b08:	8404f800 	call	8404f80 <vid_round_corner_points>

  // Now start moving out from those points until the lines meet
  while (x < y) {
 8404b0c:	00002406 	br	8404ba0 <vid_draw_circle+0x124>
    x++;
 8404b10:	e0bff817 	ldw	r2,-32(fp)
 8404b14:	10800044 	addi	r2,r2,1
 8404b18:	e0bff815 	stw	r2,-32(fp)
    if (p < 0) {
 8404b1c:	e0bffa17 	ldw	r2,-24(fp)
 8404b20:	1000070e 	bge	r2,zero,8404b40 <vid_draw_circle+0xc4>
      p += 2*x+1;
 8404b24:	e0bff817 	ldw	r2,-32(fp)
 8404b28:	1085883a 	add	r2,r2,r2
 8404b2c:	10800044 	addi	r2,r2,1
 8404b30:	e0fffa17 	ldw	r3,-24(fp)
 8404b34:	1885883a 	add	r2,r3,r2
 8404b38:	e0bffa15 	stw	r2,-24(fp)
 8404b3c:	00000b06 	br	8404b6c <vid_draw_circle+0xf0>
    } else {
      y--;
 8404b40:	e0bff917 	ldw	r2,-28(fp)
 8404b44:	10bfffc4 	addi	r2,r2,-1
 8404b48:	e0bff915 	stw	r2,-28(fp)
      p += 2*(x-y)+1;
 8404b4c:	e0fff817 	ldw	r3,-32(fp)
 8404b50:	e0bff917 	ldw	r2,-28(fp)
 8404b54:	1885c83a 	sub	r2,r3,r2
 8404b58:	1085883a 	add	r2,r2,r2
 8404b5c:	10800044 	addi	r2,r2,1
 8404b60:	e0fffa17 	ldw	r3,-24(fp)
 8404b64:	1885883a 	add	r2,r3,r2
 8404b68:	e0bffa15 	stw	r2,-24(fp)
    }
    vid_round_corner_points(Hcenter, Vcenter, x, y, 0, 0, color, fill, display);
 8404b6c:	e0bfff07 	ldb	r2,-4(fp)
 8404b70:	e0c00317 	ldw	r3,12(fp)
 8404b74:	d8c00415 	stw	r3,16(sp)
 8404b78:	d8800315 	stw	r2,12(sp)
 8404b7c:	e0bffe17 	ldw	r2,-8(fp)
 8404b80:	d8800215 	stw	r2,8(sp)
 8404b84:	d8000115 	stw	zero,4(sp)
 8404b88:	d8000015 	stw	zero,0(sp)
 8404b8c:	e1fff917 	ldw	r7,-28(fp)
 8404b90:	e1bff817 	ldw	r6,-32(fp)
 8404b94:	e17ffc17 	ldw	r5,-16(fp)
 8404b98:	e13ffb17 	ldw	r4,-20(fp)
 8404b9c:	8404f800 	call	8404f80 <vid_round_corner_points>

  // Start the circle with the top, bottom, left, and right pixels.
  vid_round_corner_points(Hcenter, Vcenter, x, y, 0, 0, color, fill, display);

  // Now start moving out from those points until the lines meet
  while (x < y) {
 8404ba0:	e0fff817 	ldw	r3,-32(fp)
 8404ba4:	e0bff917 	ldw	r2,-28(fp)
 8404ba8:	18bfd916 	blt	r3,r2,8404b10 <__alt_data_end+0xfc404b10>
      y--;
      p += 2*(x-y)+1;
    }
    vid_round_corner_points(Hcenter, Vcenter, x, y, 0, 0, color, fill, display);
  }
  return (0);
 8404bac:	0005883a 	mov	r2,zero
}
 8404bb0:	e037883a 	mov	sp,fp
 8404bb4:	dfc00117 	ldw	ra,4(sp)
 8404bb8:	df000017 	ldw	fp,0(sp)
 8404bbc:	dec00204 	addi	sp,sp,8
 8404bc0:	f800283a 	ret

08404bc4 <vid_draw_round_corner_box>:
*  to fill in the box.  1 = fill, 0 = do not fill.
*
******************************************************************/
int vid_draw_round_corner_box ( int horiz_start, int vert_start, int horiz_end, int vert_end, 
                                int radius, int color, int fill, alt_video_display* display)
{
 8404bc4:	deffec04 	addi	sp,sp,-80
 8404bc8:	dfc01315 	stw	ra,76(sp)
 8404bcc:	df001215 	stw	fp,72(sp)
 8404bd0:	df001204 	addi	fp,sp,72
 8404bd4:	e13ffc15 	stw	r4,-16(fp)
 8404bd8:	e17ffd15 	stw	r5,-12(fp)
 8404bdc:	e1bffe15 	stw	r6,-8(fp)
 8404be0:	e1ffff15 	stw	r7,-4(fp)
  int diameter;
  int temp;
  unsigned int width, height, straight_width, straight_height;

  // Make sure the start point us up and left of the end point
  if( horiz_start > horiz_end )
 8404be4:	e0bffc17 	ldw	r2,-16(fp)
 8404be8:	e0fffe17 	ldw	r3,-8(fp)
 8404bec:	1880060e 	bge	r3,r2,8404c08 <vid_draw_round_corner_box+0x44>
  {
    temp = horiz_end;
 8404bf0:	e0bffe17 	ldw	r2,-8(fp)
 8404bf4:	e0bff615 	stw	r2,-40(fp)
    horiz_end = horiz_start;
 8404bf8:	e0bffc17 	ldw	r2,-16(fp)
 8404bfc:	e0bffe15 	stw	r2,-8(fp)
    horiz_start = temp;
 8404c00:	e0bff617 	ldw	r2,-40(fp)
 8404c04:	e0bffc15 	stw	r2,-16(fp)
  }
  
  if( vert_start > vert_end )
 8404c08:	e0bffd17 	ldw	r2,-12(fp)
 8404c0c:	e0ffff17 	ldw	r3,-4(fp)
 8404c10:	1880060e 	bge	r3,r2,8404c2c <vid_draw_round_corner_box+0x68>
  {
    temp = vert_end;
 8404c14:	e0bfff17 	ldw	r2,-4(fp)
 8404c18:	e0bff615 	stw	r2,-40(fp)
    vert_end = vert_start;
 8404c1c:	e0bffd17 	ldw	r2,-12(fp)
 8404c20:	e0bfff15 	stw	r2,-4(fp)
    vert_start = temp;
 8404c24:	e0bff617 	ldw	r2,-40(fp)
 8404c28:	e0bffd15 	stw	r2,-12(fp)
  }
  
  // These are the overall dimensions of the box
  width = horiz_end - horiz_start;
 8404c2c:	e0fffe17 	ldw	r3,-8(fp)
 8404c30:	e0bffc17 	ldw	r2,-16(fp)
 8404c34:	1885c83a 	sub	r2,r3,r2
 8404c38:	e0bff715 	stw	r2,-36(fp)
  height = vert_end - vert_start;
 8404c3c:	e0ffff17 	ldw	r3,-4(fp)
 8404c40:	e0bffd17 	ldw	r2,-12(fp)
 8404c44:	1885c83a 	sub	r2,r3,r2
 8404c48:	e0bff815 	stw	r2,-32(fp)

  // Make sure our radius isnt more than the shortest dimension 
  // of the box, or it'll screw us all up
  if( radius > ( width / 2 ))
 8404c4c:	e0bff717 	ldw	r2,-36(fp)
 8404c50:	1006d07a 	srli	r3,r2,1
 8404c54:	e0800217 	ldw	r2,8(fp)
 8404c58:	1880032e 	bgeu	r3,r2,8404c68 <vid_draw_round_corner_box+0xa4>
    radius = width / 2;
 8404c5c:	e0bff717 	ldw	r2,-36(fp)
 8404c60:	1004d07a 	srli	r2,r2,1
 8404c64:	e0800215 	stw	r2,8(fp)

  if( radius > ( height / 2 ))
 8404c68:	e0bff817 	ldw	r2,-32(fp)
 8404c6c:	1006d07a 	srli	r3,r2,1
 8404c70:	e0800217 	ldw	r2,8(fp)
 8404c74:	1880032e 	bgeu	r3,r2,8404c84 <vid_draw_round_corner_box+0xc0>
    radius = height / 2;
 8404c78:	e0bff817 	ldw	r2,-32(fp)
 8404c7c:	1004d07a 	srli	r2,r2,1
 8404c80:	e0800215 	stw	r2,8(fp)
  
  // We use the diameter for some calculations, so we'll pre calculate it here.
  diameter = ( radius * 2 );
 8404c84:	e0800217 	ldw	r2,8(fp)
 8404c88:	1085883a 	add	r2,r2,r2
 8404c8c:	e0bff915 	stw	r2,-28(fp)

  // These are the lengths of the straight portions of the box edges.
  straight_width = width - diameter;
 8404c90:	e0bff917 	ldw	r2,-28(fp)
 8404c94:	e0fff717 	ldw	r3,-36(fp)
 8404c98:	1885c83a 	sub	r2,r3,r2
 8404c9c:	e0bffa15 	stw	r2,-24(fp)
  straight_height = height - diameter;
 8404ca0:	e0bff917 	ldw	r2,-28(fp)
 8404ca4:	e0fff817 	ldw	r3,-32(fp)
 8404ca8:	1885c83a 	sub	r2,r3,r2
 8404cac:	e0bffb15 	stw	r2,-20(fp)

  x = 0;
 8404cb0:	e03ff315 	stw	zero,-52(fp)
  y = radius;
 8404cb4:	e0800217 	ldw	r2,8(fp)
 8404cb8:	e0bff415 	stw	r2,-48(fp)
  p = (5 - radius*4)/4;
 8404cbc:	e0800217 	ldw	r2,8(fp)
 8404cc0:	1085883a 	add	r2,r2,r2
 8404cc4:	1085883a 	add	r2,r2,r2
 8404cc8:	1007883a 	mov	r3,r2
 8404ccc:	00800144 	movi	r2,5
 8404cd0:	10c5c83a 	sub	r2,r2,r3
 8404cd4:	1000010e 	bge	r2,zero,8404cdc <vid_draw_round_corner_box+0x118>
 8404cd8:	108000c4 	addi	r2,r2,3
 8404cdc:	1005d0ba 	srai	r2,r2,2
 8404ce0:	e0bff515 	stw	r2,-44(fp)
   
  // Start the corners with the top, bottom, left, and right pixels.
  vid_round_corner_points( horiz_start + radius, vert_start + radius, x, y, 
 8404ce4:	e0fffc17 	ldw	r3,-16(fp)
 8404ce8:	e0800217 	ldw	r2,8(fp)
 8404cec:	1891883a 	add	r8,r3,r2
 8404cf0:	e0fffd17 	ldw	r3,-12(fp)
 8404cf4:	e0800217 	ldw	r2,8(fp)
 8404cf8:	1893883a 	add	r9,r3,r2
 8404cfc:	e1bff317 	ldw	r6,-52(fp)
 8404d00:	e1fff417 	ldw	r7,-48(fp)
 8404d04:	e0bffa17 	ldw	r2,-24(fp)
 8404d08:	e0fffb17 	ldw	r3,-20(fp)
 8404d0c:	e1000417 	ldw	r4,16(fp)
 8404d10:	21003fcc 	andi	r4,r4,255
 8404d14:	2100201c 	xori	r4,r4,128
 8404d18:	213fe004 	addi	r4,r4,-128
 8404d1c:	e1400517 	ldw	r5,20(fp)
 8404d20:	d9400415 	stw	r5,16(sp)
 8404d24:	d9000315 	stw	r4,12(sp)
 8404d28:	e1000317 	ldw	r4,12(fp)
 8404d2c:	d9000215 	stw	r4,8(sp)
 8404d30:	d8c00115 	stw	r3,4(sp)
 8404d34:	d8800015 	stw	r2,0(sp)
 8404d38:	480b883a 	mov	r5,r9
 8404d3c:	4009883a 	mov	r4,r8
 8404d40:	8404f800 	call	8404f80 <vid_round_corner_points>
                           straight_width, straight_height, color, fill, display );
  
  // Now start moving out from those points until the lines meet
  while (x < y) {
 8404d44:	00003106 	br	8404e0c <vid_draw_round_corner_box+0x248>
    x++;
 8404d48:	e0bff317 	ldw	r2,-52(fp)
 8404d4c:	10800044 	addi	r2,r2,1
 8404d50:	e0bff315 	stw	r2,-52(fp)
    if (p < 0) {
 8404d54:	e0bff517 	ldw	r2,-44(fp)
 8404d58:	1000080e 	bge	r2,zero,8404d7c <vid_draw_round_corner_box+0x1b8>
      p += 2*x+1;
 8404d5c:	e0bff317 	ldw	r2,-52(fp)
 8404d60:	1085883a 	add	r2,r2,r2
 8404d64:	1007883a 	mov	r3,r2
 8404d68:	e0bff517 	ldw	r2,-44(fp)
 8404d6c:	1885883a 	add	r2,r3,r2
 8404d70:	10800044 	addi	r2,r2,1
 8404d74:	e0bff515 	stw	r2,-44(fp)
 8404d78:	00000c06 	br	8404dac <vid_draw_round_corner_box+0x1e8>
    } else {
      y--;
 8404d7c:	e0bff417 	ldw	r2,-48(fp)
 8404d80:	10bfffc4 	addi	r2,r2,-1
 8404d84:	e0bff415 	stw	r2,-48(fp)
      p += 2*(x-y)+1;
 8404d88:	e0fff317 	ldw	r3,-52(fp)
 8404d8c:	e0bff417 	ldw	r2,-48(fp)
 8404d90:	1885c83a 	sub	r2,r3,r2
 8404d94:	1085883a 	add	r2,r2,r2
 8404d98:	1007883a 	mov	r3,r2
 8404d9c:	e0bff517 	ldw	r2,-44(fp)
 8404da0:	1885883a 	add	r2,r3,r2
 8404da4:	10800044 	addi	r2,r2,1
 8404da8:	e0bff515 	stw	r2,-44(fp)
    }
    vid_round_corner_points( horiz_start + radius, vert_start + radius, x, y, 
 8404dac:	e0fffc17 	ldw	r3,-16(fp)
 8404db0:	e0800217 	ldw	r2,8(fp)
 8404db4:	1891883a 	add	r8,r3,r2
 8404db8:	e0fffd17 	ldw	r3,-12(fp)
 8404dbc:	e0800217 	ldw	r2,8(fp)
 8404dc0:	1893883a 	add	r9,r3,r2
 8404dc4:	e1bff317 	ldw	r6,-52(fp)
 8404dc8:	e1fff417 	ldw	r7,-48(fp)
 8404dcc:	e0bffa17 	ldw	r2,-24(fp)
 8404dd0:	e0fffb17 	ldw	r3,-20(fp)
 8404dd4:	e1000417 	ldw	r4,16(fp)
 8404dd8:	21003fcc 	andi	r4,r4,255
 8404ddc:	2100201c 	xori	r4,r4,128
 8404de0:	213fe004 	addi	r4,r4,-128
 8404de4:	e1400517 	ldw	r5,20(fp)
 8404de8:	d9400415 	stw	r5,16(sp)
 8404dec:	d9000315 	stw	r4,12(sp)
 8404df0:	e1000317 	ldw	r4,12(fp)
 8404df4:	d9000215 	stw	r4,8(sp)
 8404df8:	d8c00115 	stw	r3,4(sp)
 8404dfc:	d8800015 	stw	r2,0(sp)
 8404e00:	480b883a 	mov	r5,r9
 8404e04:	4009883a 	mov	r4,r8
 8404e08:	8404f800 	call	8404f80 <vid_round_corner_points>
  // Start the corners with the top, bottom, left, and right pixels.
  vid_round_corner_points( horiz_start + radius, vert_start + radius, x, y, 
                           straight_width, straight_height, color, fill, display );
  
  // Now start moving out from those points until the lines meet
  while (x < y) {
 8404e0c:	e0fff317 	ldw	r3,-52(fp)
 8404e10:	e0bff417 	ldw	r2,-48(fp)
 8404e14:	18bfcc36 	bltu	r3,r2,8404d48 <__alt_data_end+0xfc404d48>
    vid_round_corner_points( horiz_start + radius, vert_start + radius, x, y, 
                             straight_width, straight_height, color, fill, display);
  }

  // If we want to fill in our box
  if (fill) {
 8404e18:	e0800417 	ldw	r2,16(fp)
 8404e1c:	10001026 	beq	r2,zero,8404e60 <vid_draw_round_corner_box+0x29c>
     vid_paint_block (horiz_start, vert_start + radius, horiz_end, vert_end - radius, color, display);
 8404e20:	e0fffd17 	ldw	r3,-12(fp)
 8404e24:	e0800217 	ldw	r2,8(fp)
 8404e28:	1889883a 	add	r4,r3,r2
 8404e2c:	e0ffff17 	ldw	r3,-4(fp)
 8404e30:	e0800217 	ldw	r2,8(fp)
 8404e34:	1887c83a 	sub	r3,r3,r2
 8404e38:	e0800517 	ldw	r2,20(fp)
 8404e3c:	d8800115 	stw	r2,4(sp)
 8404e40:	e0800317 	ldw	r2,12(fp)
 8404e44:	d8800015 	stw	r2,0(sp)
 8404e48:	180f883a 	mov	r7,r3
 8404e4c:	e1bffe17 	ldw	r6,-8(fp)
 8404e50:	200b883a 	mov	r5,r4
 8404e54:	e13ffc17 	ldw	r4,-16(fp)
 8404e58:	84045ac0 	call	84045ac <vid_paint_block>
 8404e5c:	00004206 	br	8404f68 <vid_draw_round_corner_box+0x3a4>
  // If we're not filling in the box, just draw four lines.
  } else {
    vid_draw_line(horiz_start, vert_start + radius, horiz_start, vert_end - radius , 1, color, display); //left
 8404e60:	e0fffd17 	ldw	r3,-12(fp)
 8404e64:	e0800217 	ldw	r2,8(fp)
 8404e68:	1889883a 	add	r4,r3,r2
 8404e6c:	e0ffff17 	ldw	r3,-4(fp)
 8404e70:	e0800217 	ldw	r2,8(fp)
 8404e74:	1887c83a 	sub	r3,r3,r2
 8404e78:	e0800517 	ldw	r2,20(fp)
 8404e7c:	d8800215 	stw	r2,8(sp)
 8404e80:	e0800317 	ldw	r2,12(fp)
 8404e84:	d8800115 	stw	r2,4(sp)
 8404e88:	00800044 	movi	r2,1
 8404e8c:	d8800015 	stw	r2,0(sp)
 8404e90:	180f883a 	mov	r7,r3
 8404e94:	e1bffc17 	ldw	r6,-16(fp)
 8404e98:	200b883a 	mov	r5,r4
 8404e9c:	e13ffc17 	ldw	r4,-16(fp)
 8404ea0:	8403fa00 	call	8403fa0 <vid_draw_line>
    vid_draw_line(horiz_end, vert_start + radius, horiz_end, vert_end - radius , 1, color, display); //right
 8404ea4:	e0fffd17 	ldw	r3,-12(fp)
 8404ea8:	e0800217 	ldw	r2,8(fp)
 8404eac:	1889883a 	add	r4,r3,r2
 8404eb0:	e0ffff17 	ldw	r3,-4(fp)
 8404eb4:	e0800217 	ldw	r2,8(fp)
 8404eb8:	1887c83a 	sub	r3,r3,r2
 8404ebc:	e0800517 	ldw	r2,20(fp)
 8404ec0:	d8800215 	stw	r2,8(sp)
 8404ec4:	e0800317 	ldw	r2,12(fp)
 8404ec8:	d8800115 	stw	r2,4(sp)
 8404ecc:	00800044 	movi	r2,1
 8404ed0:	d8800015 	stw	r2,0(sp)
 8404ed4:	180f883a 	mov	r7,r3
 8404ed8:	e1bffe17 	ldw	r6,-8(fp)
 8404edc:	200b883a 	mov	r5,r4
 8404ee0:	e13ffe17 	ldw	r4,-8(fp)
 8404ee4:	8403fa00 	call	8403fa0 <vid_draw_line>
    vid_draw_line(horiz_start + radius, vert_start, horiz_end - radius , vert_start, 1, color, display); //top
 8404ee8:	e0fffc17 	ldw	r3,-16(fp)
 8404eec:	e0800217 	ldw	r2,8(fp)
 8404ef0:	1889883a 	add	r4,r3,r2
 8404ef4:	e0fffe17 	ldw	r3,-8(fp)
 8404ef8:	e0800217 	ldw	r2,8(fp)
 8404efc:	1887c83a 	sub	r3,r3,r2
 8404f00:	e0800517 	ldw	r2,20(fp)
 8404f04:	d8800215 	stw	r2,8(sp)
 8404f08:	e0800317 	ldw	r2,12(fp)
 8404f0c:	d8800115 	stw	r2,4(sp)
 8404f10:	00800044 	movi	r2,1
 8404f14:	d8800015 	stw	r2,0(sp)
 8404f18:	e1fffd17 	ldw	r7,-12(fp)
 8404f1c:	180d883a 	mov	r6,r3
 8404f20:	e17ffd17 	ldw	r5,-12(fp)
 8404f24:	8403fa00 	call	8403fa0 <vid_draw_line>
    vid_draw_line(horiz_start + radius, vert_end, horiz_end - radius , vert_end, 1, color, display); //bottom
 8404f28:	e0fffc17 	ldw	r3,-16(fp)
 8404f2c:	e0800217 	ldw	r2,8(fp)
 8404f30:	1889883a 	add	r4,r3,r2
 8404f34:	e0fffe17 	ldw	r3,-8(fp)
 8404f38:	e0800217 	ldw	r2,8(fp)
 8404f3c:	1887c83a 	sub	r3,r3,r2
 8404f40:	e0800517 	ldw	r2,20(fp)
 8404f44:	d8800215 	stw	r2,8(sp)
 8404f48:	e0800317 	ldw	r2,12(fp)
 8404f4c:	d8800115 	stw	r2,4(sp)
 8404f50:	00800044 	movi	r2,1
 8404f54:	d8800015 	stw	r2,0(sp)
 8404f58:	e1ffff17 	ldw	r7,-4(fp)
 8404f5c:	180d883a 	mov	r6,r3
 8404f60:	e17fff17 	ldw	r5,-4(fp)
 8404f64:	8403fa00 	call	8403fa0 <vid_draw_line>
  }

  return (0);
 8404f68:	0005883a 	mov	r2,zero
}
 8404f6c:	e037883a 	mov	sp,fp
 8404f70:	dfc00117 	ldw	ra,4(sp)
 8404f74:	df000017 	ldw	fp,0(sp)
 8404f78:	dec00204 	addi	sp,sp,8
 8404f7c:	f800283a 	ret

08404f80 <vid_round_corner_points>:
******************************************************************/

void vid_round_corner_points( int cx, int cy, int x, int y, 
                              int straight_width, int straight_height, int color, 
                              char fill, alt_video_display* display)
{
 8404f80:	defff604 	addi	sp,sp,-40
 8404f84:	dfc00915 	stw	ra,36(sp)
 8404f88:	df000815 	stw	fp,32(sp)
 8404f8c:	df000804 	addi	fp,sp,32
 8404f90:	e13ffb15 	stw	r4,-20(fp)
 8404f94:	e17ffc15 	stw	r5,-16(fp)
 8404f98:	e1bffd15 	stw	r6,-12(fp)
 8404f9c:	e1fffe15 	stw	r7,-8(fp)
 8404fa0:	e0800517 	ldw	r2,20(fp)
 8404fa4:	e0bfff05 	stb	r2,-4(fp)

    // If we're directly above, below, left and right of center (0 degrees), plot those 4 pixels
    if (x == 0) {
 8404fa8:	e0bffd17 	ldw	r2,-12(fp)
 8404fac:	10007c1e 	bne	r2,zero,84051a0 <vid_round_corner_points+0x220>
        // bottom
        vid_set_pixel(cx, cy + y + straight_height, color);
 8404fb0:	e0fffc17 	ldw	r3,-16(fp)
 8404fb4:	e0bffe17 	ldw	r2,-8(fp)
 8404fb8:	1887883a 	add	r3,r3,r2
 8404fbc:	e0800317 	ldw	r2,12(fp)
 8404fc0:	1885883a 	add	r2,r3,r2
 8404fc4:	e0c00417 	ldw	r3,16(fp)
 8404fc8:	180d883a 	mov	r6,r3
 8404fcc:	100b883a 	mov	r5,r2
 8404fd0:	e13ffb17 	ldw	r4,-20(fp)
 8404fd4:	84044cc0 	call	84044cc <vid_set_pixel>
        vid_set_pixel(cx + straight_width, cy + y + straight_height, color);
 8404fd8:	e0fffb17 	ldw	r3,-20(fp)
 8404fdc:	e0800217 	ldw	r2,8(fp)
 8404fe0:	1889883a 	add	r4,r3,r2
 8404fe4:	e0fffc17 	ldw	r3,-16(fp)
 8404fe8:	e0bffe17 	ldw	r2,-8(fp)
 8404fec:	1887883a 	add	r3,r3,r2
 8404ff0:	e0800317 	ldw	r2,12(fp)
 8404ff4:	1885883a 	add	r2,r3,r2
 8404ff8:	e0c00417 	ldw	r3,16(fp)
 8404ffc:	180d883a 	mov	r6,r3
 8405000:	100b883a 	mov	r5,r2
 8405004:	84044cc0 	call	84044cc <vid_set_pixel>
        // top
        vid_set_pixel(cx, cy - y, color);
 8405008:	e0fffc17 	ldw	r3,-16(fp)
 840500c:	e0bffe17 	ldw	r2,-8(fp)
 8405010:	1885c83a 	sub	r2,r3,r2
 8405014:	e0c00417 	ldw	r3,16(fp)
 8405018:	180d883a 	mov	r6,r3
 840501c:	100b883a 	mov	r5,r2
 8405020:	e13ffb17 	ldw	r4,-20(fp)
 8405024:	84044cc0 	call	84044cc <vid_set_pixel>
        vid_set_pixel(cx + straight_width, cy - y, color);
 8405028:	e0fffb17 	ldw	r3,-20(fp)
 840502c:	e0800217 	ldw	r2,8(fp)
 8405030:	1889883a 	add	r4,r3,r2
 8405034:	e0fffc17 	ldw	r3,-16(fp)
 8405038:	e0bffe17 	ldw	r2,-8(fp)
 840503c:	1885c83a 	sub	r2,r3,r2
 8405040:	e0c00417 	ldw	r3,16(fp)
 8405044:	180d883a 	mov	r6,r3
 8405048:	100b883a 	mov	r5,r2
 840504c:	84044cc0 	call	84044cc <vid_set_pixel>

        if(fill) {
 8405050:	e0bfff07 	ldb	r2,-4(fp)
 8405054:	10002926 	beq	r2,zero,84050fc <vid_round_corner_points+0x17c>
          vid_draw_line(cx - y, cy, cx + y + straight_width, cy, 1, color, display);
 8405058:	e0fffb17 	ldw	r3,-20(fp)
 840505c:	e0bffe17 	ldw	r2,-8(fp)
 8405060:	1889c83a 	sub	r4,r3,r2
 8405064:	e0fffb17 	ldw	r3,-20(fp)
 8405068:	e0bffe17 	ldw	r2,-8(fp)
 840506c:	1887883a 	add	r3,r3,r2
 8405070:	e0800217 	ldw	r2,8(fp)
 8405074:	1887883a 	add	r3,r3,r2
 8405078:	e0800617 	ldw	r2,24(fp)
 840507c:	d8800215 	stw	r2,8(sp)
 8405080:	e0800417 	ldw	r2,16(fp)
 8405084:	d8800115 	stw	r2,4(sp)
 8405088:	00800044 	movi	r2,1
 840508c:	d8800015 	stw	r2,0(sp)
 8405090:	e1fffc17 	ldw	r7,-16(fp)
 8405094:	180d883a 	mov	r6,r3
 8405098:	e17ffc17 	ldw	r5,-16(fp)
 840509c:	8403fa00 	call	8403fa0 <vid_draw_line>
          vid_draw_line(cx - y, cy + straight_height, cx + y + straight_width, cy + straight_height, 1, color, display);
 84050a0:	e0fffb17 	ldw	r3,-20(fp)
 84050a4:	e0bffe17 	ldw	r2,-8(fp)
 84050a8:	1889c83a 	sub	r4,r3,r2
 84050ac:	e0fffc17 	ldw	r3,-16(fp)
 84050b0:	e0800317 	ldw	r2,12(fp)
 84050b4:	188b883a 	add	r5,r3,r2
 84050b8:	e0fffb17 	ldw	r3,-20(fp)
 84050bc:	e0bffe17 	ldw	r2,-8(fp)
 84050c0:	1887883a 	add	r3,r3,r2
 84050c4:	e0800217 	ldw	r2,8(fp)
 84050c8:	188d883a 	add	r6,r3,r2
 84050cc:	e0fffc17 	ldw	r3,-16(fp)
 84050d0:	e0800317 	ldw	r2,12(fp)
 84050d4:	1887883a 	add	r3,r3,r2
 84050d8:	e0800617 	ldw	r2,24(fp)
 84050dc:	d8800215 	stw	r2,8(sp)
 84050e0:	e0800417 	ldw	r2,16(fp)
 84050e4:	d8800115 	stw	r2,4(sp)
 84050e8:	00800044 	movi	r2,1
 84050ec:	d8800015 	stw	r2,0(sp)
 84050f0:	180f883a 	mov	r7,r3
 84050f4:	8403fa00 	call	8403fa0 <vid_draw_line>
          vid_set_pixel(cx - y, cy + x + straight_height, color);
          vid_set_pixel(cx + y + straight_width, cy - x, color);
          vid_set_pixel(cx - y, cy - x, color);
        }
    }
}
 84050f8:	00015606 	br	8405654 <vid_round_corner_points+0x6d4>
        if(fill) {
          vid_draw_line(cx - y, cy, cx + y + straight_width, cy, 1, color, display);
          vid_draw_line(cx - y, cy + straight_height, cx + y + straight_width, cy + straight_height, 1, color, display);
        } else {
          //right
          vid_set_pixel(cx + y + straight_width, cy, color);
 84050fc:	e0fffb17 	ldw	r3,-20(fp)
 8405100:	e0bffe17 	ldw	r2,-8(fp)
 8405104:	1887883a 	add	r3,r3,r2
 8405108:	e0800217 	ldw	r2,8(fp)
 840510c:	1885883a 	add	r2,r3,r2
 8405110:	e0c00417 	ldw	r3,16(fp)
 8405114:	180d883a 	mov	r6,r3
 8405118:	e17ffc17 	ldw	r5,-16(fp)
 840511c:	1009883a 	mov	r4,r2
 8405120:	84044cc0 	call	84044cc <vid_set_pixel>
          vid_set_pixel(cx + y + straight_width, cy + straight_height, color);
 8405124:	e0fffb17 	ldw	r3,-20(fp)
 8405128:	e0bffe17 	ldw	r2,-8(fp)
 840512c:	1887883a 	add	r3,r3,r2
 8405130:	e0800217 	ldw	r2,8(fp)
 8405134:	1889883a 	add	r4,r3,r2
 8405138:	e0fffc17 	ldw	r3,-16(fp)
 840513c:	e0800317 	ldw	r2,12(fp)
 8405140:	1885883a 	add	r2,r3,r2
 8405144:	e0c00417 	ldw	r3,16(fp)
 8405148:	180d883a 	mov	r6,r3
 840514c:	100b883a 	mov	r5,r2
 8405150:	84044cc0 	call	84044cc <vid_set_pixel>
          //left
          vid_set_pixel(cx - y, cy, color);
 8405154:	e0fffb17 	ldw	r3,-20(fp)
 8405158:	e0bffe17 	ldw	r2,-8(fp)
 840515c:	1885c83a 	sub	r2,r3,r2
 8405160:	e0c00417 	ldw	r3,16(fp)
 8405164:	180d883a 	mov	r6,r3
 8405168:	e17ffc17 	ldw	r5,-16(fp)
 840516c:	1009883a 	mov	r4,r2
 8405170:	84044cc0 	call	84044cc <vid_set_pixel>
          vid_set_pixel(cx - y, cy + straight_height, color);
 8405174:	e0fffb17 	ldw	r3,-20(fp)
 8405178:	e0bffe17 	ldw	r2,-8(fp)
 840517c:	1889c83a 	sub	r4,r3,r2
 8405180:	e0fffc17 	ldw	r3,-16(fp)
 8405184:	e0800317 	ldw	r2,12(fp)
 8405188:	1885883a 	add	r2,r3,r2
 840518c:	e0c00417 	ldw	r3,16(fp)
 8405190:	180d883a 	mov	r6,r3
 8405194:	100b883a 	mov	r5,r2
 8405198:	84044cc0 	call	84044cc <vid_set_pixel>
          vid_set_pixel(cx - y, cy + x + straight_height, color);
          vid_set_pixel(cx + y + straight_width, cy - x, color);
          vid_set_pixel(cx - y, cy - x, color);
        }
    }
}
 840519c:	00012d06 	br	8405654 <vid_round_corner_points+0x6d4>
          vid_set_pixel(cx - y, cy + straight_height, color);
        }

    } else
    // If we've reached the 45 degree points (x=y), plot those 4 pixels
    if (x == y) {
 84051a0:	e0fffd17 	ldw	r3,-12(fp)
 84051a4:	e0bffe17 	ldw	r2,-8(fp)
 84051a8:	1880641e 	bne	r3,r2,840533c <vid_round_corner_points+0x3bc>
      if(fill) {
 84051ac:	e0bfff07 	ldb	r2,-4(fp)
 84051b0:	10003126 	beq	r2,zero,8405278 <vid_round_corner_points+0x2f8>
        vid_draw_line(cx - x, cy + y + straight_height, cx + x + straight_width, cy + y + straight_height, 1, color, display); // lower
 84051b4:	e0fffb17 	ldw	r3,-20(fp)
 84051b8:	e0bffd17 	ldw	r2,-12(fp)
 84051bc:	1889c83a 	sub	r4,r3,r2
 84051c0:	e0fffc17 	ldw	r3,-16(fp)
 84051c4:	e0bffe17 	ldw	r2,-8(fp)
 84051c8:	1887883a 	add	r3,r3,r2
 84051cc:	e0800317 	ldw	r2,12(fp)
 84051d0:	188b883a 	add	r5,r3,r2
 84051d4:	e0fffb17 	ldw	r3,-20(fp)
 84051d8:	e0bffd17 	ldw	r2,-12(fp)
 84051dc:	1887883a 	add	r3,r3,r2
 84051e0:	e0800217 	ldw	r2,8(fp)
 84051e4:	188d883a 	add	r6,r3,r2
 84051e8:	e0fffc17 	ldw	r3,-16(fp)
 84051ec:	e0bffe17 	ldw	r2,-8(fp)
 84051f0:	1887883a 	add	r3,r3,r2
 84051f4:	e0800317 	ldw	r2,12(fp)
 84051f8:	1887883a 	add	r3,r3,r2
 84051fc:	e0800617 	ldw	r2,24(fp)
 8405200:	d8800215 	stw	r2,8(sp)
 8405204:	e0800417 	ldw	r2,16(fp)
 8405208:	d8800115 	stw	r2,4(sp)
 840520c:	00800044 	movi	r2,1
 8405210:	d8800015 	stw	r2,0(sp)
 8405214:	180f883a 	mov	r7,r3
 8405218:	8403fa00 	call	8403fa0 <vid_draw_line>
        vid_draw_line(cx - x, cy - y, cx + x + straight_width, cy - y, 1, color, display); // upper
 840521c:	e0fffb17 	ldw	r3,-20(fp)
 8405220:	e0bffd17 	ldw	r2,-12(fp)
 8405224:	1889c83a 	sub	r4,r3,r2
 8405228:	e0fffc17 	ldw	r3,-16(fp)
 840522c:	e0bffe17 	ldw	r2,-8(fp)
 8405230:	188bc83a 	sub	r5,r3,r2
 8405234:	e0fffb17 	ldw	r3,-20(fp)
 8405238:	e0bffd17 	ldw	r2,-12(fp)
 840523c:	1887883a 	add	r3,r3,r2
 8405240:	e0800217 	ldw	r2,8(fp)
 8405244:	188d883a 	add	r6,r3,r2
 8405248:	e0fffc17 	ldw	r3,-16(fp)
 840524c:	e0bffe17 	ldw	r2,-8(fp)
 8405250:	1887c83a 	sub	r3,r3,r2
 8405254:	e0800617 	ldw	r2,24(fp)
 8405258:	d8800215 	stw	r2,8(sp)
 840525c:	e0800417 	ldw	r2,16(fp)
 8405260:	d8800115 	stw	r2,4(sp)
 8405264:	00800044 	movi	r2,1
 8405268:	d8800015 	stw	r2,0(sp)
 840526c:	180f883a 	mov	r7,r3
 8405270:	8403fa00 	call	8403fa0 <vid_draw_line>
          vid_set_pixel(cx - y, cy + x + straight_height, color);
          vid_set_pixel(cx + y + straight_width, cy - x, color);
          vid_set_pixel(cx - y, cy - x, color);
        }
    }
}
 8405274:	0000f706 	br	8405654 <vid_round_corner_points+0x6d4>
      if(fill) {
        vid_draw_line(cx - x, cy + y + straight_height, cx + x + straight_width, cy + y + straight_height, 1, color, display); // lower
        vid_draw_line(cx - x, cy - y, cx + x + straight_width, cy - y, 1, color, display); // upper
        
      } else {
        vid_set_pixel(cx + x + straight_width, cy + y + straight_height, color); // bottom right
 8405278:	e0fffb17 	ldw	r3,-20(fp)
 840527c:	e0bffd17 	ldw	r2,-12(fp)
 8405280:	1887883a 	add	r3,r3,r2
 8405284:	e0800217 	ldw	r2,8(fp)
 8405288:	1889883a 	add	r4,r3,r2
 840528c:	e0fffc17 	ldw	r3,-16(fp)
 8405290:	e0bffe17 	ldw	r2,-8(fp)
 8405294:	1887883a 	add	r3,r3,r2
 8405298:	e0800317 	ldw	r2,12(fp)
 840529c:	1885883a 	add	r2,r3,r2
 84052a0:	e0c00417 	ldw	r3,16(fp)
 84052a4:	180d883a 	mov	r6,r3
 84052a8:	100b883a 	mov	r5,r2
 84052ac:	84044cc0 	call	84044cc <vid_set_pixel>
        vid_set_pixel(cx - x, cy + y + straight_height, color); // bottom left
 84052b0:	e0fffb17 	ldw	r3,-20(fp)
 84052b4:	e0bffd17 	ldw	r2,-12(fp)
 84052b8:	1889c83a 	sub	r4,r3,r2
 84052bc:	e0fffc17 	ldw	r3,-16(fp)
 84052c0:	e0bffe17 	ldw	r2,-8(fp)
 84052c4:	1887883a 	add	r3,r3,r2
 84052c8:	e0800317 	ldw	r2,12(fp)
 84052cc:	1885883a 	add	r2,r3,r2
 84052d0:	e0c00417 	ldw	r3,16(fp)
 84052d4:	180d883a 	mov	r6,r3
 84052d8:	100b883a 	mov	r5,r2
 84052dc:	84044cc0 	call	84044cc <vid_set_pixel>
        vid_set_pixel(cx + x + straight_width, cy - y, color); // top right
 84052e0:	e0fffb17 	ldw	r3,-20(fp)
 84052e4:	e0bffd17 	ldw	r2,-12(fp)
 84052e8:	1887883a 	add	r3,r3,r2
 84052ec:	e0800217 	ldw	r2,8(fp)
 84052f0:	1889883a 	add	r4,r3,r2
 84052f4:	e0fffc17 	ldw	r3,-16(fp)
 84052f8:	e0bffe17 	ldw	r2,-8(fp)
 84052fc:	1885c83a 	sub	r2,r3,r2
 8405300:	e0c00417 	ldw	r3,16(fp)
 8405304:	180d883a 	mov	r6,r3
 8405308:	100b883a 	mov	r5,r2
 840530c:	84044cc0 	call	84044cc <vid_set_pixel>
        vid_set_pixel(cx - x, cy - y, color); // top left
 8405310:	e0fffb17 	ldw	r3,-20(fp)
 8405314:	e0bffd17 	ldw	r2,-12(fp)
 8405318:	1889c83a 	sub	r4,r3,r2
 840531c:	e0fffc17 	ldw	r3,-16(fp)
 8405320:	e0bffe17 	ldw	r2,-8(fp)
 8405324:	1885c83a 	sub	r2,r3,r2
 8405328:	e0c00417 	ldw	r3,16(fp)
 840532c:	180d883a 	mov	r6,r3
 8405330:	100b883a 	mov	r5,r2
 8405334:	84044cc0 	call	84044cc <vid_set_pixel>
          vid_set_pixel(cx - y, cy + x + straight_height, color);
          vid_set_pixel(cx + y + straight_width, cy - x, color);
          vid_set_pixel(cx - y, cy - x, color);
        }
    }
}
 8405338:	0000c606 	br	8405654 <vid_round_corner_points+0x6d4>
        vid_set_pixel(cx + x + straight_width, cy - y, color); // top right
        vid_set_pixel(cx - x, cy - y, color); // top left
      }
    } else
    // If we're between 0 and 45 degrees plot 8 pixels.
    if (x < y) {
 840533c:	e0fffd17 	ldw	r3,-12(fp)
 8405340:	e0bffe17 	ldw	r2,-8(fp)
 8405344:	1880c30e 	bge	r3,r2,8405654 <vid_round_corner_points+0x6d4>
        if(fill) {
 8405348:	e0bfff07 	ldb	r2,-4(fp)
 840534c:	10006126 	beq	r2,zero,84054d4 <vid_round_corner_points+0x554>
          vid_draw_line(cx - x, cy + y + straight_height, cx + x + straight_width, cy + y + straight_height, 1, color, display);
 8405350:	e0fffb17 	ldw	r3,-20(fp)
 8405354:	e0bffd17 	ldw	r2,-12(fp)
 8405358:	1889c83a 	sub	r4,r3,r2
 840535c:	e0fffc17 	ldw	r3,-16(fp)
 8405360:	e0bffe17 	ldw	r2,-8(fp)
 8405364:	1887883a 	add	r3,r3,r2
 8405368:	e0800317 	ldw	r2,12(fp)
 840536c:	188b883a 	add	r5,r3,r2
 8405370:	e0fffb17 	ldw	r3,-20(fp)
 8405374:	e0bffd17 	ldw	r2,-12(fp)
 8405378:	1887883a 	add	r3,r3,r2
 840537c:	e0800217 	ldw	r2,8(fp)
 8405380:	188d883a 	add	r6,r3,r2
 8405384:	e0fffc17 	ldw	r3,-16(fp)
 8405388:	e0bffe17 	ldw	r2,-8(fp)
 840538c:	1887883a 	add	r3,r3,r2
 8405390:	e0800317 	ldw	r2,12(fp)
 8405394:	1887883a 	add	r3,r3,r2
 8405398:	e0800617 	ldw	r2,24(fp)
 840539c:	d8800215 	stw	r2,8(sp)
 84053a0:	e0800417 	ldw	r2,16(fp)
 84053a4:	d8800115 	stw	r2,4(sp)
 84053a8:	00800044 	movi	r2,1
 84053ac:	d8800015 	stw	r2,0(sp)
 84053b0:	180f883a 	mov	r7,r3
 84053b4:	8403fa00 	call	8403fa0 <vid_draw_line>
          vid_draw_line(cx - y, cy + x + straight_height, cx + y + straight_width, cy + x + straight_height, 1, color, display);
 84053b8:	e0fffb17 	ldw	r3,-20(fp)
 84053bc:	e0bffe17 	ldw	r2,-8(fp)
 84053c0:	1889c83a 	sub	r4,r3,r2
 84053c4:	e0fffc17 	ldw	r3,-16(fp)
 84053c8:	e0bffd17 	ldw	r2,-12(fp)
 84053cc:	1887883a 	add	r3,r3,r2
 84053d0:	e0800317 	ldw	r2,12(fp)
 84053d4:	188b883a 	add	r5,r3,r2
 84053d8:	e0fffb17 	ldw	r3,-20(fp)
 84053dc:	e0bffe17 	ldw	r2,-8(fp)
 84053e0:	1887883a 	add	r3,r3,r2
 84053e4:	e0800217 	ldw	r2,8(fp)
 84053e8:	188d883a 	add	r6,r3,r2
 84053ec:	e0fffc17 	ldw	r3,-16(fp)
 84053f0:	e0bffd17 	ldw	r2,-12(fp)
 84053f4:	1887883a 	add	r3,r3,r2
 84053f8:	e0800317 	ldw	r2,12(fp)
 84053fc:	1887883a 	add	r3,r3,r2
 8405400:	e0800617 	ldw	r2,24(fp)
 8405404:	d8800215 	stw	r2,8(sp)
 8405408:	e0800417 	ldw	r2,16(fp)
 840540c:	d8800115 	stw	r2,4(sp)
 8405410:	00800044 	movi	r2,1
 8405414:	d8800015 	stw	r2,0(sp)
 8405418:	180f883a 	mov	r7,r3
 840541c:	8403fa00 	call	8403fa0 <vid_draw_line>
          vid_draw_line(cx - y, cy - x, cx + y + straight_width, cy - x, 1, color, display);
 8405420:	e0fffb17 	ldw	r3,-20(fp)
 8405424:	e0bffe17 	ldw	r2,-8(fp)
 8405428:	1889c83a 	sub	r4,r3,r2
 840542c:	e0fffc17 	ldw	r3,-16(fp)
 8405430:	e0bffd17 	ldw	r2,-12(fp)
 8405434:	188bc83a 	sub	r5,r3,r2
 8405438:	e0fffb17 	ldw	r3,-20(fp)
 840543c:	e0bffe17 	ldw	r2,-8(fp)
 8405440:	1887883a 	add	r3,r3,r2
 8405444:	e0800217 	ldw	r2,8(fp)
 8405448:	188d883a 	add	r6,r3,r2
 840544c:	e0fffc17 	ldw	r3,-16(fp)
 8405450:	e0bffd17 	ldw	r2,-12(fp)
 8405454:	1887c83a 	sub	r3,r3,r2
 8405458:	e0800617 	ldw	r2,24(fp)
 840545c:	d8800215 	stw	r2,8(sp)
 8405460:	e0800417 	ldw	r2,16(fp)
 8405464:	d8800115 	stw	r2,4(sp)
 8405468:	00800044 	movi	r2,1
 840546c:	d8800015 	stw	r2,0(sp)
 8405470:	180f883a 	mov	r7,r3
 8405474:	8403fa00 	call	8403fa0 <vid_draw_line>
          vid_draw_line(cx - x, cy - y, cx + x + straight_width, cy - y, 1, color, display);
 8405478:	e0fffb17 	ldw	r3,-20(fp)
 840547c:	e0bffd17 	ldw	r2,-12(fp)
 8405480:	1889c83a 	sub	r4,r3,r2
 8405484:	e0fffc17 	ldw	r3,-16(fp)
 8405488:	e0bffe17 	ldw	r2,-8(fp)
 840548c:	188bc83a 	sub	r5,r3,r2
 8405490:	e0fffb17 	ldw	r3,-20(fp)
 8405494:	e0bffd17 	ldw	r2,-12(fp)
 8405498:	1887883a 	add	r3,r3,r2
 840549c:	e0800217 	ldw	r2,8(fp)
 84054a0:	188d883a 	add	r6,r3,r2
 84054a4:	e0fffc17 	ldw	r3,-16(fp)
 84054a8:	e0bffe17 	ldw	r2,-8(fp)
 84054ac:	1887c83a 	sub	r3,r3,r2
 84054b0:	e0800617 	ldw	r2,24(fp)
 84054b4:	d8800215 	stw	r2,8(sp)
 84054b8:	e0800417 	ldw	r2,16(fp)
 84054bc:	d8800115 	stw	r2,4(sp)
 84054c0:	00800044 	movi	r2,1
 84054c4:	d8800015 	stw	r2,0(sp)
 84054c8:	180f883a 	mov	r7,r3
 84054cc:	8403fa00 	call	8403fa0 <vid_draw_line>
          vid_set_pixel(cx - y, cy + x + straight_height, color);
          vid_set_pixel(cx + y + straight_width, cy - x, color);
          vid_set_pixel(cx - y, cy - x, color);
        }
    }
}
 84054d0:	00006006 	br	8405654 <vid_round_corner_points+0x6d4>
          vid_draw_line(cx - x, cy + y + straight_height, cx + x + straight_width, cy + y + straight_height, 1, color, display);
          vid_draw_line(cx - y, cy + x + straight_height, cx + y + straight_width, cy + x + straight_height, 1, color, display);
          vid_draw_line(cx - y, cy - x, cx + y + straight_width, cy - x, 1, color, display);
          vid_draw_line(cx - x, cy - y, cx + x + straight_width, cy - y, 1, color, display);
        } else {
          vid_set_pixel(cx + x + straight_width, cy + y + straight_height, color);
 84054d4:	e0fffb17 	ldw	r3,-20(fp)
 84054d8:	e0bffd17 	ldw	r2,-12(fp)
 84054dc:	1887883a 	add	r3,r3,r2
 84054e0:	e0800217 	ldw	r2,8(fp)
 84054e4:	1889883a 	add	r4,r3,r2
 84054e8:	e0fffc17 	ldw	r3,-16(fp)
 84054ec:	e0bffe17 	ldw	r2,-8(fp)
 84054f0:	1887883a 	add	r3,r3,r2
 84054f4:	e0800317 	ldw	r2,12(fp)
 84054f8:	1885883a 	add	r2,r3,r2
 84054fc:	e0c00417 	ldw	r3,16(fp)
 8405500:	180d883a 	mov	r6,r3
 8405504:	100b883a 	mov	r5,r2
 8405508:	84044cc0 	call	84044cc <vid_set_pixel>
          vid_set_pixel(cx - x, cy + y + straight_height, color);
 840550c:	e0fffb17 	ldw	r3,-20(fp)
 8405510:	e0bffd17 	ldw	r2,-12(fp)
 8405514:	1889c83a 	sub	r4,r3,r2
 8405518:	e0fffc17 	ldw	r3,-16(fp)
 840551c:	e0bffe17 	ldw	r2,-8(fp)
 8405520:	1887883a 	add	r3,r3,r2
 8405524:	e0800317 	ldw	r2,12(fp)
 8405528:	1885883a 	add	r2,r3,r2
 840552c:	e0c00417 	ldw	r3,16(fp)
 8405530:	180d883a 	mov	r6,r3
 8405534:	100b883a 	mov	r5,r2
 8405538:	84044cc0 	call	84044cc <vid_set_pixel>
          vid_set_pixel(cx + x + straight_width, cy - y, color);
 840553c:	e0fffb17 	ldw	r3,-20(fp)
 8405540:	e0bffd17 	ldw	r2,-12(fp)
 8405544:	1887883a 	add	r3,r3,r2
 8405548:	e0800217 	ldw	r2,8(fp)
 840554c:	1889883a 	add	r4,r3,r2
 8405550:	e0fffc17 	ldw	r3,-16(fp)
 8405554:	e0bffe17 	ldw	r2,-8(fp)
 8405558:	1885c83a 	sub	r2,r3,r2
 840555c:	e0c00417 	ldw	r3,16(fp)
 8405560:	180d883a 	mov	r6,r3
 8405564:	100b883a 	mov	r5,r2
 8405568:	84044cc0 	call	84044cc <vid_set_pixel>
          vid_set_pixel(cx - x, cy - y, color);
 840556c:	e0fffb17 	ldw	r3,-20(fp)
 8405570:	e0bffd17 	ldw	r2,-12(fp)
 8405574:	1889c83a 	sub	r4,r3,r2
 8405578:	e0fffc17 	ldw	r3,-16(fp)
 840557c:	e0bffe17 	ldw	r2,-8(fp)
 8405580:	1885c83a 	sub	r2,r3,r2
 8405584:	e0c00417 	ldw	r3,16(fp)
 8405588:	180d883a 	mov	r6,r3
 840558c:	100b883a 	mov	r5,r2
 8405590:	84044cc0 	call	84044cc <vid_set_pixel>
          vid_set_pixel(cx + y + straight_width, cy + x + straight_height, color);
 8405594:	e0fffb17 	ldw	r3,-20(fp)
 8405598:	e0bffe17 	ldw	r2,-8(fp)
 840559c:	1887883a 	add	r3,r3,r2
 84055a0:	e0800217 	ldw	r2,8(fp)
 84055a4:	1889883a 	add	r4,r3,r2
 84055a8:	e0fffc17 	ldw	r3,-16(fp)
 84055ac:	e0bffd17 	ldw	r2,-12(fp)
 84055b0:	1887883a 	add	r3,r3,r2
 84055b4:	e0800317 	ldw	r2,12(fp)
 84055b8:	1885883a 	add	r2,r3,r2
 84055bc:	e0c00417 	ldw	r3,16(fp)
 84055c0:	180d883a 	mov	r6,r3
 84055c4:	100b883a 	mov	r5,r2
 84055c8:	84044cc0 	call	84044cc <vid_set_pixel>
          vid_set_pixel(cx - y, cy + x + straight_height, color);
 84055cc:	e0fffb17 	ldw	r3,-20(fp)
 84055d0:	e0bffe17 	ldw	r2,-8(fp)
 84055d4:	1889c83a 	sub	r4,r3,r2
 84055d8:	e0fffc17 	ldw	r3,-16(fp)
 84055dc:	e0bffd17 	ldw	r2,-12(fp)
 84055e0:	1887883a 	add	r3,r3,r2
 84055e4:	e0800317 	ldw	r2,12(fp)
 84055e8:	1885883a 	add	r2,r3,r2
 84055ec:	e0c00417 	ldw	r3,16(fp)
 84055f0:	180d883a 	mov	r6,r3
 84055f4:	100b883a 	mov	r5,r2
 84055f8:	84044cc0 	call	84044cc <vid_set_pixel>
          vid_set_pixel(cx + y + straight_width, cy - x, color);
 84055fc:	e0fffb17 	ldw	r3,-20(fp)
 8405600:	e0bffe17 	ldw	r2,-8(fp)
 8405604:	1887883a 	add	r3,r3,r2
 8405608:	e0800217 	ldw	r2,8(fp)
 840560c:	1889883a 	add	r4,r3,r2
 8405610:	e0fffc17 	ldw	r3,-16(fp)
 8405614:	e0bffd17 	ldw	r2,-12(fp)
 8405618:	1885c83a 	sub	r2,r3,r2
 840561c:	e0c00417 	ldw	r3,16(fp)
 8405620:	180d883a 	mov	r6,r3
 8405624:	100b883a 	mov	r5,r2
 8405628:	84044cc0 	call	84044cc <vid_set_pixel>
          vid_set_pixel(cx - y, cy - x, color);
 840562c:	e0fffb17 	ldw	r3,-20(fp)
 8405630:	e0bffe17 	ldw	r2,-8(fp)
 8405634:	1889c83a 	sub	r4,r3,r2
 8405638:	e0fffc17 	ldw	r3,-16(fp)
 840563c:	e0bffd17 	ldw	r2,-12(fp)
 8405640:	1885c83a 	sub	r2,r3,r2
 8405644:	e0c00417 	ldw	r3,16(fp)
 8405648:	180d883a 	mov	r6,r3
 840564c:	100b883a 	mov	r5,r2
 8405650:	84044cc0 	call	84044cc <vid_set_pixel>
        }
    }
}
 8405654:	0001883a 	nop
 8405658:	e037883a 	mov	sp,fp
 840565c:	dfc00117 	ldw	ra,4(sp)
 8405660:	df000017 	ldw	fp,0(sp)
 8405664:	dec00204 	addi	sp,sp,8
 8405668:	f800283a 	ret

0840566c <max3>:
*  Purpose:  Returns the minimum value of 3 parameters
*            Used for drawing filled shapes
*
******************************************************************/
int max3( int a, int b, int c )
{
 840566c:	defffc04 	addi	sp,sp,-16
 8405670:	df000315 	stw	fp,12(sp)
 8405674:	df000304 	addi	fp,sp,12
 8405678:	e13ffd15 	stw	r4,-12(fp)
 840567c:	e17ffe15 	stw	r5,-8(fp)
 8405680:	e1bfff15 	stw	r6,-4(fp)
  if( a < b )
 8405684:	e0fffd17 	ldw	r3,-12(fp)
 8405688:	e0bffe17 	ldw	r2,-8(fp)
 840568c:	1880020e 	bge	r3,r2,8405698 <max3+0x2c>
    a = b;
 8405690:	e0bffe17 	ldw	r2,-8(fp)
 8405694:	e0bffd15 	stw	r2,-12(fp)
  if( a < c )
 8405698:	e0fffd17 	ldw	r3,-12(fp)
 840569c:	e0bfff17 	ldw	r2,-4(fp)
 84056a0:	1880020e 	bge	r3,r2,84056ac <max3+0x40>
    a = c;
 84056a4:	e0bfff17 	ldw	r2,-4(fp)
 84056a8:	e0bffd15 	stw	r2,-12(fp)
  
  return a;
 84056ac:	e0bffd17 	ldw	r2,-12(fp)
}
 84056b0:	e037883a 	mov	sp,fp
 84056b4:	df000017 	ldw	fp,0(sp)
 84056b8:	dec00104 	addi	sp,sp,4
 84056bc:	f800283a 	ret

084056c0 <min3>:
*  Purpose:  Returns the minimum value of 3 parameters
*            Used for drawing filled shapes.
*
******************************************************************/
int min3( int a, int b, int c )
{
 84056c0:	defffc04 	addi	sp,sp,-16
 84056c4:	df000315 	stw	fp,12(sp)
 84056c8:	df000304 	addi	fp,sp,12
 84056cc:	e13ffd15 	stw	r4,-12(fp)
 84056d0:	e17ffe15 	stw	r5,-8(fp)
 84056d4:	e1bfff15 	stw	r6,-4(fp)
  if( a > b )
 84056d8:	e0bffd17 	ldw	r2,-12(fp)
 84056dc:	e0fffe17 	ldw	r3,-8(fp)
 84056e0:	1880020e 	bge	r3,r2,84056ec <min3+0x2c>
    a = b;
 84056e4:	e0bffe17 	ldw	r2,-8(fp)
 84056e8:	e0bffd15 	stw	r2,-12(fp)
  if( a > c )
 84056ec:	e0bffd17 	ldw	r2,-12(fp)
 84056f0:	e0ffff17 	ldw	r3,-4(fp)
 84056f4:	1880020e 	bge	r3,r2,8405700 <min3+0x40>
    a = c;
 84056f8:	e0bfff17 	ldw	r2,-4(fp)
 84056fc:	e0bffd15 	stw	r2,-12(fp)
  
  return a;
 8405700:	e0bffd17 	ldw	r2,-12(fp)
}
 8405704:	e037883a 	mov	sp,fp
 8405708:	df000017 	ldw	fp,0(sp)
 840570c:	dec00104 	addi	sp,sp,4
 8405710:	f800283a 	ret

08405714 <max_diff3>:
*  Purpose:  Returns the positive max difference between 3 
*            parameters.  Used for drawing filled shapes
*
******************************************************************/
int max_diff3(int a, int b, int c)
{
 8405714:	defff904 	addi	sp,sp,-28
 8405718:	dfc00615 	stw	ra,24(sp)
 840571c:	df000515 	stw	fp,20(sp)
 8405720:	df000504 	addi	fp,sp,20
 8405724:	e13ffd15 	stw	r4,-12(fp)
 8405728:	e17ffe15 	stw	r5,-8(fp)
 840572c:	e1bfff15 	stw	r6,-4(fp)
  int max, min;
    
  max = max3( a, b, c );
 8405730:	e1bfff17 	ldw	r6,-4(fp)
 8405734:	e17ffe17 	ldw	r5,-8(fp)
 8405738:	e13ffd17 	ldw	r4,-12(fp)
 840573c:	840566c0 	call	840566c <max3>
 8405740:	e0bffb15 	stw	r2,-20(fp)
  min = min3( a, b, c );
 8405744:	e1bfff17 	ldw	r6,-4(fp)
 8405748:	e17ffe17 	ldw	r5,-8(fp)
 840574c:	e13ffd17 	ldw	r4,-12(fp)
 8405750:	84056c00 	call	84056c0 <min3>
 8405754:	e0bffc15 	stw	r2,-16(fp)
  return (max - min);
 8405758:	e0fffb17 	ldw	r3,-20(fp)
 840575c:	e0bffc17 	ldw	r2,-16(fp)
 8405760:	1885c83a 	sub	r2,r3,r2
}
 8405764:	e037883a 	mov	sp,fp
 8405768:	dfc00117 	ldw	ra,4(sp)
 840576c:	df000017 	ldw	fp,0(sp)
 8405770:	dec00204 	addi	sp,sp,8
 8405774:	f800283a 	ret

08405778 <vid_print_string_alpha>:
*           24 bit - R(8):G(8):B(8)  (packed)
*           32 bit - 0 : R(8):G(8):B(8) (unpacked)
******************************************************************/

int vid_print_string_alpha(int horiz_offset, int vert_offset, int color, int background_color, struct abc_font_struct font[], char string[])
{
 8405778:	defff504 	addi	sp,sp,-44
 840577c:	dfc00a15 	stw	ra,40(sp)
 8405780:	df000915 	stw	fp,36(sp)
 8405784:	df000904 	addi	fp,sp,36
 8405788:	e13ffc15 	stw	r4,-16(fp)
 840578c:	e17ffd15 	stw	r5,-12(fp)
 8405790:	e1bffe15 	stw	r6,-8(fp)
 8405794:	e1ffff15 	stw	r7,-4(fp)
  int i = 0;
 8405798:	e03ff915 	stw	zero,-28(fp)
  int tab;
  int original_horiz_offset;

  original_horiz_offset = horiz_offset;
 840579c:	e0bffc17 	ldw	r2,-16(fp)
 84057a0:	e0bffb15 	stw	r2,-20(fp)

  // Print until we hit the '\0' char.
  while (string[i]) {
 84057a4:	00007906 	br	840598c <vid_print_string_alpha+0x214>
    //Handle newline char here.
    if (string[i] == '\n') {
 84057a8:	e0bff917 	ldw	r2,-28(fp)
 84057ac:	e0c00317 	ldw	r3,12(fp)
 84057b0:	1885883a 	add	r2,r3,r2
 84057b4:	10800003 	ldbu	r2,0(r2)
 84057b8:	10803fcc 	andi	r2,r2,255
 84057bc:	1080201c 	xori	r2,r2,128
 84057c0:	10bfe004 	addi	r2,r2,-128
 84057c4:	10800298 	cmpnei	r2,r2,10
 84057c8:	10000c1e 	bne	r2,zero,84057fc <vid_print_string_alpha+0x84>
      horiz_offset = original_horiz_offset;
 84057cc:	e0bffb17 	ldw	r2,-20(fp)
 84057d0:	e0bffc15 	stw	r2,-16(fp)
      vert_offset += font['|' - 33].bounds_height;  // we'll use "|" to add the line to line spacing
 84057d4:	e0800217 	ldw	r2,8(fp)
 84057d8:	1082d804 	addi	r2,r2,2912
 84057dc:	10c00517 	ldw	r3,20(r2)
 84057e0:	e0bffd17 	ldw	r2,-12(fp)
 84057e4:	1885883a 	add	r2,r3,r2
 84057e8:	e0bffd15 	stw	r2,-12(fp)
      i++;
 84057ec:	e0bff917 	ldw	r2,-28(fp)
 84057f0:	10800044 	addi	r2,r2,1
 84057f4:	e0bff915 	stw	r2,-28(fp)
      continue;
 84057f8:	00006406 	br	840598c <vid_print_string_alpha+0x214>
    }
    // Lay down that character and increment our offsets.
    if(string[i] == 32)  // this is a space in ASCII
 84057fc:	e0bff917 	ldw	r2,-28(fp)
 8405800:	e0c00317 	ldw	r3,12(fp)
 8405804:	1885883a 	add	r2,r3,r2
 8405808:	10800003 	ldbu	r2,0(r2)
 840580c:	10803fcc 	andi	r2,r2,255
 8405810:	1080201c 	xori	r2,r2,128
 8405814:	10bfe004 	addi	r2,r2,-128
 8405818:	10800818 	cmpnei	r2,r2,32
 840581c:	1000131e 	bne	r2,zero,840586c <vid_print_string_alpha+0xf4>
    {
      if(background_color != CLEAR_BACKGROUND)  // need to fill in this spot (setting foreground to background color so that it looks like a drawn in box)
 8405820:	e0bfff17 	ldw	r2,-4(fp)
 8405824:	10bfffe0 	cmpeqi	r2,r2,-1
 8405828:	1000091e 	bne	r2,zero,8405850 <vid_print_string_alpha+0xd8>
      {
        vid_print_char_alpha (horiz_offset, vert_offset, background_color, '-', background_color, font);
 840582c:	e0800217 	ldw	r2,8(fp)
 8405830:	d8800115 	stw	r2,4(sp)
 8405834:	e0bfff17 	ldw	r2,-4(fp)
 8405838:	d8800015 	stw	r2,0(sp)
 840583c:	01c00b44 	movi	r7,45
 8405840:	e1bfff17 	ldw	r6,-4(fp)
 8405844:	e17ffd17 	ldw	r5,-12(fp)
 8405848:	e13ffc17 	ldw	r4,-16(fp)
 840584c:	8405edc0 	call	8405edc <vid_print_char_alpha>
      }
      horiz_offset += font[45 - 33].bounds_width;  // using the width of the '-' character for the space width since it's not present in the font
 8405850:	e0800217 	ldw	r2,8(fp)
 8405854:	10806004 	addi	r2,r2,384
 8405858:	10c00417 	ldw	r3,16(r2)
 840585c:	e0bffc17 	ldw	r2,-16(fp)
 8405860:	1885883a 	add	r2,r3,r2
 8405864:	e0bffc15 	stw	r2,-16(fp)
 8405868:	00004506 	br	8405980 <vid_print_string_alpha+0x208>
    }
    else if(string[i] == '\t')  // this is a tab
 840586c:	e0bff917 	ldw	r2,-28(fp)
 8405870:	e0c00317 	ldw	r3,12(fp)
 8405874:	1885883a 	add	r2,r3,r2
 8405878:	10800003 	ldbu	r2,0(r2)
 840587c:	10803fcc 	andi	r2,r2,255
 8405880:	1080201c 	xori	r2,r2,128
 8405884:	10bfe004 	addi	r2,r2,-128
 8405888:	10800258 	cmpnei	r2,r2,9
 840588c:	10001b1e 	bne	r2,zero,84058fc <vid_print_string_alpha+0x184>
    {
      for( tab = 0; tab < TAB_SPACING; tab++ )
 8405890:	e03ffa15 	stw	zero,-24(fp)
 8405894:	00001506 	br	84058ec <vid_print_string_alpha+0x174>
      {
        if(background_color != CLEAR_BACKGROUND)  // need to fill in this spot (setting foreground to background color so that it looks like a drawn in box)
 8405898:	e0bfff17 	ldw	r2,-4(fp)
 840589c:	10bfffe0 	cmpeqi	r2,r2,-1
 84058a0:	1000091e 	bne	r2,zero,84058c8 <vid_print_string_alpha+0x150>
        {
          vid_print_char_alpha (horiz_offset, vert_offset, background_color, '-', background_color, font);
 84058a4:	e0800217 	ldw	r2,8(fp)
 84058a8:	d8800115 	stw	r2,4(sp)
 84058ac:	e0bfff17 	ldw	r2,-4(fp)
 84058b0:	d8800015 	stw	r2,0(sp)
 84058b4:	01c00b44 	movi	r7,45
 84058b8:	e1bfff17 	ldw	r6,-4(fp)
 84058bc:	e17ffd17 	ldw	r5,-12(fp)
 84058c0:	e13ffc17 	ldw	r4,-16(fp)
 84058c4:	8405edc0 	call	8405edc <vid_print_char_alpha>
        }
        horiz_offset += font[45 - 33].bounds_width;  // using the width of the '-' character for the space width since it's not present in the font
 84058c8:	e0800217 	ldw	r2,8(fp)
 84058cc:	10806004 	addi	r2,r2,384
 84058d0:	10c00417 	ldw	r3,16(r2)
 84058d4:	e0bffc17 	ldw	r2,-16(fp)
 84058d8:	1885883a 	add	r2,r3,r2
 84058dc:	e0bffc15 	stw	r2,-16(fp)
      }
      horiz_offset += font[45 - 33].bounds_width;  // using the width of the '-' character for the space width since it's not present in the font
    }
    else if(string[i] == '\t')  // this is a tab
    {
      for( tab = 0; tab < TAB_SPACING; tab++ )
 84058e0:	e0bffa17 	ldw	r2,-24(fp)
 84058e4:	10800044 	addi	r2,r2,1
 84058e8:	e0bffa15 	stw	r2,-24(fp)
 84058ec:	e0bffa17 	ldw	r2,-24(fp)
 84058f0:	10800090 	cmplti	r2,r2,2
 84058f4:	103fe81e 	bne	r2,zero,8405898 <__alt_data_end+0xfc405898>
 84058f8:	00002106 	br	8405980 <vid_print_string_alpha+0x208>
        horiz_offset += font[45 - 33].bounds_width;  // using the width of the '-' character for the space width since it's not present in the font
      }
    }
    else
    {
      vid_print_char_alpha (horiz_offset, vert_offset, color, string[i], background_color, font);
 84058fc:	e0bff917 	ldw	r2,-28(fp)
 8405900:	e0c00317 	ldw	r3,12(fp)
 8405904:	1885883a 	add	r2,r3,r2
 8405908:	10800003 	ldbu	r2,0(r2)
 840590c:	10c03fcc 	andi	r3,r2,255
 8405910:	18c0201c 	xori	r3,r3,128
 8405914:	18ffe004 	addi	r3,r3,-128
 8405918:	e0800217 	ldw	r2,8(fp)
 840591c:	d8800115 	stw	r2,4(sp)
 8405920:	e0bfff17 	ldw	r2,-4(fp)
 8405924:	d8800015 	stw	r2,0(sp)
 8405928:	180f883a 	mov	r7,r3
 840592c:	e1bffe17 	ldw	r6,-8(fp)
 8405930:	e17ffd17 	ldw	r5,-12(fp)
 8405934:	e13ffc17 	ldw	r4,-16(fp)
 8405938:	8405edc0 	call	8405edc <vid_print_char_alpha>
      horiz_offset += font[string[i] - 33].bounds_width;
 840593c:	e0bff917 	ldw	r2,-28(fp)
 8405940:	e0c00317 	ldw	r3,12(fp)
 8405944:	1885883a 	add	r2,r3,r2
 8405948:	10800003 	ldbu	r2,0(r2)
 840594c:	10c03fcc 	andi	r3,r2,255
 8405950:	18c0201c 	xori	r3,r3,128
 8405954:	18ffe004 	addi	r3,r3,-128
 8405958:	00820034 	movhi	r2,2048
 840595c:	10bff7c4 	addi	r2,r2,-33
 8405960:	1885883a 	add	r2,r3,r2
 8405964:	1004917a 	slli	r2,r2,5
 8405968:	e0c00217 	ldw	r3,8(fp)
 840596c:	1885883a 	add	r2,r3,r2
 8405970:	10c00417 	ldw	r3,16(r2)
 8405974:	e0bffc17 	ldw	r2,-16(fp)
 8405978:	1885883a 	add	r2,r3,r2
 840597c:	e0bffc15 	stw	r2,-16(fp)
    }
    i++;
 8405980:	e0bff917 	ldw	r2,-28(fp)
 8405984:	10800044 	addi	r2,r2,1
 8405988:	e0bff915 	stw	r2,-28(fp)
  int original_horiz_offset;

  original_horiz_offset = horiz_offset;

  // Print until we hit the '\0' char.
  while (string[i]) {
 840598c:	e0bff917 	ldw	r2,-28(fp)
 8405990:	e0c00317 	ldw	r3,12(fp)
 8405994:	1885883a 	add	r2,r3,r2
 8405998:	10800003 	ldbu	r2,0(r2)
 840599c:	10803fcc 	andi	r2,r2,255
 84059a0:	1080201c 	xori	r2,r2,128
 84059a4:	10bfe004 	addi	r2,r2,-128
 84059a8:	103f7f1e 	bne	r2,zero,84057a8 <__alt_data_end+0xfc4057a8>
      vid_print_char_alpha (horiz_offset, vert_offset, color, string[i], background_color, font);
      horiz_offset += font[string[i] - 33].bounds_width;
    }
    i++;
  }
  return (0);
 84059ac:	0005883a 	mov	r2,zero
}
 84059b0:	e037883a 	mov	sp,fp
 84059b4:	dfc00117 	ldw	ra,4(sp)
 84059b8:	df000017 	ldw	fp,0(sp)
 84059bc:	dec00204 	addi	sp,sp,8
 84059c0:	f800283a 	ret

084059c4 <seperate_color_channels>:
*           the function working on pointers.
*
******************************************************************/

int seperate_color_channels(int color_depth, unsigned char * color, unsigned char * red, unsigned char * green, unsigned char * blue)
{
 84059c4:	defff904 	addi	sp,sp,-28
 84059c8:	df000615 	stw	fp,24(sp)
 84059cc:	df000604 	addi	fp,sp,24
 84059d0:	e13ffc15 	stw	r4,-16(fp)
 84059d4:	e17ffd15 	stw	r5,-12(fp)
 84059d8:	e1bffe15 	stw	r6,-8(fp)
 84059dc:	e1ffff15 	stw	r7,-4(fp)
  int return_value;  // error checking in case anyone is listening
  unsigned short temp_color = 0;
 84059e0:	e03ffb0d 	sth	zero,-20(fp)
  
  if (color_depth == 16)  // R(5):G(6):B(5)
 84059e4:	e0bffc17 	ldw	r2,-16(fp)
 84059e8:	10800418 	cmpnei	r2,r2,16
 84059ec:	1000221e 	bne	r2,zero,8405a78 <seperate_color_channels+0xb4>
  {
    temp_color = *color++;        // get the first half of the 16 bit color
 84059f0:	e0bffd17 	ldw	r2,-12(fp)
 84059f4:	10c00044 	addi	r3,r2,1
 84059f8:	e0fffd15 	stw	r3,-12(fp)
 84059fc:	10800003 	ldbu	r2,0(r2)
 8405a00:	10803fcc 	andi	r2,r2,255
 8405a04:	e0bffb0d 	sth	r2,-20(fp)
    temp_color += (*color << 8);  // get the second half of the 16 bit color
 8405a08:	e0bffd17 	ldw	r2,-12(fp)
 8405a0c:	10800003 	ldbu	r2,0(r2)
 8405a10:	10803fcc 	andi	r2,r2,255
 8405a14:	1004923a 	slli	r2,r2,8
 8405a18:	1007883a 	mov	r3,r2
 8405a1c:	e0bffb0b 	ldhu	r2,-20(fp)
 8405a20:	1885883a 	add	r2,r3,r2
 8405a24:	e0bffb0d 	sth	r2,-20(fp)
    *blue = temp_color & 0x1F; 
 8405a28:	e0bffb0b 	ldhu	r2,-20(fp)
 8405a2c:	108007cc 	andi	r2,r2,31
 8405a30:	1007883a 	mov	r3,r2
 8405a34:	e0800117 	ldw	r2,4(fp)
 8405a38:	10c00005 	stb	r3,0(r2)
    *green = (temp_color >> 5) & 0x3F;
 8405a3c:	e0bffb0b 	ldhu	r2,-20(fp)
 8405a40:	1004d17a 	srli	r2,r2,5
 8405a44:	10800fcc 	andi	r2,r2,63
 8405a48:	1007883a 	mov	r3,r2
 8405a4c:	e0bfff17 	ldw	r2,-4(fp)
 8405a50:	10c00005 	stb	r3,0(r2)
    *red = (temp_color >> 11) & 0x1F;
 8405a54:	e0bffb0b 	ldhu	r2,-20(fp)
 8405a58:	1004d2fa 	srli	r2,r2,11
 8405a5c:	108007cc 	andi	r2,r2,31
 8405a60:	1007883a 	mov	r3,r2
 8405a64:	e0bffe17 	ldw	r2,-8(fp)
 8405a68:	10c00005 	stb	r3,0(r2)
    return_value = 1;
 8405a6c:	00800044 	movi	r2,1
 8405a70:	e0bffa15 	stw	r2,-24(fp)
 8405a74:	00002006 	br	8405af8 <seperate_color_channels+0x134>
  }
  else if ((color_depth == 24) || (color_depth == 32))  // R(8):G(8):B(8) packed/unpacked
 8405a78:	e0bffc17 	ldw	r2,-16(fp)
 8405a7c:	10800620 	cmpeqi	r2,r2,24
 8405a80:	1000031e 	bne	r2,zero,8405a90 <seperate_color_channels+0xcc>
 8405a84:	e0bffc17 	ldw	r2,-16(fp)
 8405a88:	10800818 	cmpnei	r2,r2,32
 8405a8c:	1000131e 	bne	r2,zero,8405adc <seperate_color_channels+0x118>
  {
    *blue = *color++;
 8405a90:	e0bffd17 	ldw	r2,-12(fp)
 8405a94:	10c00044 	addi	r3,r2,1
 8405a98:	e0fffd15 	stw	r3,-12(fp)
 8405a9c:	10c00003 	ldbu	r3,0(r2)
 8405aa0:	e0800117 	ldw	r2,4(fp)
 8405aa4:	10c00005 	stb	r3,0(r2)
    *green = *color++;
 8405aa8:	e0bffd17 	ldw	r2,-12(fp)
 8405aac:	10c00044 	addi	r3,r2,1
 8405ab0:	e0fffd15 	stw	r3,-12(fp)
 8405ab4:	10c00003 	ldbu	r3,0(r2)
 8405ab8:	e0bfff17 	ldw	r2,-4(fp)
 8405abc:	10c00005 	stb	r3,0(r2)
    *red = *color;   
 8405ac0:	e0bffd17 	ldw	r2,-12(fp)
 8405ac4:	10c00003 	ldbu	r3,0(r2)
 8405ac8:	e0bffe17 	ldw	r2,-8(fp)
 8405acc:	10c00005 	stb	r3,0(r2)
    return_value = 1;
 8405ad0:	00800044 	movi	r2,1
 8405ad4:	e0bffa15 	stw	r2,-24(fp)
 8405ad8:	00000706 	br	8405af8 <seperate_color_channels+0x134>
  }
  else  // not a valid color depth for this function
  {
    *red = 0;
 8405adc:	e0bffe17 	ldw	r2,-8(fp)
 8405ae0:	10000005 	stb	zero,0(r2)
    *green = 0;
 8405ae4:	e0bfff17 	ldw	r2,-4(fp)
 8405ae8:	10000005 	stb	zero,0(r2)
    *blue = 0;    
 8405aec:	e0800117 	ldw	r2,4(fp)
 8405af0:	10000005 	stb	zero,0(r2)
    return_value = 0;    
 8405af4:	e03ffa15 	stw	zero,-24(fp)
  }
  return return_value;
 8405af8:	e0bffa17 	ldw	r2,-24(fp)
}
 8405afc:	e037883a 	mov	sp,fp
 8405b00:	df000017 	ldw	fp,0(sp)
 8405b04:	dec00104 	addi	sp,sp,4
 8405b08:	f800283a 	ret

08405b0c <merge_color_channels>:
*           different color formats and packing.
*
******************************************************************/

int merge_color_channels(int color_depth, unsigned char red, unsigned char green, unsigned char blue, unsigned char * color)
{
 8405b0c:	defff904 	addi	sp,sp,-28
 8405b10:	df000615 	stw	fp,24(sp)
 8405b14:	df000604 	addi	fp,sp,24
 8405b18:	e13ffc15 	stw	r4,-16(fp)
 8405b1c:	2809883a 	mov	r4,r5
 8405b20:	3007883a 	mov	r3,r6
 8405b24:	3805883a 	mov	r2,r7
 8405b28:	e13ffd05 	stb	r4,-12(fp)
 8405b2c:	e0fffe05 	stb	r3,-8(fp)
 8405b30:	e0bfff05 	stb	r2,-4(fp)
  int return_value;  // error checking in case anyone is listening
  unsigned short temp_color;
    
  if (color_depth == 16)  // R(5):G(6):B(5)
 8405b34:	e0bffc17 	ldw	r2,-16(fp)
 8405b38:	10800418 	cmpnei	r2,r2,16
 8405b3c:	1000191e 	bne	r2,zero,8405ba4 <merge_color_channels+0x98>
  {
    temp_color = (blue & 0x1F) | ((green & 0x3F) << 5) | ((red & 0x1F) << 11);  // 16 bit color format
 8405b40:	e0bfff03 	ldbu	r2,-4(fp)
 8405b44:	108007cc 	andi	r2,r2,31
 8405b48:	1007883a 	mov	r3,r2
 8405b4c:	e0bffe03 	ldbu	r2,-8(fp)
 8405b50:	10800fcc 	andi	r2,r2,63
 8405b54:	1004917a 	slli	r2,r2,5
 8405b58:	1884b03a 	or	r2,r3,r2
 8405b5c:	1007883a 	mov	r3,r2
 8405b60:	e0bffd03 	ldbu	r2,-12(fp)
 8405b64:	100492fa 	slli	r2,r2,11
 8405b68:	1884b03a 	or	r2,r3,r2
 8405b6c:	e0bffb0d 	sth	r2,-20(fp)
    *color++ = temp_color & 0xFF;
 8405b70:	e0800117 	ldw	r2,4(fp)
 8405b74:	10c00044 	addi	r3,r2,1
 8405b78:	e0c00115 	stw	r3,4(fp)
 8405b7c:	e0fffb0b 	ldhu	r3,-20(fp)
 8405b80:	10c00005 	stb	r3,0(r2)
    *color = (temp_color >> 8) & 0xFF;
 8405b84:	e0bffb0b 	ldhu	r2,-20(fp)
 8405b88:	1004d23a 	srli	r2,r2,8
 8405b8c:	1007883a 	mov	r3,r2
 8405b90:	e0800117 	ldw	r2,4(fp)
 8405b94:	10c00005 	stb	r3,0(r2)
    return_value = 1;
 8405b98:	00800044 	movi	r2,1
 8405b9c:	e0bffa15 	stw	r2,-24(fp)
 8405ba0:	00002106 	br	8405c28 <merge_color_channels+0x11c>
  }
  else if ((color_depth == 24) || (color_depth == 32))  // R(8):G(8):B(8) packed/unpacked
 8405ba4:	e0bffc17 	ldw	r2,-16(fp)
 8405ba8:	10800620 	cmpeqi	r2,r2,24
 8405bac:	1000031e 	bne	r2,zero,8405bbc <merge_color_channels+0xb0>
 8405bb0:	e0bffc17 	ldw	r2,-16(fp)
 8405bb4:	10800818 	cmpnei	r2,r2,32
 8405bb8:	1000101e 	bne	r2,zero,8405bfc <merge_color_channels+0xf0>
  {
    *color++ = blue;
 8405bbc:	e0800117 	ldw	r2,4(fp)
 8405bc0:	10c00044 	addi	r3,r2,1
 8405bc4:	e0c00115 	stw	r3,4(fp)
 8405bc8:	e0ffff03 	ldbu	r3,-4(fp)
 8405bcc:	10c00005 	stb	r3,0(r2)
    *color++ = green;
 8405bd0:	e0800117 	ldw	r2,4(fp)
 8405bd4:	10c00044 	addi	r3,r2,1
 8405bd8:	e0c00115 	stw	r3,4(fp)
 8405bdc:	e0fffe03 	ldbu	r3,-8(fp)
 8405be0:	10c00005 	stb	r3,0(r2)
    *color = red;
 8405be4:	e0800117 	ldw	r2,4(fp)
 8405be8:	e0fffd03 	ldbu	r3,-12(fp)
 8405bec:	10c00005 	stb	r3,0(r2)
    return_value = 1;
 8405bf0:	00800044 	movi	r2,1
 8405bf4:	e0bffa15 	stw	r2,-24(fp)
 8405bf8:	00000b06 	br	8405c28 <merge_color_channels+0x11c>
  }
  else  // not a valid color depth for this function
  {
    *color++ = 0;
 8405bfc:	e0800117 	ldw	r2,4(fp)
 8405c00:	10c00044 	addi	r3,r2,1
 8405c04:	e0c00115 	stw	r3,4(fp)
 8405c08:	10000005 	stb	zero,0(r2)
    *color++ = 0;
 8405c0c:	e0800117 	ldw	r2,4(fp)
 8405c10:	10c00044 	addi	r3,r2,1
 8405c14:	e0c00115 	stw	r3,4(fp)
 8405c18:	10000005 	stb	zero,0(r2)
    *color = 0;
 8405c1c:	e0800117 	ldw	r2,4(fp)
 8405c20:	10000005 	stb	zero,0(r2)
    return_value = 0;    
 8405c24:	e03ffa15 	stw	zero,-24(fp)
  }
  return return_value;  
 8405c28:	e0bffa17 	ldw	r2,-24(fp)
}
 8405c2c:	e037883a 	mov	sp,fp
 8405c30:	df000017 	ldw	fp,0(sp)
 8405c34:	dec00104 	addi	sp,sp,4
 8405c38:	f800283a 	ret

08405c3c <read_from_frame>:
*           needed to calculate the new one.
*
******************************************************************/

int read_from_frame (int horiz, int vert, unsigned char *red, unsigned char *green, unsigned char *blue, alt_video_display * display)
{
 8405c3c:	defffa04 	addi	sp,sp,-24
 8405c40:	dfc00515 	stw	ra,20(sp)
 8405c44:	df000415 	stw	fp,16(sp)
 8405c48:	df000404 	addi	fp,sp,16
 8405c4c:	e13ffc15 	stw	r4,-16(fp)
 8405c50:	e17ffd15 	stw	r5,-12(fp)
 8405c54:	e1bffe15 	stw	r6,-8(fp)
 8405c58:	e1ffff15 	stw	r7,-4(fp)
	printf("read_from_frame is not implemented!\r\n");
 8405c5c:	010210b4 	movhi	r4,2114
 8405c60:	213c5704 	addi	r4,r4,-3748
 8405c64:	840a22c0 	call	840a22c <puts>
	return -1;
 8405c68:	00bfffc4 	movi	r2,-1
}
 8405c6c:	e037883a 	mov	sp,fp
 8405c70:	dfc00117 	ldw	ra,4(sp)
 8405c74:	df000017 	ldw	fp,0(sp)
 8405c78:	dec00204 	addi	sp,sp,8
 8405c7c:	f800283a 	ret

08405c80 <alpha_blending>:
*           the font color with the background color.
*
******************************************************************/

int alpha_blending (int horiz_offset, int vert_offset, int background_color, unsigned char alpha, unsigned char *red, unsigned char *green, unsigned char *blue, alt_video_display * display)
{
 8405c80:	defff304 	addi	sp,sp,-52
 8405c84:	dfc00c15 	stw	ra,48(sp)
 8405c88:	df000b15 	stw	fp,44(sp)
 8405c8c:	df000b04 	addi	fp,sp,44
 8405c90:	e13ffc15 	stw	r4,-16(fp)
 8405c94:	e17ffd15 	stw	r5,-12(fp)
 8405c98:	e1bffe15 	stw	r6,-8(fp)
 8405c9c:	3805883a 	mov	r2,r7
 8405ca0:	e0bfff05 	stb	r2,-4(fp)
  int return_value;
  unsigned char background_red, background_green, background_blue;
  unsigned int blended_red, blended_green, blended_blue;  // short since there may be overflow to be clipped
  
  // set red, green, and blue of the background color
  if(background_color == CLEAR_BACKGROUND)
 8405ca4:	e0bffe17 	ldw	r2,-8(fp)
 8405ca8:	10bfffd8 	cmpnei	r2,r2,-1
 8405cac:	10000c1e 	bne	r2,zero,8405ce0 <alpha_blending+0x60>
  {
    read_from_frame (horiz_offset, vert_offset, &background_red, &background_green, &background_blue, display);
 8405cb0:	e13ffb44 	addi	r4,fp,-19
 8405cb4:	e0fffb04 	addi	r3,fp,-20
 8405cb8:	e0800517 	ldw	r2,20(fp)
 8405cbc:	d8800115 	stw	r2,4(sp)
 8405cc0:	e0bffb84 	addi	r2,fp,-18
 8405cc4:	d8800015 	stw	r2,0(sp)
 8405cc8:	200f883a 	mov	r7,r4
 8405ccc:	180d883a 	mov	r6,r3
 8405cd0:	e17ffd17 	ldw	r5,-12(fp)
 8405cd4:	e13ffc17 	ldw	r4,-16(fp)
 8405cd8:	8405c3c0 	call	8405c3c <read_from_frame>
 8405cdc:	00000c06 	br	8405d10 <alpha_blending+0x90>
  }
  else
  {
    seperate_color_channels(display->color_depth, (unsigned char *)&background_color, &background_red, &background_green, &background_blue);
 8405ce0:	e0800517 	ldw	r2,20(fp)
 8405ce4:	10c00017 	ldw	r3,0(r2)
 8405ce8:	e1bffb44 	addi	r6,fp,-19
 8405cec:	e17ffb04 	addi	r5,fp,-20
 8405cf0:	e13ffe04 	addi	r4,fp,-8
 8405cf4:	e0bffb84 	addi	r2,fp,-18
 8405cf8:	d8800015 	stw	r2,0(sp)
 8405cfc:	300f883a 	mov	r7,r6
 8405d00:	280d883a 	mov	r6,r5
 8405d04:	200b883a 	mov	r5,r4
 8405d08:	1809883a 	mov	r4,r3
 8405d0c:	84059c40 	call	84059c4 <seperate_color_channels>
  }

  // these blended colors may need to be clipped to the maximum amounts the color depth supports
  blended_red = (((*red) * alpha) + (background_red * (255 - alpha)))/255;
 8405d10:	e0800217 	ldw	r2,8(fp)
 8405d14:	10800003 	ldbu	r2,0(r2)
 8405d18:	10c03fcc 	andi	r3,r2,255
 8405d1c:	e0bfff03 	ldbu	r2,-4(fp)
 8405d20:	1887383a 	mul	r3,r3,r2
 8405d24:	e0bffb03 	ldbu	r2,-20(fp)
 8405d28:	11003fcc 	andi	r4,r2,255
 8405d2c:	e0bfff03 	ldbu	r2,-4(fp)
 8405d30:	01403fc4 	movi	r5,255
 8405d34:	2885c83a 	sub	r2,r5,r2
 8405d38:	2085383a 	mul	r2,r4,r2
 8405d3c:	1885883a 	add	r2,r3,r2
 8405d40:	01403fc4 	movi	r5,255
 8405d44:	1009883a 	mov	r4,r2
 8405d48:	8406fac0 	call	8406fac <__divsi3>
 8405d4c:	e0bff815 	stw	r2,-32(fp)
  blended_green = (((*green) * alpha) + (background_green * (255 - alpha)))/255;
 8405d50:	e0800317 	ldw	r2,12(fp)
 8405d54:	10800003 	ldbu	r2,0(r2)
 8405d58:	10c03fcc 	andi	r3,r2,255
 8405d5c:	e0bfff03 	ldbu	r2,-4(fp)
 8405d60:	1887383a 	mul	r3,r3,r2
 8405d64:	e0bffb43 	ldbu	r2,-19(fp)
 8405d68:	11003fcc 	andi	r4,r2,255
 8405d6c:	e0bfff03 	ldbu	r2,-4(fp)
 8405d70:	01403fc4 	movi	r5,255
 8405d74:	2885c83a 	sub	r2,r5,r2
 8405d78:	2085383a 	mul	r2,r4,r2
 8405d7c:	1885883a 	add	r2,r3,r2
 8405d80:	01403fc4 	movi	r5,255
 8405d84:	1009883a 	mov	r4,r2
 8405d88:	8406fac0 	call	8406fac <__divsi3>
 8405d8c:	e0bff915 	stw	r2,-28(fp)
  blended_blue = (((*blue) * alpha) + (background_blue * (255 - alpha)))/255;
 8405d90:	e0800417 	ldw	r2,16(fp)
 8405d94:	10800003 	ldbu	r2,0(r2)
 8405d98:	10c03fcc 	andi	r3,r2,255
 8405d9c:	e0bfff03 	ldbu	r2,-4(fp)
 8405da0:	1887383a 	mul	r3,r3,r2
 8405da4:	e0bffb83 	ldbu	r2,-18(fp)
 8405da8:	11003fcc 	andi	r4,r2,255
 8405dac:	e0bfff03 	ldbu	r2,-4(fp)
 8405db0:	01403fc4 	movi	r5,255
 8405db4:	2885c83a 	sub	r2,r5,r2
 8405db8:	2085383a 	mul	r2,r4,r2
 8405dbc:	1885883a 	add	r2,r3,r2
 8405dc0:	01403fc4 	movi	r5,255
 8405dc4:	1009883a 	mov	r4,r2
 8405dc8:	8406fac0 	call	8406fac <__divsi3>
 8405dcc:	e0bffa15 	stw	r2,-24(fp)
  

  if(display->color_depth == 16)
 8405dd0:	e0800517 	ldw	r2,20(fp)
 8405dd4:	10800017 	ldw	r2,0(r2)
 8405dd8:	10800418 	cmpnei	r2,r2,16
 8405ddc:	1000181e 	bne	r2,zero,8405e40 <alpha_blending+0x1c0>
  {
    *red = (blended_red > 0x1F)? 0x1F: blended_red;
 8405de0:	e0bff817 	ldw	r2,-32(fp)
 8405de4:	10c00830 	cmpltui	r3,r2,32
 8405de8:	1800011e 	bne	r3,zero,8405df0 <alpha_blending+0x170>
 8405dec:	008007c4 	movi	r2,31
 8405df0:	1007883a 	mov	r3,r2
 8405df4:	e0800217 	ldw	r2,8(fp)
 8405df8:	10c00005 	stb	r3,0(r2)
    *green = (blended_green > 0x3F)? 0x3F: blended_green;
 8405dfc:	e0bff917 	ldw	r2,-28(fp)
 8405e00:	10c01030 	cmpltui	r3,r2,64
 8405e04:	1800011e 	bne	r3,zero,8405e0c <alpha_blending+0x18c>
 8405e08:	00800fc4 	movi	r2,63
 8405e0c:	1007883a 	mov	r3,r2
 8405e10:	e0800317 	ldw	r2,12(fp)
 8405e14:	10c00005 	stb	r3,0(r2)
    *blue = (blended_blue > 0x1F)? 0x1F: blended_blue; 
 8405e18:	e0bffa17 	ldw	r2,-24(fp)
 8405e1c:	10c00830 	cmpltui	r3,r2,32
 8405e20:	1800011e 	bne	r3,zero,8405e28 <alpha_blending+0x1a8>
 8405e24:	008007c4 	movi	r2,31
 8405e28:	1007883a 	mov	r3,r2
 8405e2c:	e0800417 	ldw	r2,16(fp)
 8405e30:	10c00005 	stb	r3,0(r2)
    return_value = 1;        
 8405e34:	00800044 	movi	r2,1
 8405e38:	e0bff715 	stw	r2,-36(fp)
 8405e3c:	00002106 	br	8405ec4 <alpha_blending+0x244>
  }
  else if((display->color_depth == 24) || (display->color_depth == 32))
 8405e40:	e0800517 	ldw	r2,20(fp)
 8405e44:	10800017 	ldw	r2,0(r2)
 8405e48:	10800620 	cmpeqi	r2,r2,24
 8405e4c:	1000041e 	bne	r2,zero,8405e60 <alpha_blending+0x1e0>
 8405e50:	e0800517 	ldw	r2,20(fp)
 8405e54:	10800017 	ldw	r2,0(r2)
 8405e58:	10800818 	cmpnei	r2,r2,32
 8405e5c:	1000181e 	bne	r2,zero,8405ec0 <alpha_blending+0x240>
  {
    *red = (blended_red > 0xFF)? 0xFF: blended_red;
 8405e60:	e0bff817 	ldw	r2,-32(fp)
 8405e64:	10c04030 	cmpltui	r3,r2,256
 8405e68:	1800011e 	bne	r3,zero,8405e70 <alpha_blending+0x1f0>
 8405e6c:	00803fc4 	movi	r2,255
 8405e70:	1007883a 	mov	r3,r2
 8405e74:	e0800217 	ldw	r2,8(fp)
 8405e78:	10c00005 	stb	r3,0(r2)
    *green = (blended_green > 0xFF)? 0xFF: blended_green;
 8405e7c:	e0bff917 	ldw	r2,-28(fp)
 8405e80:	10c04030 	cmpltui	r3,r2,256
 8405e84:	1800011e 	bne	r3,zero,8405e8c <alpha_blending+0x20c>
 8405e88:	00803fc4 	movi	r2,255
 8405e8c:	1007883a 	mov	r3,r2
 8405e90:	e0800317 	ldw	r2,12(fp)
 8405e94:	10c00005 	stb	r3,0(r2)
    *blue = (blended_blue > 0xFF)? 0xFF: blended_blue; 
 8405e98:	e0bffa17 	ldw	r2,-24(fp)
 8405e9c:	10c04030 	cmpltui	r3,r2,256
 8405ea0:	1800011e 	bne	r3,zero,8405ea8 <alpha_blending+0x228>
 8405ea4:	00803fc4 	movi	r2,255
 8405ea8:	1007883a 	mov	r3,r2
 8405eac:	e0800417 	ldw	r2,16(fp)
 8405eb0:	10c00005 	stb	r3,0(r2)
    return_value = 1;            
 8405eb4:	00800044 	movi	r2,1
 8405eb8:	e0bff715 	stw	r2,-36(fp)
 8405ebc:	00000106 	br	8405ec4 <alpha_blending+0x244>
  }
  else
  {
    return_value = 0;     
 8405ec0:	e03ff715 	stw	zero,-36(fp)
  }  
 
  return return_value;
 8405ec4:	e0bff717 	ldw	r2,-36(fp)
} 
 8405ec8:	e037883a 	mov	sp,fp
 8405ecc:	dfc00117 	ldw	ra,4(sp)
 8405ed0:	df000017 	ldw	fp,0(sp)
 8405ed4:	dec00204 	addi	sp,sp,8
 8405ed8:	f800283a 	ret

08405edc <vid_print_char_alpha>:
*           screen using the specified font and color.
*
******************************************************************/

int vid_print_char_alpha (int horiz_offset, int vert_offset, int color, char character, int background_color, struct abc_font_struct font[])
{
 8405edc:	defff704 	addi	sp,sp,-36
 8405ee0:	dfc00815 	stw	ra,32(sp)
 8405ee4:	df000715 	stw	fp,28(sp)
 8405ee8:	df000704 	addi	fp,sp,28
 8405eec:	e13ffc15 	stw	r4,-16(fp)
 8405ef0:	e17ffd15 	stw	r5,-12(fp)
 8405ef4:	e1bffe15 	stw	r6,-8(fp)
 8405ef8:	3805883a 	mov	r2,r7
 8405efc:	e0bfff05 	stb	r2,-4(fp)
  int i, j;
  unsigned char * alpha;

  // Assign the pointer of the font bitmap
  alpha = font[character-33].char_alpha_map;
 8405f00:	e0ffff07 	ldb	r3,-4(fp)
 8405f04:	00820034 	movhi	r2,2048
 8405f08:	10bff7c4 	addi	r2,r2,-33
 8405f0c:	1885883a 	add	r2,r3,r2
 8405f10:	1004917a 	slli	r2,r2,5
 8405f14:	e0c00317 	ldw	r3,12(fp)
 8405f18:	1885883a 	add	r2,r3,r2
 8405f1c:	10800617 	ldw	r2,24(r2)
 8405f20:	e0bffb15 	stw	r2,-20(fp)

  for(i = 0; i < font[character-33].bounds_height; i++) {
 8405f24:	e03ff915 	stw	zero,-28(fp)
 8405f28:	00003306 	br	8405ff8 <vid_print_char_alpha+0x11c>
    for (j = 0; j < font[character-33].bounds_width; j++) {
 8405f2c:	e03ffa15 	stw	zero,-24(fp)
 8405f30:	00002406 	br	8405fc4 <vid_print_char_alpha+0xe8>

    	if (*alpha >= 0x80){
 8405f34:	e0bffb17 	ldw	r2,-20(fp)
 8405f38:	10800003 	ldbu	r2,0(r2)
 8405f3c:	10803fcc 	andi	r2,r2,255
 8405f40:	1080201c 	xori	r2,r2,128
 8405f44:	10bfe004 	addi	r2,r2,-128
 8405f48:	10000e0e 	bge	r2,zero,8405f84 <vid_print_char_alpha+0xa8>
    		//center pixels filled with color
    		vid_set_pixel((horiz_offset + j), (vert_offset + i), color);
 8405f4c:	e0fffc17 	ldw	r3,-16(fp)
 8405f50:	e0bffa17 	ldw	r2,-24(fp)
 8405f54:	1889883a 	add	r4,r3,r2
 8405f58:	e0fffd17 	ldw	r3,-12(fp)
 8405f5c:	e0bff917 	ldw	r2,-28(fp)
 8405f60:	1885883a 	add	r2,r3,r2
 8405f64:	e0fffe17 	ldw	r3,-8(fp)
 8405f68:	180d883a 	mov	r6,r3
 8405f6c:	100b883a 	mov	r5,r2
 8405f70:	84044cc0 	call	84044cc <vid_set_pixel>

    		alpha++;
 8405f74:	e0bffb17 	ldw	r2,-20(fp)
 8405f78:	10800044 	addi	r2,r2,1
 8405f7c:	e0bffb15 	stw	r2,-20(fp)
 8405f80:	00000d06 	br	8405fb8 <vid_print_char_alpha+0xdc>
		}
    	else{
    		//extern pixels filled with background_color
		    vid_set_pixel((horiz_offset + j), (vert_offset + i), background_color);
 8405f84:	e0fffc17 	ldw	r3,-16(fp)
 8405f88:	e0bffa17 	ldw	r2,-24(fp)
 8405f8c:	1889883a 	add	r4,r3,r2
 8405f90:	e0fffd17 	ldw	r3,-12(fp)
 8405f94:	e0bff917 	ldw	r2,-28(fp)
 8405f98:	1885883a 	add	r2,r3,r2
 8405f9c:	e0c00217 	ldw	r3,8(fp)
 8405fa0:	180d883a 	mov	r6,r3
 8405fa4:	100b883a 	mov	r5,r2
 8405fa8:	84044cc0 	call	84044cc <vid_set_pixel>

		    alpha++;
 8405fac:	e0bffb17 	ldw	r2,-20(fp)
 8405fb0:	10800044 	addi	r2,r2,1
 8405fb4:	e0bffb15 	stw	r2,-20(fp)

  // Assign the pointer of the font bitmap
  alpha = font[character-33].char_alpha_map;

  for(i = 0; i < font[character-33].bounds_height; i++) {
    for (j = 0; j < font[character-33].bounds_width; j++) {
 8405fb8:	e0bffa17 	ldw	r2,-24(fp)
 8405fbc:	10800044 	addi	r2,r2,1
 8405fc0:	e0bffa15 	stw	r2,-24(fp)
 8405fc4:	e0ffff07 	ldb	r3,-4(fp)
 8405fc8:	00820034 	movhi	r2,2048
 8405fcc:	10bff7c4 	addi	r2,r2,-33
 8405fd0:	1885883a 	add	r2,r3,r2
 8405fd4:	1004917a 	slli	r2,r2,5
 8405fd8:	e0c00317 	ldw	r3,12(fp)
 8405fdc:	1885883a 	add	r2,r3,r2
 8405fe0:	10800417 	ldw	r2,16(r2)
 8405fe4:	e0fffa17 	ldw	r3,-24(fp)
 8405fe8:	18bfd236 	bltu	r3,r2,8405f34 <__alt_data_end+0xfc405f34>
  unsigned char * alpha;

  // Assign the pointer of the font bitmap
  alpha = font[character-33].char_alpha_map;

  for(i = 0; i < font[character-33].bounds_height; i++) {
 8405fec:	e0bff917 	ldw	r2,-28(fp)
 8405ff0:	10800044 	addi	r2,r2,1
 8405ff4:	e0bff915 	stw	r2,-28(fp)
 8405ff8:	e0ffff07 	ldb	r3,-4(fp)
 8405ffc:	00820034 	movhi	r2,2048
 8406000:	10bff7c4 	addi	r2,r2,-33
 8406004:	1885883a 	add	r2,r3,r2
 8406008:	1004917a 	slli	r2,r2,5
 840600c:	e0c00317 	ldw	r3,12(fp)
 8406010:	1885883a 	add	r2,r3,r2
 8406014:	10800517 	ldw	r2,20(r2)
 8406018:	e0fff917 	ldw	r3,-28(fp)
 840601c:	18bfc336 	bltu	r3,r2,8405f2c <__alt_data_end+0xfc405f2c>
		    alpha++;
    	}
    }
  }

  return(0);
 8406020:	0005883a 	mov	r2,zero
}
 8406024:	e037883a 	mov	sp,fp
 8406028:	dfc00117 	ldw	ra,4(sp)
 840602c:	df000017 	ldw	fp,0(sp)
 8406030:	dec00204 	addi	sp,sp,8
 8406034:	f800283a 	ret

08406038 <vid_string_pixel_length_alpha>:
*           font.  Useful for centering text, and determining the
*           appropriate size of a text box or button.
*
******************************************************************/
int vid_string_pixel_length_alpha( struct abc_font_struct font[], char string[] )
{
 8406038:	defffb04 	addi	sp,sp,-20
 840603c:	df000415 	stw	fp,16(sp)
 8406040:	df000404 	addi	fp,sp,16
 8406044:	e13ffe15 	stw	r4,-8(fp)
 8406048:	e17fff15 	stw	r5,-4(fp)
  int i = 0;
 840604c:	e03ffc15 	stw	zero,-16(fp)
  int length = 0;
 8406050:	e03ffd15 	stw	zero,-12(fp)

  // Count the length of the string
  for( i = 0; string[i] != '\0'; i++ )
 8406054:	e03ffc15 	stw	zero,-16(fp)
 8406058:	00002406 	br	84060ec <vid_string_pixel_length_alpha+0xb4>
  {
    if( string[i] == ' ' )
 840605c:	e0bffc17 	ldw	r2,-16(fp)
 8406060:	e0ffff17 	ldw	r3,-4(fp)
 8406064:	1885883a 	add	r2,r3,r2
 8406068:	10800003 	ldbu	r2,0(r2)
 840606c:	10803fcc 	andi	r2,r2,255
 8406070:	1080201c 	xori	r2,r2,128
 8406074:	10bfe004 	addi	r2,r2,-128
 8406078:	10800818 	cmpnei	r2,r2,32
 840607c:	1000071e 	bne	r2,zero,840609c <vid_string_pixel_length_alpha+0x64>
    {
      // Here we just add the length of the '-' character
      length += font[45 - 33].bounds_width;
 8406080:	e0bffe17 	ldw	r2,-8(fp)
 8406084:	10806004 	addi	r2,r2,384
 8406088:	10c00417 	ldw	r3,16(r2)
 840608c:	e0bffd17 	ldw	r2,-12(fp)
 8406090:	1885883a 	add	r2,r3,r2
 8406094:	e0bffd15 	stw	r2,-12(fp)
 8406098:	00001106 	br	84060e0 <vid_string_pixel_length_alpha+0xa8>
    }
    else
    {
      length += font[string[i] - 33].bounds_width;
 840609c:	e0bffc17 	ldw	r2,-16(fp)
 84060a0:	e0ffff17 	ldw	r3,-4(fp)
 84060a4:	1885883a 	add	r2,r3,r2
 84060a8:	10800003 	ldbu	r2,0(r2)
 84060ac:	10c03fcc 	andi	r3,r2,255
 84060b0:	18c0201c 	xori	r3,r3,128
 84060b4:	18ffe004 	addi	r3,r3,-128
 84060b8:	00820034 	movhi	r2,2048
 84060bc:	10bff7c4 	addi	r2,r2,-33
 84060c0:	1885883a 	add	r2,r3,r2
 84060c4:	1004917a 	slli	r2,r2,5
 84060c8:	e0fffe17 	ldw	r3,-8(fp)
 84060cc:	1885883a 	add	r2,r3,r2
 84060d0:	10c00417 	ldw	r3,16(r2)
 84060d4:	e0bffd17 	ldw	r2,-12(fp)
 84060d8:	1885883a 	add	r2,r3,r2
 84060dc:	e0bffd15 	stw	r2,-12(fp)
{
  int i = 0;
  int length = 0;

  // Count the length of the string
  for( i = 0; string[i] != '\0'; i++ )
 84060e0:	e0bffc17 	ldw	r2,-16(fp)
 84060e4:	10800044 	addi	r2,r2,1
 84060e8:	e0bffc15 	stw	r2,-16(fp)
 84060ec:	e0bffc17 	ldw	r2,-16(fp)
 84060f0:	e0ffff17 	ldw	r3,-4(fp)
 84060f4:	1885883a 	add	r2,r3,r2
 84060f8:	10800003 	ldbu	r2,0(r2)
 84060fc:	10803fcc 	andi	r2,r2,255
 8406100:	1080201c 	xori	r2,r2,128
 8406104:	10bfe004 	addi	r2,r2,-128
 8406108:	103fd41e 	bne	r2,zero,840605c <__alt_data_end+0xfc40605c>
    else
    {
      length += font[string[i] - 33].bounds_width;
    }
  }
  return( length );
 840610c:	e0bffd17 	ldw	r2,-12(fp)
}
 8406110:	e037883a 	mov	sp,fp
 8406114:	df000017 	ldw	fp,0(sp)
 8406118:	dec00104 	addi	sp,sp,4
 840611c:	f800283a 	ret

08406120 <Touch_Init>:
bool touch_is_pen_pressed(TERASIC_TOUCH_PANEL *p);
void touch_empty_fifo(TERASIC_TOUCH_PANEL *p);
void touch_clear_input(TERASIC_TOUCH_PANEL *p);

// init touch panel
TOUCH_HANDLE Touch_Init(const alt_u32 spi_base, const alt_u32 penirq_base, const alt_u32 penirq_irq){
 8406120:	defff804 	addi	sp,sp,-32
 8406124:	dfc00715 	stw	ra,28(sp)
 8406128:	df000615 	stw	fp,24(sp)
 840612c:	df000604 	addi	fp,sp,24
 8406130:	e13ffd15 	stw	r4,-12(fp)
 8406134:	e17ffe15 	stw	r5,-8(fp)
 8406138:	e1bfff15 	stw	r6,-4(fp)
    bool bSuccess = TRUE;
 840613c:	00800044 	movi	r2,1
 8406140:	e0bffb15 	stw	r2,-20(fp)
    
    TERASIC_TOUCH_PANEL *p;
    
    p = malloc(sizeof(TERASIC_TOUCH_PANEL));
 8406144:	01001804 	movi	r4,96
 8406148:	84096a80 	call	84096a8 <malloc>
 840614c:	e0bffc15 	stw	r2,-16(fp)
    if (!p)
 8406150:	e0bffc17 	ldw	r2,-16(fp)
 8406154:	1000021e 	bne	r2,zero,8406160 <Touch_Init+0x40>
        return p;
 8406158:	e0bffc17 	ldw	r2,-16(fp)
 840615c:	00004606 	br	8406278 <Touch_Init+0x158>

    
    //
    memset(p, 0, sizeof(TERASIC_TOUCH_PANEL));
 8406160:	01801804 	movi	r6,96
 8406164:	000b883a 	mov	r5,zero
 8406168:	e13ffc17 	ldw	r4,-16(fp)
 840616c:	840a0240 	call	840a024 <memset>
    p->spi_base = spi_base;
 8406170:	e0bffc17 	ldw	r2,-16(fp)
 8406174:	e0fffd17 	ldw	r3,-12(fp)
 8406178:	10c00015 	stw	r3,0(r2)
    p->penirq_base = penirq_base;
 840617c:	e0bffc17 	ldw	r2,-16(fp)
 8406180:	e0fffe17 	ldw	r3,-8(fp)
 8406184:	10c00115 	stw	r3,4(r2)
    p->irq_mask = 0x01;  // 1-pin
 8406188:	e0bffc17 	ldw	r2,-16(fp)
 840618c:	00c00044 	movi	r3,1
 8406190:	10c00315 	stw	r3,12(r2)
    p->penirq_irq = penirq_irq;
 8406194:	e0bffc17 	ldw	r2,-16(fp)
 8406198:	e0ffff17 	ldw	r3,-4(fp)
 840619c:	10c00215 	stw	r3,8(r2)
 * Obtain the system clock rate in ticks/s. 
 */

static ALT_INLINE alt_u32 ALT_ALWAYS_INLINE alt_ticks_per_second (void)
{
  return _alt_tick_rate;
 84061a0:	d0ac9717 	ldw	r2,-19876(gp)
    p->alarm_dur = alt_ticks_per_second()/SAMPLE_RATE;
 84061a4:	01400f04 	movi	r5,60
 84061a8:	1009883a 	mov	r4,r2
 84061ac:	84070a40 	call	84070a4 <__udivsi3>
 84061b0:	1007883a 	mov	r3,r2
 84061b4:	e0bffc17 	ldw	r2,-16(fp)
 84061b8:	10c01615 	stw	r3,88(r2)
    
    // enalbe penirq_n interrupt (P1=1, P1=0)
    touch_enable_penirq(p);    
 84061bc:	e13ffc17 	ldw	r4,-16(fp)
 84061c0:	840655c0 	call	840655c <touch_enable_penirq>
    

    // enable interrupt, 1-pin
    IOWR_ALTERA_AVALON_PIO_IRQ_MASK(p->penirq_base, p->irq_mask); 
 84061c4:	e0bffc17 	ldw	r2,-16(fp)
 84061c8:	10800117 	ldw	r2,4(r2)
 84061cc:	10800204 	addi	r2,r2,8
 84061d0:	1007883a 	mov	r3,r2
 84061d4:	e0bffc17 	ldw	r2,-16(fp)
 84061d8:	10800317 	ldw	r2,12(r2)
 84061dc:	18800035 	stwio	r2,0(r3)
    // Reset the edge capture register
    IOWR_ALTERA_AVALON_PIO_EDGE_CAP(p->penirq_base,0);
 84061e0:	e0bffc17 	ldw	r2,-16(fp)
 84061e4:	10800117 	ldw	r2,4(r2)
 84061e8:	10800304 	addi	r2,r2,12
 84061ec:	0007883a 	mov	r3,zero
 84061f0:	10c00035 	stwio	r3,0(r2)
    // register ISR
    // register callback function

#ifdef ALT_ENHANCED_INTERRUPT_API_PRESENT
  if ((alt_ic_isr_register(TOUCH_PANEL_PEN_IRQ_N_IRQ_INTERRUPT_CONTROLLER_ID,
 84061f4:	e0bffc17 	ldw	r2,-16(fp)
 84061f8:	10800217 	ldw	r2,8(r2)
 84061fc:	d8000015 	stw	zero,0(sp)
 8406200:	e1fffc17 	ldw	r7,-16(fp)
 8406204:	01821034 	movhi	r6,2112
 8406208:	31991b04 	addi	r6,r6,25708
 840620c:	100b883a 	mov	r5,r2
 8406210:	0009883a 	mov	r4,zero
 8406214:	840cdfc0 	call	840cdfc <alt_ic_isr_register>
 8406218:	10000126 	beq	r2,zero,8406220 <Touch_Init+0x100>
		                   ) != 0)){
 #else
  if ((alt_irq_register(p->penirq_irq, (void *)p, touch_isr) != 0)){
 #endif
        DEBUG_OUT(("[TOUCH]register IRQ fail\n"));
        bSuccess = FALSE;
 840621c:	e03ffb15 	stw	zero,-20(fp)
    }else{        
        DEBUG_OUT(("[TOUCH]register IRQ success\n"));
    }

    if (bSuccess){    
 8406220:	e0bffb17 	ldw	r2,-20(fp)
 8406224:	10000c26 	beq	r2,zero,8406258 <Touch_Init+0x138>
        if (alt_alarm_start(&p->alarm, p->alarm_dur, touch_alarm_callback, p) == 0){
 8406228:	e0bffc17 	ldw	r2,-16(fp)
 840622c:	10c01004 	addi	r3,r2,64
 8406230:	e0bffc17 	ldw	r2,-16(fp)
 8406234:	10801617 	ldw	r2,88(r2)
 8406238:	e1fffc17 	ldw	r7,-16(fp)
 840623c:	01821034 	movhi	r6,2112
 8406240:	319a8b04 	addi	r6,r6,27180
 8406244:	100b883a 	mov	r5,r2
 8406248:	1809883a 	mov	r4,r3
 840624c:	840c8b80 	call	840c8b8 <alt_alarm_start>
 8406250:	10000126 	beq	r2,zero,8406258 <Touch_Init+0x138>
            DEBUG_OUT(("[TOUCH]alarm start success\n"));
        }else{
            DEBUG_OUT(("[TOUCH]alarm start fail\n"));
            bSuccess = FALSE;
 8406254:	e03ffb15 	stw	zero,-20(fp)
        }
    }
    
    if (!bSuccess && p){
 8406258:	e0bffb17 	ldw	r2,-20(fp)
 840625c:	1000051e 	bne	r2,zero,8406274 <Touch_Init+0x154>
 8406260:	e0bffc17 	ldw	r2,-16(fp)
 8406264:	10000326 	beq	r2,zero,8406274 <Touch_Init+0x154>
        free(p);
 8406268:	e13ffc17 	ldw	r4,-16(fp)
 840626c:	84096bc0 	call	84096bc <free>
        p = NULL;
 8406270:	e03ffc15 	stw	zero,-16(fp)
    }        
                
    return p;        
 8406274:	e0bffc17 	ldw	r2,-16(fp)
    

}
 8406278:	e037883a 	mov	sp,fp
 840627c:	dfc00117 	ldw	ra,4(sp)
 8406280:	df000017 	ldw	fp,0(sp)
 8406284:	dec00204 	addi	sp,sp,8
 8406288:	f800283a 	ret

0840628c <Touch_UnInit>:

// uninit touch panel
void Touch_UnInit(TOUCH_HANDLE pHandle){
 840628c:	defffc04 	addi	sp,sp,-16
 8406290:	dfc00315 	stw	ra,12(sp)
 8406294:	df000215 	stw	fp,8(sp)
 8406298:	df000204 	addi	fp,sp,8
 840629c:	e13fff15 	stw	r4,-4(fp)
    TERASIC_TOUCH_PANEL *p = (TERASIC_TOUCH_PANEL *)pHandle;
 84062a0:	e0bfff17 	ldw	r2,-4(fp)
 84062a4:	e0bffe15 	stw	r2,-8(fp)
    if (!p)
 84062a8:	e0bffe17 	ldw	r2,-8(fp)
 84062ac:	10000c26 	beq	r2,zero,84062e0 <Touch_UnInit+0x54>
        return;
        
    // stop alarm
    alt_alarm_stop(&(p->alarm));
 84062b0:	e0bffe17 	ldw	r2,-8(fp)
 84062b4:	10801004 	addi	r2,r2,64
 84062b8:	1009883a 	mov	r4,r2
 84062bc:	840d6880 	call	840d688 <alt_alarm_stop>
    // disable irq
    IOWR_ALTERA_AVALON_PIO_IRQ_MASK(p->penirq_base, 0x00);
 84062c0:	e0bffe17 	ldw	r2,-8(fp)
 84062c4:	10800117 	ldw	r2,4(r2)
 84062c8:	10800204 	addi	r2,r2,8
 84062cc:	0007883a 	mov	r3,zero
 84062d0:	10c00035 	stwio	r3,0(r2)
    
    // zero varialbe
    free(p);
 84062d4:	e13ffe17 	ldw	r4,-8(fp)
 84062d8:	84096bc0 	call	84096bc <free>
 84062dc:	00000106 	br	84062e4 <Touch_UnInit+0x58>

// uninit touch panel
void Touch_UnInit(TOUCH_HANDLE pHandle){
    TERASIC_TOUCH_PANEL *p = (TERASIC_TOUCH_PANEL *)pHandle;
    if (!p)
        return;
 84062e0:	0001883a 	nop
    // disable irq
    IOWR_ALTERA_AVALON_PIO_IRQ_MASK(p->penirq_base, 0x00);
    
    // zero varialbe
    free(p);
}
 84062e4:	e037883a 	mov	sp,fp
 84062e8:	dfc00117 	ldw	ra,4(sp)
 84062ec:	df000017 	ldw	fp,0(sp)
 84062f0:	dec00204 	addi	sp,sp,8
 84062f4:	f800283a 	ret

084062f8 <Touch_EmptyFifo>:


void Touch_EmptyFifo(TOUCH_HANDLE pHandle){
 84062f8:	defffc04 	addi	sp,sp,-16
 84062fc:	dfc00315 	stw	ra,12(sp)
 8406300:	df000215 	stw	fp,8(sp)
 8406304:	df000204 	addi	fp,sp,8
 8406308:	e13fff15 	stw	r4,-4(fp)
    TERASIC_TOUCH_PANEL *p = (TERASIC_TOUCH_PANEL *)pHandle;
 840630c:	e0bfff17 	ldw	r2,-4(fp)
 8406310:	e0bffe15 	stw	r2,-8(fp)
    touch_empty_fifo(p);
 8406314:	e13ffe17 	ldw	r4,-8(fp)
 8406318:	84064e80 	call	84064e8 <touch_empty_fifo>
}
 840631c:	0001883a 	nop
 8406320:	e037883a 	mov	sp,fp
 8406324:	dfc00117 	ldw	ra,4(sp)
 8406328:	df000017 	ldw	fp,0(sp)
 840632c:	dec00204 	addi	sp,sp,8
 8406330:	f800283a 	ret

08406334 <Touch_GetXY>:

// get x/y from internal FIFO
bool Touch_GetXY(TOUCH_HANDLE pHandle, int *x, int *y){
 8406334:	defff904 	addi	sp,sp,-28
 8406338:	dfc00615 	stw	ra,24(sp)
 840633c:	df000515 	stw	fp,20(sp)
 8406340:	dc000415 	stw	r16,16(sp)
 8406344:	df000504 	addi	fp,sp,20
 8406348:	e13ffc15 	stw	r4,-16(fp)
 840634c:	e17ffd15 	stw	r5,-12(fp)
 8406350:	e1bffe15 	stw	r6,-8(fp)
    TERASIC_TOUCH_PANEL *p = (TERASIC_TOUCH_PANEL *)pHandle;
 8406354:	e0bffc17 	ldw	r2,-16(fp)
 8406358:	e0bffb15 	stw	r2,-20(fp)
    if (!p)
 840635c:	e0bffb17 	ldw	r2,-20(fp)
 8406360:	1000021e 	bne	r2,zero,840636c <Touch_GetXY+0x38>
        return FALSE;    
 8406364:	0005883a 	mov	r2,zero
 8406368:	00003a06 	br	8406454 <Touch_GetXY+0x120>
    
    if (p->fifo_front == p->fifo_rear){
 840636c:	e0bffb17 	ldw	r2,-20(fp)
 8406370:	10c0040b 	ldhu	r3,16(r2)
 8406374:	e0bffb17 	ldw	r2,-20(fp)
 8406378:	1080048b 	ldhu	r2,18(r2)
 840637c:	18ffffcc 	andi	r3,r3,65535
 8406380:	10bfffcc 	andi	r2,r2,65535
 8406384:	1880021e 	bne	r3,r2,8406390 <Touch_GetXY+0x5c>
        // empty
        return FALSE;
 8406388:	0005883a 	mov	r2,zero
 840638c:	00003106 	br	8406454 <Touch_GetXY+0x120>
    }
    *x = p->fifo_x[p->fifo_rear];
 8406390:	e0bffb17 	ldw	r2,-20(fp)
 8406394:	1080048b 	ldhu	r2,18(r2)
 8406398:	10bfffcc 	andi	r2,r2,65535
 840639c:	e0fffb17 	ldw	r3,-20(fp)
 84063a0:	10800284 	addi	r2,r2,10
 84063a4:	1085883a 	add	r2,r2,r2
 84063a8:	1885883a 	add	r2,r3,r2
 84063ac:	1080000b 	ldhu	r2,0(r2)
 84063b0:	10ffffcc 	andi	r3,r2,65535
 84063b4:	e0bffd17 	ldw	r2,-12(fp)
 84063b8:	10c00015 	stw	r3,0(r2)
    *y = p->fifo_y[p->fifo_rear];
 84063bc:	e0bffb17 	ldw	r2,-20(fp)
 84063c0:	1080048b 	ldhu	r2,18(r2)
 84063c4:	10bfffcc 	andi	r2,r2,65535
 84063c8:	e0fffb17 	ldw	r3,-20(fp)
 84063cc:	10800504 	addi	r2,r2,20
 84063d0:	1085883a 	add	r2,r2,r2
 84063d4:	1885883a 	add	r2,r3,r2
 84063d8:	1080000b 	ldhu	r2,0(r2)
 84063dc:	10ffffcc 	andi	r3,r2,65535
 84063e0:	e0bffe17 	ldw	r2,-8(fp)
 84063e4:	10c00015 	stw	r3,0(r2)
    //
    p->fifo_rear++;
 84063e8:	e0bffb17 	ldw	r2,-20(fp)
 84063ec:	1080048b 	ldhu	r2,18(r2)
 84063f0:	10800044 	addi	r2,r2,1
 84063f4:	1007883a 	mov	r3,r2
 84063f8:	e0bffb17 	ldw	r2,-20(fp)
 84063fc:	10c0048d 	sth	r3,18(r2)
    p->fifo_rear %= FIFO_SIZE;
 8406400:	e0bffb17 	ldw	r2,-20(fp)
 8406404:	1080048b 	ldhu	r2,18(r2)
 8406408:	10bfffcc 	andi	r2,r2,65535
 840640c:	01400284 	movi	r5,10
 8406410:	1009883a 	mov	r4,r2
 8406414:	84071080 	call	8407108 <__umodsi3>
 8406418:	1007883a 	mov	r3,r2
 840641c:	e0bffb17 	ldw	r2,-20(fp)
 8406420:	10c0048d 	sth	r3,18(r2)
    //
    // translate
    touch_xy_transform(x, y);
 8406424:	e17ffe17 	ldw	r5,-8(fp)
 8406428:	e13ffd17 	ldw	r4,-12(fp)
 840642c:	8406a9c0 	call	8406a9c <touch_xy_transform>
 * alt_nticks() returns the elapsed number of system clock ticks since reset.
 */

static ALT_INLINE alt_u32 ALT_ALWAYS_INLINE alt_nticks (void)
{
  return _alt_nticks;
 8406430:	d42c9817 	ldw	r16,-19872(gp)
 * Obtain the system clock rate in ticks/s. 
 */

static ALT_INLINE alt_u32 ALT_ALWAYS_INLINE alt_ticks_per_second (void)
{
  return _alt_tick_rate;
 8406434:	d0ac9717 	ldw	r2,-19876(gp)

    DEBUG_OUT("[TOUCH] x=%d, y=%d\n", *x,*y);
//    touch_clear_input(p);
//    touch_empty_fifo(p);
    p->next_active_time = alt_nticks() + ACTIVE_DELAY_TIME;
 8406438:	01400f04 	movi	r5,60
 840643c:	1009883a 	mov	r4,r2
 8406440:	84070a40 	call	84070a4 <__udivsi3>
 8406444:	8087883a 	add	r3,r16,r2
 8406448:	e0bffb17 	ldw	r2,-20(fp)
 840644c:	10c01715 	stw	r3,92(r2)
    
    return TRUE;
 8406450:	00800044 	movi	r2,1
}
 8406454:	e6ffff04 	addi	sp,fp,-4
 8406458:	dfc00217 	ldw	ra,8(sp)
 840645c:	df000117 	ldw	fp,4(sp)
 8406460:	dc000017 	ldw	r16,0(sp)
 8406464:	dec00304 	addi	sp,sp,12
 8406468:	f800283a 	ret

0840646c <touch_isr>:



// penirq_n ISR
#ifdef ALT_ENHANCED_INTERRUPT_API_PRESENT
void touch_isr(void* context){
 840646c:	defffb04 	addi	sp,sp,-20
 8406470:	dfc00415 	stw	ra,16(sp)
 8406474:	df000315 	stw	fp,12(sp)
 8406478:	df000304 	addi	fp,sp,12
 840647c:	e13fff15 	stw	r4,-4(fp)
#else
void touch_isr(void* context, alt_u32 id){
#endif
    alt_u8 mask;
    TERASIC_TOUCH_PANEL *p = (TERASIC_TOUCH_PANEL *)context;
 8406480:	e0bfff17 	ldw	r2,-4(fp)
 8406484:	e0bffd15 	stw	r2,-12(fp)

#ifdef ALT_ENHANCED_INTERRUPT_API_PRESENT
    alt_ic_irq_disable(TOUCH_PANEL_PEN_IRQ_N_IRQ_INTERRUPT_CONTROLLER_ID,TOUCH_PANEL_PEN_IRQ_N_IRQ);
 8406488:	014000c4 	movi	r5,3
 840648c:	0009883a 	mov	r4,zero
 8406490:	840ced40 	call	840ced4 <alt_ic_irq_disable>
#else
    alt_irq_disable(id);
#endif

    // get the edge capture mask
    mask = IORD_ALTERA_AVALON_PIO_EDGE_CAP(p->penirq_base);
 8406494:	e0bffd17 	ldw	r2,-12(fp)
 8406498:	10800117 	ldw	r2,4(r2)
 840649c:	10800304 	addi	r2,r2,12
 84064a0:	10800037 	ldwio	r2,0(r2)
 84064a4:	e0bffe05 	stb	r2,-8(fp)
    //if ((mask & Touch.irq_mask) == 0)  // 1-pin
    //    return;
    DEBUG_OUT("Touched!!\n");
    usleep(1000);
 84064a8:	0100fa04 	movi	r4,1000
 84064ac:	840d82c0 	call	840d82c <usleep>
    }
    IOWR(PIO_RED_LED_BASE, 0, Touch.pen_pressed);
#endif                    
    
    // Reset the edge capture register
    IOWR_ALTERA_AVALON_PIO_EDGE_CAP(p->penirq_base,0);    
 84064b0:	e0bffd17 	ldw	r2,-12(fp)
 84064b4:	10800117 	ldw	r2,4(r2)
 84064b8:	10800304 	addi	r2,r2,12
 84064bc:	0007883a 	mov	r3,zero
 84064c0:	10c00035 	stwio	r3,0(r2)
    
#ifdef ALT_ENHANCED_INTERRUPT_API_PRESENT
    alt_ic_irq_enable(TOUCH_PANEL_PEN_IRQ_N_IRQ_INTERRUPT_CONTROLLER_ID,TOUCH_PANEL_PEN_IRQ_N_IRQ);
 84064c4:	014000c4 	movi	r5,3
 84064c8:	0009883a 	mov	r4,zero
 84064cc:	840ce4c0 	call	840ce4c <alt_ic_irq_enable>
#else
    alt_irq_enable(id);
#endif

}
 84064d0:	0001883a 	nop
 84064d4:	e037883a 	mov	sp,fp
 84064d8:	dfc00117 	ldw	ra,4(sp)
 84064dc:	df000017 	ldw	fp,0(sp)
 84064e0:	dec00204 	addi	sp,sp,8
 84064e4:	f800283a 	ret

084064e8 <touch_empty_fifo>:

void touch_empty_fifo(TERASIC_TOUCH_PANEL *p){
 84064e8:	defffe04 	addi	sp,sp,-8
 84064ec:	df000115 	stw	fp,4(sp)
 84064f0:	df000104 	addi	fp,sp,4
 84064f4:	e13fff15 	stw	r4,-4(fp)
    p->fifo_rear = p->fifo_front;
 84064f8:	e0bfff17 	ldw	r2,-4(fp)
 84064fc:	10c0040b 	ldhu	r3,16(r2)
 8406500:	e0bfff17 	ldw	r2,-4(fp)
 8406504:	10c0048d 	sth	r3,18(r2)
}
 8406508:	0001883a 	nop
 840650c:	e037883a 	mov	sp,fp
 8406510:	df000017 	ldw	fp,0(sp)
 8406514:	dec00104 	addi	sp,sp,4
 8406518:	f800283a 	ret

0840651c <touch_is_pen_pressed>:

bool touch_is_pen_pressed(TERASIC_TOUCH_PANEL *p){
 840651c:	defffd04 	addi	sp,sp,-12
 8406520:	df000215 	stw	fp,8(sp)
 8406524:	df000204 	addi	fp,sp,8
 8406528:	e13fff15 	stw	r4,-4(fp)
    bool bPressed;
    bPressed = (IORD(p->penirq_base, 0) & 0x01)?FALSE:TRUE;
 840652c:	e0bfff17 	ldw	r2,-4(fp)
 8406530:	10800117 	ldw	r2,4(r2)
 8406534:	10800037 	ldwio	r2,0(r2)
 8406538:	1080004c 	andi	r2,r2,1
 840653c:	1005003a 	cmpeq	r2,r2,zero
 8406540:	10803fcc 	andi	r2,r2,255
 8406544:	e0bffe15 	stw	r2,-8(fp)
    return bPressed;
 8406548:	e0bffe17 	ldw	r2,-8(fp)
}
 840654c:	e037883a 	mov	sp,fp
 8406550:	df000017 	ldw	fp,0(sp)
 8406554:	dec00104 	addi	sp,sp,4
 8406558:	f800283a 	ret

0840655c <touch_enable_penirq>:


void touch_enable_penirq(TERASIC_TOUCH_PANEL *p){
 840655c:	defff904 	addi	sp,sp,-28
 8406560:	dfc00615 	stw	ra,24(sp)
 8406564:	df000515 	stw	fp,20(sp)
 8406568:	df000504 	addi	fp,sp,20
 840656c:	e13fff15 	stw	r4,-4(fp)
    const alt_u8 CommandGetX = 0x82;
 8406570:	00bfe084 	movi	r2,-126
 8406574:	e0bffe05 	stb	r2,-8(fp)
    const alt_u8 CommandGetY = 0xD2;
 8406578:	00bff484 	movi	r2,-46
 840657c:	e0bffe45 	stb	r2,-7(fp)
    alt_u8 data8;
    
    alt_avalon_spi_command(p->spi_base, 0, sizeof(CommandGetX), &CommandGetX, 0, 0, ALT_AVALON_SPI_COMMAND_MERGE);
 8406580:	e0bfff17 	ldw	r2,-4(fp)
 8406584:	10c00017 	ldw	r3,0(r2)
 8406588:	00800044 	movi	r2,1
 840658c:	d8800215 	stw	r2,8(sp)
 8406590:	d8000115 	stw	zero,4(sp)
 8406594:	d8000015 	stw	zero,0(sp)
 8406598:	e1fffe04 	addi	r7,fp,-8
 840659c:	01800044 	movi	r6,1
 84065a0:	000b883a 	mov	r5,zero
 84065a4:	1809883a 	mov	r4,r3
 84065a8:	840e4cc0 	call	840e4cc <alt_avalon_spi_command>
    alt_avalon_spi_command(p->spi_base, 0, 0, 0, sizeof(data8), (alt_u8*)&data8, ALT_AVALON_SPI_COMMAND_MERGE);
 84065ac:	e0bfff17 	ldw	r2,-4(fp)
 84065b0:	10c00017 	ldw	r3,0(r2)
 84065b4:	00800044 	movi	r2,1
 84065b8:	d8800215 	stw	r2,8(sp)
 84065bc:	e0bffe84 	addi	r2,fp,-6
 84065c0:	d8800115 	stw	r2,4(sp)
 84065c4:	00800044 	movi	r2,1
 84065c8:	d8800015 	stw	r2,0(sp)
 84065cc:	000f883a 	mov	r7,zero
 84065d0:	000d883a 	mov	r6,zero
 84065d4:	000b883a 	mov	r5,zero
 84065d8:	1809883a 	mov	r4,r3
 84065dc:	840e4cc0 	call	840e4cc <alt_avalon_spi_command>
    alt_avalon_spi_command(p->spi_base, 0, 0, 0, sizeof(data8), (alt_u8*)&data8, ALT_AVALON_SPI_COMMAND_TOGGLE_SS_N);
 84065e0:	e0bfff17 	ldw	r2,-4(fp)
 84065e4:	10c00017 	ldw	r3,0(r2)
 84065e8:	00800084 	movi	r2,2
 84065ec:	d8800215 	stw	r2,8(sp)
 84065f0:	e0bffe84 	addi	r2,fp,-6
 84065f4:	d8800115 	stw	r2,4(sp)
 84065f8:	00800044 	movi	r2,1
 84065fc:	d8800015 	stw	r2,0(sp)
 8406600:	000f883a 	mov	r7,zero
 8406604:	000d883a 	mov	r6,zero
 8406608:	000b883a 	mov	r5,zero
 840660c:	1809883a 	mov	r4,r3
 8406610:	840e4cc0 	call	840e4cc <alt_avalon_spi_command>
   
    alt_avalon_spi_command(p->spi_base, 0, sizeof(CommandGetY), &CommandGetY, 0, 0, ALT_AVALON_SPI_COMMAND_MERGE);
 8406614:	e0bfff17 	ldw	r2,-4(fp)
 8406618:	10c00017 	ldw	r3,0(r2)
 840661c:	e13ffe44 	addi	r4,fp,-7
 8406620:	00800044 	movi	r2,1
 8406624:	d8800215 	stw	r2,8(sp)
 8406628:	d8000115 	stw	zero,4(sp)
 840662c:	d8000015 	stw	zero,0(sp)
 8406630:	200f883a 	mov	r7,r4
 8406634:	01800044 	movi	r6,1
 8406638:	000b883a 	mov	r5,zero
 840663c:	1809883a 	mov	r4,r3
 8406640:	840e4cc0 	call	840e4cc <alt_avalon_spi_command>
    alt_avalon_spi_command(p->spi_base, 0, 0, 0, sizeof(data8), (alt_u8*)&data8, ALT_AVALON_SPI_COMMAND_MERGE);
 8406644:	e0bfff17 	ldw	r2,-4(fp)
 8406648:	10c00017 	ldw	r3,0(r2)
 840664c:	00800044 	movi	r2,1
 8406650:	d8800215 	stw	r2,8(sp)
 8406654:	e0bffe84 	addi	r2,fp,-6
 8406658:	d8800115 	stw	r2,4(sp)
 840665c:	00800044 	movi	r2,1
 8406660:	d8800015 	stw	r2,0(sp)
 8406664:	000f883a 	mov	r7,zero
 8406668:	000d883a 	mov	r6,zero
 840666c:	000b883a 	mov	r5,zero
 8406670:	1809883a 	mov	r4,r3
 8406674:	840e4cc0 	call	840e4cc <alt_avalon_spi_command>
    alt_avalon_spi_command(p->spi_base, 0, 0, 0, sizeof(data8), (alt_u8*)&data8, ALT_AVALON_SPI_COMMAND_TOGGLE_SS_N);
 8406678:	e0bfff17 	ldw	r2,-4(fp)
 840667c:	10c00017 	ldw	r3,0(r2)
 8406680:	00800084 	movi	r2,2
 8406684:	d8800215 	stw	r2,8(sp)
 8406688:	e0bffe84 	addi	r2,fp,-6
 840668c:	d8800115 	stw	r2,4(sp)
 8406690:	00800044 	movi	r2,1
 8406694:	d8800015 	stw	r2,0(sp)
 8406698:	000f883a 	mov	r7,zero
 840669c:	000d883a 	mov	r6,zero
 84066a0:	000b883a 	mov	r5,zero
 84066a4:	1809883a 	mov	r4,r3
 84066a8:	840e4cc0 	call	840e4cc <alt_avalon_spi_command>
}
 84066ac:	0001883a 	nop
 84066b0:	e037883a 	mov	sp,fp
 84066b4:	dfc00117 	ldw	ra,4(sp)
 84066b8:	df000017 	ldw	fp,0(sp)
 84066bc:	dec00204 	addi	sp,sp,8
 84066c0:	f800283a 	ret

084066c4 <touch_clear_input>:

void touch_clear_input(TERASIC_TOUCH_PANEL *p){
 84066c4:	defffd04 	addi	sp,sp,-12
 84066c8:	dfc00215 	stw	ra,8(sp)
 84066cc:	df000115 	stw	fp,4(sp)
 84066d0:	df000104 	addi	fp,sp,4
 84066d4:	e13fff15 	stw	r4,-4(fp)
    touch_enable_penirq(p);
 84066d8:	e13fff17 	ldw	r4,-4(fp)
 84066dc:	840655c0 	call	840655c <touch_enable_penirq>
}
 84066e0:	0001883a 	nop
 84066e4:	e037883a 	mov	sp,fp
 84066e8:	dfc00117 	ldw	ra,4(sp)
 84066ec:	df000017 	ldw	fp,0(sp)
 84066f0:	dec00204 	addi	sp,sp,8
 84066f4:	f800283a 	ret

084066f8 <touch_get_xy>:

// get x/y by SPI command
void touch_get_xy(TERASIC_TOUCH_PANEL *p){
 84066f8:	defff604 	addi	sp,sp,-40
 84066fc:	dfc00915 	stw	ra,36(sp)
 8406700:	df000815 	stw	fp,32(sp)
 8406704:	df000804 	addi	fp,sp,32
 8406708:	e13fff15 	stw	r4,-4(fp)
    alt_u16 x, y;
    int result;
    const alt_u8 CommandGetX = 0x92;
 840670c:	00bfe484 	movi	r2,-110
 8406710:	e0bffe05 	stb	r2,-8(fp)
    const alt_u8 CommandGetY = 0xD2;
 8406714:	00bff484 	movi	r2,-46
 8406718:	e0bffe45 	stb	r2,-7(fp)
    
       
    //DEBUG_OUT(("[TOUCH] get x/y\n"));

    // x
    result = alt_avalon_spi_command(p->spi_base, 0, sizeof(CommandGetX), &CommandGetX, 0, 0, ALT_AVALON_SPI_COMMAND_MERGE);
 840671c:	e0bfff17 	ldw	r2,-4(fp)
 8406720:	10c00017 	ldw	r3,0(r2)
 8406724:	e13ffe04 	addi	r4,fp,-8
 8406728:	00800044 	movi	r2,1
 840672c:	d8800215 	stw	r2,8(sp)
 8406730:	d8000115 	stw	zero,4(sp)
 8406734:	d8000015 	stw	zero,0(sp)
 8406738:	200f883a 	mov	r7,r4
 840673c:	01800044 	movi	r6,1
 8406740:	000b883a 	mov	r5,zero
 8406744:	1809883a 	mov	r4,r3
 8406748:	840e4cc0 	call	840e4cc <alt_avalon_spi_command>
 840674c:	e0bffb15 	stw	r2,-20(fp)
    result = alt_avalon_spi_command(p->spi_base, 0, 0, 0, sizeof(high_byte), (alt_u8*)&high_byte, ALT_AVALON_SPI_COMMAND_MERGE);
 8406750:	e0bfff17 	ldw	r2,-4(fp)
 8406754:	10c00017 	ldw	r3,0(r2)
 8406758:	00800044 	movi	r2,1
 840675c:	d8800215 	stw	r2,8(sp)
 8406760:	e0bffe84 	addi	r2,fp,-6
 8406764:	d8800115 	stw	r2,4(sp)
 8406768:	00800044 	movi	r2,1
 840676c:	d8800015 	stw	r2,0(sp)
 8406770:	000f883a 	mov	r7,zero
 8406774:	000d883a 	mov	r6,zero
 8406778:	000b883a 	mov	r5,zero
 840677c:	1809883a 	mov	r4,r3
 8406780:	840e4cc0 	call	840e4cc <alt_avalon_spi_command>
 8406784:	e0bffb15 	stw	r2,-20(fp)
    if (result != sizeof(high_byte)){
 8406788:	e0bffb17 	ldw	r2,-20(fp)
 840678c:	10800060 	cmpeqi	r2,r2,1
 8406790:	10009826 	beq	r2,zero,84069f4 <touch_get_xy+0x2fc>
        DEBUG_OUT(("[TOUCH] failed to get x\n"));
        return;
    }          
    result = alt_avalon_spi_command(p->spi_base, 0, 0, 0, sizeof(low_byte), (alt_u8*)&low_byte, ALT_AVALON_SPI_COMMAND_TOGGLE_SS_N);
 8406794:	e0bfff17 	ldw	r2,-4(fp)
 8406798:	10c00017 	ldw	r3,0(r2)
 840679c:	00800084 	movi	r2,2
 84067a0:	d8800215 	stw	r2,8(sp)
 84067a4:	e0bffec4 	addi	r2,fp,-5
 84067a8:	d8800115 	stw	r2,4(sp)
 84067ac:	00800044 	movi	r2,1
 84067b0:	d8800015 	stw	r2,0(sp)
 84067b4:	000f883a 	mov	r7,zero
 84067b8:	000d883a 	mov	r6,zero
 84067bc:	000b883a 	mov	r5,zero
 84067c0:	1809883a 	mov	r4,r3
 84067c4:	840e4cc0 	call	840e4cc <alt_avalon_spi_command>
 84067c8:	e0bffb15 	stw	r2,-20(fp)
    if (result != sizeof(low_byte)){
 84067cc:	e0bffb17 	ldw	r2,-20(fp)
 84067d0:	10800060 	cmpeqi	r2,r2,1
 84067d4:	10008926 	beq	r2,zero,84069fc <touch_get_xy+0x304>
        DEBUG_OUT(("[TOUCH] failed to get x\n"));
        return;
    }  
    ResponseX = (high_byte << 8) | low_byte;        
 84067d8:	e0bffe83 	ldbu	r2,-6(fp)
 84067dc:	10803fcc 	andi	r2,r2,255
 84067e0:	1004923a 	slli	r2,r2,8
 84067e4:	1007883a 	mov	r3,r2
 84067e8:	e0bffec3 	ldbu	r2,-5(fp)
 84067ec:	10803fcc 	andi	r2,r2,255
 84067f0:	1884b03a 	or	r2,r3,r2
 84067f4:	e0bffc0d 	sth	r2,-16(fp)
    
    // y
    result = alt_avalon_spi_command(p->spi_base, 0, sizeof(CommandGetY), &CommandGetY, 0, 0, ALT_AVALON_SPI_COMMAND_MERGE);
 84067f8:	e0bfff17 	ldw	r2,-4(fp)
 84067fc:	10c00017 	ldw	r3,0(r2)
 8406800:	e13ffe44 	addi	r4,fp,-7
 8406804:	00800044 	movi	r2,1
 8406808:	d8800215 	stw	r2,8(sp)
 840680c:	d8000115 	stw	zero,4(sp)
 8406810:	d8000015 	stw	zero,0(sp)
 8406814:	200f883a 	mov	r7,r4
 8406818:	01800044 	movi	r6,1
 840681c:	000b883a 	mov	r5,zero
 8406820:	1809883a 	mov	r4,r3
 8406824:	840e4cc0 	call	840e4cc <alt_avalon_spi_command>
 8406828:	e0bffb15 	stw	r2,-20(fp)
    result = alt_avalon_spi_command(p->spi_base, 0, 0, 0, sizeof(high_byte), (alt_u8*)&high_byte, ALT_AVALON_SPI_COMMAND_MERGE);
 840682c:	e0bfff17 	ldw	r2,-4(fp)
 8406830:	10c00017 	ldw	r3,0(r2)
 8406834:	00800044 	movi	r2,1
 8406838:	d8800215 	stw	r2,8(sp)
 840683c:	e0bffe84 	addi	r2,fp,-6
 8406840:	d8800115 	stw	r2,4(sp)
 8406844:	00800044 	movi	r2,1
 8406848:	d8800015 	stw	r2,0(sp)
 840684c:	000f883a 	mov	r7,zero
 8406850:	000d883a 	mov	r6,zero
 8406854:	000b883a 	mov	r5,zero
 8406858:	1809883a 	mov	r4,r3
 840685c:	840e4cc0 	call	840e4cc <alt_avalon_spi_command>
 8406860:	e0bffb15 	stw	r2,-20(fp)
    if (result != sizeof(high_byte)){
 8406864:	e0bffb17 	ldw	r2,-20(fp)
 8406868:	10800060 	cmpeqi	r2,r2,1
 840686c:	10006526 	beq	r2,zero,8406a04 <touch_get_xy+0x30c>
        DEBUG_OUT(("[TOUCH] failed to get x\n"));
        return;
    }          
    result = alt_avalon_spi_command(p->spi_base, 0, 0, 0, sizeof(low_byte), (alt_u8*)&low_byte, ALT_AVALON_SPI_COMMAND_TOGGLE_SS_N);
 8406870:	e0bfff17 	ldw	r2,-4(fp)
 8406874:	10c00017 	ldw	r3,0(r2)
 8406878:	00800084 	movi	r2,2
 840687c:	d8800215 	stw	r2,8(sp)
 8406880:	e0bffec4 	addi	r2,fp,-5
 8406884:	d8800115 	stw	r2,4(sp)
 8406888:	00800044 	movi	r2,1
 840688c:	d8800015 	stw	r2,0(sp)
 8406890:	000f883a 	mov	r7,zero
 8406894:	000d883a 	mov	r6,zero
 8406898:	000b883a 	mov	r5,zero
 840689c:	1809883a 	mov	r4,r3
 84068a0:	840e4cc0 	call	840e4cc <alt_avalon_spi_command>
 84068a4:	e0bffb15 	stw	r2,-20(fp)
    if (result != sizeof(low_byte)){
 84068a8:	e0bffb17 	ldw	r2,-20(fp)
 84068ac:	10800060 	cmpeqi	r2,r2,1
 84068b0:	10005626 	beq	r2,zero,8406a0c <touch_get_xy+0x314>
        DEBUG_OUT(("[TOUCH] failed to get x\n"));
        return;
    }  
    ResponseY = (high_byte << 8) | low_byte;        
 84068b4:	e0bffe83 	ldbu	r2,-6(fp)
 84068b8:	10803fcc 	andi	r2,r2,255
 84068bc:	1004923a 	slli	r2,r2,8
 84068c0:	1007883a 	mov	r3,r2
 84068c4:	e0bffec3 	ldbu	r2,-5(fp)
 84068c8:	10803fcc 	andi	r2,r2,255
 84068cc:	1884b03a 	or	r2,r3,r2
 84068d0:	e0bffc8d 	sth	r2,-14(fp)

    if (!touch_is_pen_pressed(p))
 84068d4:	e13fff17 	ldw	r4,-4(fp)
 84068d8:	840651c0 	call	840651c <touch_is_pen_pressed>
 84068dc:	10004d26 	beq	r2,zero,8406a14 <touch_get_xy+0x31c>
        return; // do not use this data    
        
    x = (ResponseX >> 3 ) & 0xFFF;  // 12 bits    
 84068e0:	e0bffc0b 	ldhu	r2,-16(fp)
 84068e4:	1004d0fa 	srli	r2,r2,3
 84068e8:	1083ffcc 	andi	r2,r2,4095
 84068ec:	e0bffd0d 	sth	r2,-12(fp)
    y = (ResponseY >> 3 ) & 0xFFF;  // 12 bits
 84068f0:	e0bffc8b 	ldhu	r2,-14(fp)
 84068f4:	1004d0fa 	srli	r2,r2,3
 84068f8:	1083ffcc 	andi	r2,r2,4095
 84068fc:	e0bffd8d 	sth	r2,-10(fp)
    
    
    // check whether the fifo is full!
    if (((p->fifo_front+1)%FIFO_SIZE) == p->fifo_rear){
 8406900:	e0bfff17 	ldw	r2,-4(fp)
 8406904:	1080040b 	ldhu	r2,16(r2)
 8406908:	10bfffcc 	andi	r2,r2,65535
 840690c:	10800044 	addi	r2,r2,1
 8406910:	01400284 	movi	r5,10
 8406914:	1009883a 	mov	r4,r2
 8406918:	84070300 	call	8407030 <__modsi3>
 840691c:	1007883a 	mov	r3,r2
 8406920:	e0bfff17 	ldw	r2,-4(fp)
 8406924:	1080048b 	ldhu	r2,18(r2)
 8406928:	10bfffcc 	andi	r2,r2,65535
 840692c:	18800f1e 	bne	r3,r2,840696c <touch_get_xy+0x274>
        // full, pop an old one
        p->fifo_rear++;
 8406930:	e0bfff17 	ldw	r2,-4(fp)
 8406934:	1080048b 	ldhu	r2,18(r2)
 8406938:	10800044 	addi	r2,r2,1
 840693c:	1007883a 	mov	r3,r2
 8406940:	e0bfff17 	ldw	r2,-4(fp)
 8406944:	10c0048d 	sth	r3,18(r2)
        p->fifo_rear %= FIFO_SIZE;        
 8406948:	e0bfff17 	ldw	r2,-4(fp)
 840694c:	1080048b 	ldhu	r2,18(r2)
 8406950:	10bfffcc 	andi	r2,r2,65535
 8406954:	01400284 	movi	r5,10
 8406958:	1009883a 	mov	r4,r2
 840695c:	84071080 	call	8407108 <__umodsi3>
 8406960:	1007883a 	mov	r3,r2
 8406964:	e0bfff17 	ldw	r2,-4(fp)
 8406968:	10c0048d 	sth	r3,18(r2)
        
    }
    DEBUG_OUT("[ ADC] x=%d, y=%d\n", x,y);

    // push now
    p->fifo_x[p->fifo_front] = x;
 840696c:	e0bfff17 	ldw	r2,-4(fp)
 8406970:	1080040b 	ldhu	r2,16(r2)
 8406974:	10bfffcc 	andi	r2,r2,65535
 8406978:	e0ffff17 	ldw	r3,-4(fp)
 840697c:	10800284 	addi	r2,r2,10
 8406980:	1085883a 	add	r2,r2,r2
 8406984:	1885883a 	add	r2,r3,r2
 8406988:	e0fffd0b 	ldhu	r3,-12(fp)
 840698c:	10c0000d 	sth	r3,0(r2)
    p->fifo_y[p->fifo_front] = y;    
 8406990:	e0bfff17 	ldw	r2,-4(fp)
 8406994:	1080040b 	ldhu	r2,16(r2)
 8406998:	10bfffcc 	andi	r2,r2,65535
 840699c:	e0ffff17 	ldw	r3,-4(fp)
 84069a0:	10800504 	addi	r2,r2,20
 84069a4:	1085883a 	add	r2,r2,r2
 84069a8:	1885883a 	add	r2,r3,r2
 84069ac:	e0fffd8b 	ldhu	r3,-10(fp)
 84069b0:	10c0000d 	sth	r3,0(r2)
    p->fifo_front++;
 84069b4:	e0bfff17 	ldw	r2,-4(fp)
 84069b8:	1080040b 	ldhu	r2,16(r2)
 84069bc:	10800044 	addi	r2,r2,1
 84069c0:	1007883a 	mov	r3,r2
 84069c4:	e0bfff17 	ldw	r2,-4(fp)
 84069c8:	10c0040d 	sth	r3,16(r2)
    p->fifo_front %= FIFO_SIZE;   
 84069cc:	e0bfff17 	ldw	r2,-4(fp)
 84069d0:	1080040b 	ldhu	r2,16(r2)
 84069d4:	10bfffcc 	andi	r2,r2,65535
 84069d8:	01400284 	movi	r5,10
 84069dc:	1009883a 	mov	r4,r2
 84069e0:	84071080 	call	8407108 <__umodsi3>
 84069e4:	1007883a 	mov	r3,r2
 84069e8:	e0bfff17 	ldw	r2,-4(fp)
 84069ec:	10c0040d 	sth	r3,16(r2)
 84069f0:	00000906 	br	8406a18 <touch_get_xy+0x320>
    // x
    result = alt_avalon_spi_command(p->spi_base, 0, sizeof(CommandGetX), &CommandGetX, 0, 0, ALT_AVALON_SPI_COMMAND_MERGE);
    result = alt_avalon_spi_command(p->spi_base, 0, 0, 0, sizeof(high_byte), (alt_u8*)&high_byte, ALT_AVALON_SPI_COMMAND_MERGE);
    if (result != sizeof(high_byte)){
        DEBUG_OUT(("[TOUCH] failed to get x\n"));
        return;
 84069f4:	0001883a 	nop
 84069f8:	00000706 	br	8406a18 <touch_get_xy+0x320>
    }          
    result = alt_avalon_spi_command(p->spi_base, 0, 0, 0, sizeof(low_byte), (alt_u8*)&low_byte, ALT_AVALON_SPI_COMMAND_TOGGLE_SS_N);
    if (result != sizeof(low_byte)){
        DEBUG_OUT(("[TOUCH] failed to get x\n"));
        return;
 84069fc:	0001883a 	nop
 8406a00:	00000506 	br	8406a18 <touch_get_xy+0x320>
    // y
    result = alt_avalon_spi_command(p->spi_base, 0, sizeof(CommandGetY), &CommandGetY, 0, 0, ALT_AVALON_SPI_COMMAND_MERGE);
    result = alt_avalon_spi_command(p->spi_base, 0, 0, 0, sizeof(high_byte), (alt_u8*)&high_byte, ALT_AVALON_SPI_COMMAND_MERGE);
    if (result != sizeof(high_byte)){
        DEBUG_OUT(("[TOUCH] failed to get x\n"));
        return;
 8406a04:	0001883a 	nop
 8406a08:	00000306 	br	8406a18 <touch_get_xy+0x320>
    }          
    result = alt_avalon_spi_command(p->spi_base, 0, 0, 0, sizeof(low_byte), (alt_u8*)&low_byte, ALT_AVALON_SPI_COMMAND_TOGGLE_SS_N);
    if (result != sizeof(low_byte)){
        DEBUG_OUT(("[TOUCH] failed to get x\n"));
        return;
 8406a0c:	0001883a 	nop
 8406a10:	00000106 	br	8406a18 <touch_get_xy+0x320>
    }  
    ResponseY = (high_byte << 8) | low_byte;        

    if (!touch_is_pen_pressed(p))
        return; // do not use this data    
 8406a14:	0001883a 	nop
    p->fifo_x[p->fifo_front] = x;
    p->fifo_y[p->fifo_front] = y;    
    p->fifo_front++;
    p->fifo_front %= FIFO_SIZE;   
    
}
 8406a18:	e037883a 	mov	sp,fp
 8406a1c:	dfc00117 	ldw	ra,4(sp)
 8406a20:	df000017 	ldw	fp,0(sp)
 8406a24:	dec00204 	addi	sp,sp,8
 8406a28:	f800283a 	ret

08406a2c <touch_alarm_callback>:

// polling x/y when penirq_n is low
alt_u32 touch_alarm_callback(void *context){
 8406a2c:	defffc04 	addi	sp,sp,-16
 8406a30:	dfc00315 	stw	ra,12(sp)
 8406a34:	df000215 	stw	fp,8(sp)
 8406a38:	df000204 	addi	fp,sp,8
 8406a3c:	e13fff15 	stw	r4,-4(fp)
    TERASIC_TOUCH_PANEL *p = (TERASIC_TOUCH_PANEL *)context;
 8406a40:	e0bfff17 	ldw	r2,-4(fp)
 8406a44:	e0bffe15 	stw	r2,-8(fp)
    
    if (touch_is_pen_pressed(p)){//Touch.pen_pressed){
 8406a48:	e13ffe17 	ldw	r4,-8(fp)
 8406a4c:	840651c0 	call	840651c <touch_is_pen_pressed>
 8406a50:	10000726 	beq	r2,zero,8406a70 <touch_alarm_callback+0x44>
 * alt_nticks() returns the elapsed number of system clock ticks since reset.
 */

static ALT_INLINE alt_u32 ALT_ALWAYS_INLINE alt_nticks (void)
{
  return _alt_nticks;
 8406a54:	d0ac9817 	ldw	r2,-19872(gp)
        if (alt_nticks() > p->next_active_time)
 8406a58:	e0fffe17 	ldw	r3,-8(fp)
 8406a5c:	18c01717 	ldw	r3,92(r3)
 8406a60:	1880072e 	bgeu	r3,r2,8406a80 <touch_alarm_callback+0x54>
            touch_get_xy(p);
 8406a64:	e13ffe17 	ldw	r4,-8(fp)
 8406a68:	84066f80 	call	84066f8 <touch_get_xy>
 8406a6c:	00000406 	br	8406a80 <touch_alarm_callback+0x54>
      //  p->last_active_time = alt_nticks(); 
    }else{
       // touch_empty_fifo(p);
        //if ((alt_nticks() - Touch.last_active_time) > alt_ticks_per_second()/10){
         touch_enable_penirq(p);
 8406a70:	e13ffe17 	ldw	r4,-8(fp)
 8406a74:	840655c0 	call	840655c <touch_enable_penirq>
         touch_clear_input(p);
 8406a78:	e13ffe17 	ldw	r4,-8(fp)
 8406a7c:	84066c40 	call	84066c4 <touch_clear_input>
          //  p->last_active_time = alt_nticks(); 
        //}            
    }        
    return p->alarm_dur;
 8406a80:	e0bffe17 	ldw	r2,-8(fp)
 8406a84:	10801617 	ldw	r2,88(r2)
}
 8406a88:	e037883a 	mov	sp,fp
 8406a8c:	dfc00117 	ldw	ra,4(sp)
 8406a90:	df000017 	ldw	fp,0(sp)
 8406a94:	dec00204 	addi	sp,sp,8
 8406a98:	f800283a 	ret

08406a9c <touch_xy_transform>:

void touch_xy_transform(int *x, int *y){
 8406a9c:	defff904 	addi	sp,sp,-28
 8406aa0:	dfc00615 	stw	ra,24(sp)
 8406aa4:	df000515 	stw	fp,20(sp)
 8406aa8:	df000504 	addi	fp,sp,20
 8406aac:	e13ffe15 	stw	r4,-8(fp)
 8406ab0:	e17fff15 	stw	r5,-4(fp)
    int xx, yy;
    const int y_ignore = 200;
 8406ab4:	00803204 	movi	r2,200
 8406ab8:	e0bffc15 	stw	r2,-16(fp)
    xx = *y;
 8406abc:	e0bfff17 	ldw	r2,-4(fp)
 8406ac0:	10800017 	ldw	r2,0(r2)
 8406ac4:	e0bffd15 	stw	r2,-12(fp)
    yy = *x;
 8406ac8:	e0bffe17 	ldw	r2,-8(fp)
 8406acc:	10800017 	ldw	r2,0(r2)
 8406ad0:	e0bffb15 	stw	r2,-20(fp)

    // scale & swap
   // xx = 4096 -1 - xx;
    xx = xx * X_RES / 4096;
 8406ad4:	e0bffd17 	ldw	r2,-12(fp)
 8406ad8:	10803c24 	muli	r2,r2,240
 8406adc:	1000010e 	bge	r2,zero,8406ae4 <touch_xy_transform+0x48>
 8406ae0:	1083ffc4 	addi	r2,r2,4095
 8406ae4:	1005d33a 	srai	r2,r2,12
 8406ae8:	e0bffd15 	stw	r2,-12(fp)

   // yy = 4096 -1 - yy;

    // special calibrate for LT24
    if (yy > (4096-y_ignore))
 8406aec:	00c40004 	movi	r3,4096
 8406af0:	e0bffc17 	ldw	r2,-16(fp)
 8406af4:	1887c83a 	sub	r3,r3,r2
 8406af8:	e0bffb17 	ldw	r2,-20(fp)
 8406afc:	1880040e 	bge	r3,r2,8406b10 <touch_xy_transform+0x74>
    	yy = 4096-y_ignore;
 8406b00:	00c40004 	movi	r3,4096
 8406b04:	e0bffc17 	ldw	r2,-16(fp)
 8406b08:	1885c83a 	sub	r2,r3,r2
 8406b0c:	e0bffb15 	stw	r2,-20(fp)
    yy = yy * 4095/ (4096-y_ignore);
 8406b10:	e0bffb17 	ldw	r2,-20(fp)
 8406b14:	1103ffe4 	muli	r4,r2,4095
 8406b18:	00c40004 	movi	r3,4096
 8406b1c:	e0bffc17 	ldw	r2,-16(fp)
 8406b20:	1885c83a 	sub	r2,r3,r2
 8406b24:	100b883a 	mov	r5,r2
 8406b28:	8406fac0 	call	8406fac <__divsi3>
 8406b2c:	e0bffb15 	stw	r2,-20(fp)
    
    yy = yy * Y_RES / 4096;
 8406b30:	e0bffb17 	ldw	r2,-20(fp)
 8406b34:	10805024 	muli	r2,r2,320
 8406b38:	1000010e 	bge	r2,zero,8406b40 <touch_xy_transform+0xa4>
 8406b3c:	1083ffc4 	addi	r2,r2,4095
 8406b40:	1005d33a 	srai	r2,r2,12
 8406b44:	e0bffb15 	stw	r2,-20(fp)

    // swap
    *x = xx;
 8406b48:	e0bffe17 	ldw	r2,-8(fp)
 8406b4c:	e0fffd17 	ldw	r3,-12(fp)
 8406b50:	10c00015 	stw	r3,0(r2)
    *y = yy;    
 8406b54:	e0bfff17 	ldw	r2,-4(fp)
 8406b58:	e0fffb17 	ldw	r3,-20(fp)
 8406b5c:	10c00015 	stw	r3,0(r2)
    
}
 8406b60:	0001883a 	nop
 8406b64:	e037883a 	mov	sp,fp
 8406b68:	dfc00117 	ldw	ra,4(sp)
 8406b6c:	df000017 	ldw	fp,0(sp)
 8406b70:	dec00204 	addi	sp,sp,8
 8406b74:	f800283a 	ret

08406b78 <sqrt>:
 8406b78:	defff104 	addi	sp,sp,-60
 8406b7c:	dd000d15 	stw	r20,52(sp)
 8406b80:	05021134 	movhi	r20,2116
 8406b84:	dcc00c15 	stw	r19,48(sp)
 8406b88:	dc800b15 	stw	r18,44(sp)
 8406b8c:	dc400a15 	stw	r17,40(sp)
 8406b90:	dc000915 	stw	r16,36(sp)
 8406b94:	dfc00e15 	stw	ra,56(sp)
 8406b98:	a5301504 	addi	r20,r20,-16300
 8406b9c:	2027883a 	mov	r19,r4
 8406ba0:	2825883a 	mov	r18,r5
 8406ba4:	8406ca80 	call	8406ca8 <__ieee754_sqrt>
 8406ba8:	1821883a 	mov	r16,r3
 8406bac:	a0c00017 	ldw	r3,0(r20)
 8406bb0:	1023883a 	mov	r17,r2
 8406bb4:	00bfffc4 	movi	r2,-1
 8406bb8:	18800a26 	beq	r3,r2,8406be4 <sqrt+0x6c>
 8406bbc:	9809883a 	mov	r4,r19
 8406bc0:	900b883a 	mov	r5,r18
 8406bc4:	8406f300 	call	8406f30 <__fpclassifyd>
 8406bc8:	10000626 	beq	r2,zero,8406be4 <sqrt+0x6c>
 8406bcc:	000d883a 	mov	r6,zero
 8406bd0:	000f883a 	mov	r7,zero
 8406bd4:	9809883a 	mov	r4,r19
 8406bd8:	900b883a 	mov	r5,r18
 8406bdc:	84083d00 	call	84083d0 <__ledf2>
 8406be0:	10000a16 	blt	r2,zero,8406c0c <sqrt+0x94>
 8406be4:	8805883a 	mov	r2,r17
 8406be8:	8007883a 	mov	r3,r16
 8406bec:	dfc00e17 	ldw	ra,56(sp)
 8406bf0:	dd000d17 	ldw	r20,52(sp)
 8406bf4:	dcc00c17 	ldw	r19,48(sp)
 8406bf8:	dc800b17 	ldw	r18,44(sp)
 8406bfc:	dc400a17 	ldw	r17,40(sp)
 8406c00:	dc000917 	ldw	r16,36(sp)
 8406c04:	dec00f04 	addi	sp,sp,60
 8406c08:	f800283a 	ret
 8406c0c:	00800044 	movi	r2,1
 8406c10:	d8800015 	stw	r2,0(sp)
 8406c14:	a4000017 	ldw	r16,0(r20)
 8406c18:	00821134 	movhi	r2,2116
 8406c1c:	10a35704 	addi	r2,r2,-29348
 8406c20:	d8800115 	stw	r2,4(sp)
 8406c24:	d8000815 	stw	zero,32(sp)
 8406c28:	dcc00415 	stw	r19,16(sp)
 8406c2c:	dc800515 	stw	r18,20(sp)
 8406c30:	dcc00215 	stw	r19,8(sp)
 8406c34:	dc800315 	stw	r18,12(sp)
 8406c38:	80000a1e 	bne	r16,zero,8406c64 <sqrt+0xec>
 8406c3c:	d8000615 	stw	zero,24(sp)
 8406c40:	d8000715 	stw	zero,28(sp)
 8406c44:	d809883a 	mov	r4,sp
 8406c48:	8406fa40 	call	8406fa4 <matherr>
 8406c4c:	10000e26 	beq	r2,zero,8406c88 <sqrt+0x110>
 8406c50:	d8800817 	ldw	r2,32(sp)
 8406c54:	1000101e 	bne	r2,zero,8406c98 <sqrt+0x120>
 8406c58:	d8800617 	ldw	r2,24(sp)
 8406c5c:	d8c00717 	ldw	r3,28(sp)
 8406c60:	003fe206 	br	8406bec <__alt_data_end+0xfc406bec>
 8406c64:	000d883a 	mov	r6,zero
 8406c68:	000f883a 	mov	r7,zero
 8406c6c:	0009883a 	mov	r4,zero
 8406c70:	000b883a 	mov	r5,zero
 8406c74:	8407a0c0 	call	8407a0c <__divdf3>
 8406c78:	d8800615 	stw	r2,24(sp)
 8406c7c:	d8c00715 	stw	r3,28(sp)
 8406c80:	00800084 	movi	r2,2
 8406c84:	80bfef1e 	bne	r16,r2,8406c44 <__alt_data_end+0xfc406c44>
 8406c88:	84096980 	call	8409698 <__errno>
 8406c8c:	00c00844 	movi	r3,33
 8406c90:	10c00015 	stw	r3,0(r2)
 8406c94:	003fee06 	br	8406c50 <__alt_data_end+0xfc406c50>
 8406c98:	84096980 	call	8409698 <__errno>
 8406c9c:	d8c00817 	ldw	r3,32(sp)
 8406ca0:	10c00015 	stw	r3,0(r2)
 8406ca4:	003fec06 	br	8406c58 <__alt_data_end+0xfc406c58>

08406ca8 <__ieee754_sqrt>:
 8406ca8:	defffd04 	addi	sp,sp,-12
 8406cac:	dc400115 	stw	r17,4(sp)
 8406cb0:	dc000015 	stw	r16,0(sp)
 8406cb4:	dfc00215 	stw	ra,8(sp)
 8406cb8:	28dffc2c 	andhi	r3,r5,32752
 8406cbc:	009ffc34 	movhi	r2,32752
 8406cc0:	2821883a 	mov	r16,r5
 8406cc4:	2023883a 	mov	r17,r4
 8406cc8:	200d883a 	mov	r6,r4
 8406ccc:	18807b26 	beq	r3,r2,8406ebc <__ieee754_sqrt+0x214>
 8406cd0:	01405f0e 	bge	zero,r5,8406e50 <__ieee754_sqrt+0x1a8>
 8406cd4:	2815d53a 	srai	r10,r5,20
 8406cd8:	50006a26 	beq	r10,zero,8406e84 <__ieee754_sqrt+0x1dc>
 8406cdc:	00c00434 	movhi	r3,16
 8406ce0:	52bf0044 	addi	r10,r10,-1023
 8406ce4:	18ffffc4 	addi	r3,r3,-1
 8406ce8:	80c6703a 	and	r3,r16,r3
 8406cec:	5080004c 	andi	r2,r10,1
 8406cf0:	18c00434 	orhi	r3,r3,16
 8406cf4:	1000511e 	bne	r2,zero,8406e3c <__ieee754_sqrt+0x194>
 8406cf8:	3004d7fa 	srli	r2,r6,31
 8406cfc:	5015d07a 	srai	r10,r10,1
 8406d00:	18c7883a 	add	r3,r3,r3
 8406d04:	10c5883a 	add	r2,r2,r3
 8406d08:	01400584 	movi	r5,22
 8406d0c:	3187883a 	add	r3,r6,r6
 8406d10:	0013883a 	mov	r9,zero
 8406d14:	000f883a 	mov	r7,zero
 8406d18:	01000834 	movhi	r4,32
 8406d1c:	390d883a 	add	r6,r7,r4
 8406d20:	1810d7fa 	srli	r8,r3,31
 8406d24:	297fffc4 	addi	r5,r5,-1
 8406d28:	11800316 	blt	r2,r6,8406d38 <__ieee754_sqrt+0x90>
 8406d2c:	1185c83a 	sub	r2,r2,r6
 8406d30:	310f883a 	add	r7,r6,r4
 8406d34:	4913883a 	add	r9,r9,r4
 8406d38:	1085883a 	add	r2,r2,r2
 8406d3c:	4085883a 	add	r2,r8,r2
 8406d40:	18c7883a 	add	r3,r3,r3
 8406d44:	2008d07a 	srli	r4,r4,1
 8406d48:	283ff41e 	bne	r5,zero,8406d1c <__alt_data_end+0xfc406d1c>
 8406d4c:	01200034 	movhi	r4,32768
 8406d50:	01800804 	movi	r6,32
 8406d54:	0011883a 	mov	r8,zero
 8406d58:	0019883a 	mov	r12,zero
 8406d5c:	201b883a 	mov	r13,r4
 8406d60:	00000806 	br	8406d84 <__ieee754_sqrt+0xdc>
 8406d64:	38801726 	beq	r7,r2,8406dc4 <__ieee754_sqrt+0x11c>
 8406d68:	180ad7fa 	srli	r5,r3,31
 8406d6c:	1085883a 	add	r2,r2,r2
 8406d70:	31bfffc4 	addi	r6,r6,-1
 8406d74:	2885883a 	add	r2,r5,r2
 8406d78:	18c7883a 	add	r3,r3,r3
 8406d7c:	2008d07a 	srli	r4,r4,1
 8406d80:	30001726 	beq	r6,zero,8406de0 <__ieee754_sqrt+0x138>
 8406d84:	230b883a 	add	r5,r4,r12
 8406d88:	38bff60e 	bge	r7,r2,8406d64 <__alt_data_end+0xfc406d64>
 8406d8c:	2ae0002c 	andhi	r11,r5,32768
 8406d90:	2919883a 	add	r12,r5,r4
 8406d94:	5b400826 	beq	r11,r13,8406db8 <__ieee754_sqrt+0x110>
 8406d98:	3817883a 	mov	r11,r7
 8406d9c:	11c5c83a 	sub	r2,r2,r7
 8406da0:	1940012e 	bgeu	r3,r5,8406da8 <__ieee754_sqrt+0x100>
 8406da4:	10bfffc4 	addi	r2,r2,-1
 8406da8:	1947c83a 	sub	r3,r3,r5
 8406dac:	4111883a 	add	r8,r8,r4
 8406db0:	580f883a 	mov	r7,r11
 8406db4:	003fec06 	br	8406d68 <__alt_data_end+0xfc406d68>
 8406db8:	603ff716 	blt	r12,zero,8406d98 <__alt_data_end+0xfc406d98>
 8406dbc:	3ac00044 	addi	r11,r7,1
 8406dc0:	003ff606 	br	8406d9c <__alt_data_end+0xfc406d9c>
 8406dc4:	19401936 	bltu	r3,r5,8406e2c <__ieee754_sqrt+0x184>
 8406dc8:	2ae0002c 	andhi	r11,r5,32768
 8406dcc:	2919883a 	add	r12,r5,r4
 8406dd0:	5b404526 	beq	r11,r13,8406ee8 <__ieee754_sqrt+0x240>
 8406dd4:	1017883a 	mov	r11,r2
 8406dd8:	0005883a 	mov	r2,zero
 8406ddc:	003ff206 	br	8406da8 <__alt_data_end+0xfc406da8>
 8406de0:	10c4b03a 	or	r2,r2,r3
 8406de4:	10000426 	beq	r2,zero,8406df8 <__ieee754_sqrt+0x150>
 8406de8:	00bfffc4 	movi	r2,-1
 8406dec:	40804026 	beq	r8,r2,8406ef0 <__ieee754_sqrt+0x248>
 8406df0:	4080004c 	andi	r2,r8,1
 8406df4:	4091883a 	add	r8,r8,r2
 8406df8:	4004d07a 	srli	r2,r8,1
 8406dfc:	4807d07a 	srai	r3,r9,1
 8406e00:	010ff834 	movhi	r4,16352
 8406e04:	4a40004c 	andi	r9,r9,1
 8406e08:	1909883a 	add	r4,r3,r4
 8406e0c:	4800091e 	bne	r9,zero,8406e34 <__ieee754_sqrt+0x18c>
 8406e10:	5006953a 	slli	r3,r10,20
 8406e14:	1907883a 	add	r3,r3,r4
 8406e18:	dfc00217 	ldw	ra,8(sp)
 8406e1c:	dc400117 	ldw	r17,4(sp)
 8406e20:	dc000017 	ldw	r16,0(sp)
 8406e24:	dec00304 	addi	sp,sp,12
 8406e28:	f800283a 	ret
 8406e2c:	3805883a 	mov	r2,r7
 8406e30:	003fcd06 	br	8406d68 <__alt_data_end+0xfc406d68>
 8406e34:	10a00034 	orhi	r2,r2,32768
 8406e38:	003ff506 	br	8406e10 <__alt_data_end+0xfc406e10>
 8406e3c:	3004d7fa 	srli	r2,r6,31
 8406e40:	18c7883a 	add	r3,r3,r3
 8406e44:	318d883a 	add	r6,r6,r6
 8406e48:	10c7883a 	add	r3,r2,r3
 8406e4c:	003faa06 	br	8406cf8 <__alt_data_end+0xfc406cf8>
 8406e50:	00a00034 	movhi	r2,32768
 8406e54:	10bfffc4 	addi	r2,r2,-1
 8406e58:	2884703a 	and	r2,r5,r2
 8406e5c:	1104b03a 	or	r2,r2,r4
 8406e60:	10001e26 	beq	r2,zero,8406edc <__ieee754_sqrt+0x234>
 8406e64:	2800291e 	bne	r5,zero,8406f0c <__ieee754_sqrt+0x264>
 8406e68:	0015883a 	mov	r10,zero
 8406e6c:	3020d2fa 	srli	r16,r6,11
 8406e70:	52bffac4 	addi	r10,r10,-21
 8406e74:	300c957a 	slli	r6,r6,21
 8406e78:	803ffc26 	beq	r16,zero,8406e6c <__alt_data_end+0xfc406e6c>
 8406e7c:	8080042c 	andhi	r2,r16,16
 8406e80:	10001e1e 	bne	r2,zero,8406efc <__ieee754_sqrt+0x254>
 8406e84:	0005883a 	mov	r2,zero
 8406e88:	00000106 	br	8406e90 <__ieee754_sqrt+0x1e8>
 8406e8c:	1805883a 	mov	r2,r3
 8406e90:	8421883a 	add	r16,r16,r16
 8406e94:	8100042c 	andhi	r4,r16,16
 8406e98:	10c00044 	addi	r3,r2,1
 8406e9c:	203ffb26 	beq	r4,zero,8406e8c <__alt_data_end+0xfc406e8c>
 8406ea0:	01000804 	movi	r4,32
 8406ea4:	20c9c83a 	sub	r4,r4,r3
 8406ea8:	3108d83a 	srl	r4,r6,r4
 8406eac:	5095c83a 	sub	r10,r10,r2
 8406eb0:	30cc983a 	sll	r6,r6,r3
 8406eb4:	2420b03a 	or	r16,r4,r16
 8406eb8:	003f8806 	br	8406cdc <__alt_data_end+0xfc406cdc>
 8406ebc:	280f883a 	mov	r7,r5
 8406ec0:	84084c40 	call	84084c4 <__muldf3>
 8406ec4:	880d883a 	mov	r6,r17
 8406ec8:	800f883a 	mov	r7,r16
 8406ecc:	1009883a 	mov	r4,r2
 8406ed0:	180b883a 	mov	r5,r3
 8406ed4:	84071600 	call	8407160 <__adddf3>
 8406ed8:	003fcf06 	br	8406e18 <__alt_data_end+0xfc406e18>
 8406edc:	2005883a 	mov	r2,r4
 8406ee0:	2807883a 	mov	r3,r5
 8406ee4:	003fcc06 	br	8406e18 <__alt_data_end+0xfc406e18>
 8406ee8:	603fba16 	blt	r12,zero,8406dd4 <__alt_data_end+0xfc406dd4>
 8406eec:	003fb306 	br	8406dbc <__alt_data_end+0xfc406dbc>
 8406ef0:	4a400044 	addi	r9,r9,1
 8406ef4:	0005883a 	mov	r2,zero
 8406ef8:	003fc006 	br	8406dfc <__alt_data_end+0xfc406dfc>
 8406efc:	01000804 	movi	r4,32
 8406f00:	00bfffc4 	movi	r2,-1
 8406f04:	0007883a 	mov	r3,zero
 8406f08:	003fe706 	br	8406ea8 <__alt_data_end+0xfc406ea8>
 8406f0c:	200d883a 	mov	r6,r4
 8406f10:	280f883a 	mov	r7,r5
 8406f14:	8408bdc0 	call	8408bdc <__subdf3>
 8406f18:	100d883a 	mov	r6,r2
 8406f1c:	180f883a 	mov	r7,r3
 8406f20:	1009883a 	mov	r4,r2
 8406f24:	180b883a 	mov	r5,r3
 8406f28:	8407a0c0 	call	8407a0c <__divdf3>
 8406f2c:	003fba06 	br	8406e18 <__alt_data_end+0xfc406e18>

08406f30 <__fpclassifyd>:
 8406f30:	00a00034 	movhi	r2,32768
 8406f34:	10bfffc4 	addi	r2,r2,-1
 8406f38:	2884703a 	and	r2,r5,r2
 8406f3c:	10000726 	beq	r2,zero,8406f5c <__fpclassifyd+0x2c>
 8406f40:	00fffc34 	movhi	r3,65520
 8406f44:	019ff834 	movhi	r6,32736
 8406f48:	28c7883a 	add	r3,r5,r3
 8406f4c:	31bfffc4 	addi	r6,r6,-1
 8406f50:	30c00536 	bltu	r6,r3,8406f68 <__fpclassifyd+0x38>
 8406f54:	00800104 	movi	r2,4
 8406f58:	f800283a 	ret
 8406f5c:	2000021e 	bne	r4,zero,8406f68 <__fpclassifyd+0x38>
 8406f60:	00800084 	movi	r2,2
 8406f64:	f800283a 	ret
 8406f68:	00dffc34 	movhi	r3,32752
 8406f6c:	019ff834 	movhi	r6,32736
 8406f70:	28cb883a 	add	r5,r5,r3
 8406f74:	31bfffc4 	addi	r6,r6,-1
 8406f78:	317ff62e 	bgeu	r6,r5,8406f54 <__alt_data_end+0xfc406f54>
 8406f7c:	01400434 	movhi	r5,16
 8406f80:	297fffc4 	addi	r5,r5,-1
 8406f84:	28800236 	bltu	r5,r2,8406f90 <__fpclassifyd+0x60>
 8406f88:	008000c4 	movi	r2,3
 8406f8c:	f800283a 	ret
 8406f90:	10c00226 	beq	r2,r3,8406f9c <__fpclassifyd+0x6c>
 8406f94:	0005883a 	mov	r2,zero
 8406f98:	f800283a 	ret
 8406f9c:	2005003a 	cmpeq	r2,r4,zero
 8406fa0:	f800283a 	ret

08406fa4 <matherr>:
 8406fa4:	0005883a 	mov	r2,zero
 8406fa8:	f800283a 	ret

08406fac <__divsi3>:
 8406fac:	20001b16 	blt	r4,zero,840701c <__divsi3+0x70>
 8406fb0:	000f883a 	mov	r7,zero
 8406fb4:	28001616 	blt	r5,zero,8407010 <__divsi3+0x64>
 8406fb8:	200d883a 	mov	r6,r4
 8406fbc:	29001a2e 	bgeu	r5,r4,8407028 <__divsi3+0x7c>
 8406fc0:	00800804 	movi	r2,32
 8406fc4:	00c00044 	movi	r3,1
 8406fc8:	00000106 	br	8406fd0 <__divsi3+0x24>
 8406fcc:	10000d26 	beq	r2,zero,8407004 <__divsi3+0x58>
 8406fd0:	294b883a 	add	r5,r5,r5
 8406fd4:	10bfffc4 	addi	r2,r2,-1
 8406fd8:	18c7883a 	add	r3,r3,r3
 8406fdc:	293ffb36 	bltu	r5,r4,8406fcc <__alt_data_end+0xfc406fcc>
 8406fe0:	0005883a 	mov	r2,zero
 8406fe4:	18000726 	beq	r3,zero,8407004 <__divsi3+0x58>
 8406fe8:	0005883a 	mov	r2,zero
 8406fec:	31400236 	bltu	r6,r5,8406ff8 <__divsi3+0x4c>
 8406ff0:	314dc83a 	sub	r6,r6,r5
 8406ff4:	10c4b03a 	or	r2,r2,r3
 8406ff8:	1806d07a 	srli	r3,r3,1
 8406ffc:	280ad07a 	srli	r5,r5,1
 8407000:	183ffa1e 	bne	r3,zero,8406fec <__alt_data_end+0xfc406fec>
 8407004:	38000126 	beq	r7,zero,840700c <__divsi3+0x60>
 8407008:	0085c83a 	sub	r2,zero,r2
 840700c:	f800283a 	ret
 8407010:	014bc83a 	sub	r5,zero,r5
 8407014:	39c0005c 	xori	r7,r7,1
 8407018:	003fe706 	br	8406fb8 <__alt_data_end+0xfc406fb8>
 840701c:	0109c83a 	sub	r4,zero,r4
 8407020:	01c00044 	movi	r7,1
 8407024:	003fe306 	br	8406fb4 <__alt_data_end+0xfc406fb4>
 8407028:	00c00044 	movi	r3,1
 840702c:	003fee06 	br	8406fe8 <__alt_data_end+0xfc406fe8>

08407030 <__modsi3>:
 8407030:	20001716 	blt	r4,zero,8407090 <__modsi3+0x60>
 8407034:	000f883a 	mov	r7,zero
 8407038:	2005883a 	mov	r2,r4
 840703c:	28001216 	blt	r5,zero,8407088 <__modsi3+0x58>
 8407040:	2900162e 	bgeu	r5,r4,840709c <__modsi3+0x6c>
 8407044:	01800804 	movi	r6,32
 8407048:	00c00044 	movi	r3,1
 840704c:	00000106 	br	8407054 <__modsi3+0x24>
 8407050:	30000a26 	beq	r6,zero,840707c <__modsi3+0x4c>
 8407054:	294b883a 	add	r5,r5,r5
 8407058:	31bfffc4 	addi	r6,r6,-1
 840705c:	18c7883a 	add	r3,r3,r3
 8407060:	293ffb36 	bltu	r5,r4,8407050 <__alt_data_end+0xfc407050>
 8407064:	18000526 	beq	r3,zero,840707c <__modsi3+0x4c>
 8407068:	1806d07a 	srli	r3,r3,1
 840706c:	11400136 	bltu	r2,r5,8407074 <__modsi3+0x44>
 8407070:	1145c83a 	sub	r2,r2,r5
 8407074:	280ad07a 	srli	r5,r5,1
 8407078:	183ffb1e 	bne	r3,zero,8407068 <__alt_data_end+0xfc407068>
 840707c:	38000126 	beq	r7,zero,8407084 <__modsi3+0x54>
 8407080:	0085c83a 	sub	r2,zero,r2
 8407084:	f800283a 	ret
 8407088:	014bc83a 	sub	r5,zero,r5
 840708c:	003fec06 	br	8407040 <__alt_data_end+0xfc407040>
 8407090:	0109c83a 	sub	r4,zero,r4
 8407094:	01c00044 	movi	r7,1
 8407098:	003fe706 	br	8407038 <__alt_data_end+0xfc407038>
 840709c:	00c00044 	movi	r3,1
 84070a0:	003ff106 	br	8407068 <__alt_data_end+0xfc407068>

084070a4 <__udivsi3>:
 84070a4:	200d883a 	mov	r6,r4
 84070a8:	2900152e 	bgeu	r5,r4,8407100 <__udivsi3+0x5c>
 84070ac:	28001416 	blt	r5,zero,8407100 <__udivsi3+0x5c>
 84070b0:	00800804 	movi	r2,32
 84070b4:	00c00044 	movi	r3,1
 84070b8:	00000206 	br	84070c4 <__udivsi3+0x20>
 84070bc:	10000e26 	beq	r2,zero,84070f8 <__udivsi3+0x54>
 84070c0:	28000516 	blt	r5,zero,84070d8 <__udivsi3+0x34>
 84070c4:	294b883a 	add	r5,r5,r5
 84070c8:	10bfffc4 	addi	r2,r2,-1
 84070cc:	18c7883a 	add	r3,r3,r3
 84070d0:	293ffa36 	bltu	r5,r4,84070bc <__alt_data_end+0xfc4070bc>
 84070d4:	18000826 	beq	r3,zero,84070f8 <__udivsi3+0x54>
 84070d8:	0005883a 	mov	r2,zero
 84070dc:	31400236 	bltu	r6,r5,84070e8 <__udivsi3+0x44>
 84070e0:	314dc83a 	sub	r6,r6,r5
 84070e4:	10c4b03a 	or	r2,r2,r3
 84070e8:	1806d07a 	srli	r3,r3,1
 84070ec:	280ad07a 	srli	r5,r5,1
 84070f0:	183ffa1e 	bne	r3,zero,84070dc <__alt_data_end+0xfc4070dc>
 84070f4:	f800283a 	ret
 84070f8:	0005883a 	mov	r2,zero
 84070fc:	f800283a 	ret
 8407100:	00c00044 	movi	r3,1
 8407104:	003ff406 	br	84070d8 <__alt_data_end+0xfc4070d8>

08407108 <__umodsi3>:
 8407108:	2005883a 	mov	r2,r4
 840710c:	2900122e 	bgeu	r5,r4,8407158 <__umodsi3+0x50>
 8407110:	28001116 	blt	r5,zero,8407158 <__umodsi3+0x50>
 8407114:	01800804 	movi	r6,32
 8407118:	00c00044 	movi	r3,1
 840711c:	00000206 	br	8407128 <__umodsi3+0x20>
 8407120:	30000c26 	beq	r6,zero,8407154 <__umodsi3+0x4c>
 8407124:	28000516 	blt	r5,zero,840713c <__umodsi3+0x34>
 8407128:	294b883a 	add	r5,r5,r5
 840712c:	31bfffc4 	addi	r6,r6,-1
 8407130:	18c7883a 	add	r3,r3,r3
 8407134:	293ffa36 	bltu	r5,r4,8407120 <__alt_data_end+0xfc407120>
 8407138:	18000626 	beq	r3,zero,8407154 <__umodsi3+0x4c>
 840713c:	1806d07a 	srli	r3,r3,1
 8407140:	11400136 	bltu	r2,r5,8407148 <__umodsi3+0x40>
 8407144:	1145c83a 	sub	r2,r2,r5
 8407148:	280ad07a 	srli	r5,r5,1
 840714c:	183ffb1e 	bne	r3,zero,840713c <__alt_data_end+0xfc40713c>
 8407150:	f800283a 	ret
 8407154:	f800283a 	ret
 8407158:	00c00044 	movi	r3,1
 840715c:	003ff706 	br	840713c <__alt_data_end+0xfc40713c>

08407160 <__adddf3>:
 8407160:	02c00434 	movhi	r11,16
 8407164:	5affffc4 	addi	r11,r11,-1
 8407168:	2806d7fa 	srli	r3,r5,31
 840716c:	2ad4703a 	and	r10,r5,r11
 8407170:	3ad2703a 	and	r9,r7,r11
 8407174:	3804d53a 	srli	r2,r7,20
 8407178:	3018d77a 	srli	r12,r6,29
 840717c:	280ad53a 	srli	r5,r5,20
 8407180:	501490fa 	slli	r10,r10,3
 8407184:	2010d77a 	srli	r8,r4,29
 8407188:	481290fa 	slli	r9,r9,3
 840718c:	380ed7fa 	srli	r7,r7,31
 8407190:	defffb04 	addi	sp,sp,-20
 8407194:	dc800215 	stw	r18,8(sp)
 8407198:	dc400115 	stw	r17,4(sp)
 840719c:	dc000015 	stw	r16,0(sp)
 84071a0:	dfc00415 	stw	ra,16(sp)
 84071a4:	dcc00315 	stw	r19,12(sp)
 84071a8:	1c803fcc 	andi	r18,r3,255
 84071ac:	2c01ffcc 	andi	r16,r5,2047
 84071b0:	5210b03a 	or	r8,r10,r8
 84071b4:	202290fa 	slli	r17,r4,3
 84071b8:	1081ffcc 	andi	r2,r2,2047
 84071bc:	4b12b03a 	or	r9,r9,r12
 84071c0:	300c90fa 	slli	r6,r6,3
 84071c4:	91c07526 	beq	r18,r7,840739c <__adddf3+0x23c>
 84071c8:	8087c83a 	sub	r3,r16,r2
 84071cc:	00c0ab0e 	bge	zero,r3,840747c <__adddf3+0x31c>
 84071d0:	10002a1e 	bne	r2,zero,840727c <__adddf3+0x11c>
 84071d4:	4984b03a 	or	r2,r9,r6
 84071d8:	1000961e 	bne	r2,zero,8407434 <__adddf3+0x2d4>
 84071dc:	888001cc 	andi	r2,r17,7
 84071e0:	10000726 	beq	r2,zero,8407200 <__adddf3+0xa0>
 84071e4:	888003cc 	andi	r2,r17,15
 84071e8:	00c00104 	movi	r3,4
 84071ec:	10c00426 	beq	r2,r3,8407200 <__adddf3+0xa0>
 84071f0:	88c7883a 	add	r3,r17,r3
 84071f4:	1c63803a 	cmpltu	r17,r3,r17
 84071f8:	4451883a 	add	r8,r8,r17
 84071fc:	1823883a 	mov	r17,r3
 8407200:	4080202c 	andhi	r2,r8,128
 8407204:	10005926 	beq	r2,zero,840736c <__adddf3+0x20c>
 8407208:	84000044 	addi	r16,r16,1
 840720c:	0081ffc4 	movi	r2,2047
 8407210:	8080ba26 	beq	r16,r2,84074fc <__adddf3+0x39c>
 8407214:	00bfe034 	movhi	r2,65408
 8407218:	10bfffc4 	addi	r2,r2,-1
 840721c:	4090703a 	and	r8,r8,r2
 8407220:	4004977a 	slli	r2,r8,29
 8407224:	4010927a 	slli	r8,r8,9
 8407228:	8822d0fa 	srli	r17,r17,3
 840722c:	8401ffcc 	andi	r16,r16,2047
 8407230:	4010d33a 	srli	r8,r8,12
 8407234:	9007883a 	mov	r3,r18
 8407238:	1444b03a 	or	r2,r2,r17
 840723c:	8401ffcc 	andi	r16,r16,2047
 8407240:	8020953a 	slli	r16,r16,20
 8407244:	18c03fcc 	andi	r3,r3,255
 8407248:	01000434 	movhi	r4,16
 840724c:	213fffc4 	addi	r4,r4,-1
 8407250:	180697fa 	slli	r3,r3,31
 8407254:	4110703a 	and	r8,r8,r4
 8407258:	4410b03a 	or	r8,r8,r16
 840725c:	40c6b03a 	or	r3,r8,r3
 8407260:	dfc00417 	ldw	ra,16(sp)
 8407264:	dcc00317 	ldw	r19,12(sp)
 8407268:	dc800217 	ldw	r18,8(sp)
 840726c:	dc400117 	ldw	r17,4(sp)
 8407270:	dc000017 	ldw	r16,0(sp)
 8407274:	dec00504 	addi	sp,sp,20
 8407278:	f800283a 	ret
 840727c:	0081ffc4 	movi	r2,2047
 8407280:	80bfd626 	beq	r16,r2,84071dc <__alt_data_end+0xfc4071dc>
 8407284:	4a402034 	orhi	r9,r9,128
 8407288:	00800e04 	movi	r2,56
 840728c:	10c09f16 	blt	r2,r3,840750c <__adddf3+0x3ac>
 8407290:	008007c4 	movi	r2,31
 8407294:	10c0c216 	blt	r2,r3,84075a0 <__adddf3+0x440>
 8407298:	00800804 	movi	r2,32
 840729c:	10c5c83a 	sub	r2,r2,r3
 84072a0:	488a983a 	sll	r5,r9,r2
 84072a4:	30c8d83a 	srl	r4,r6,r3
 84072a8:	3084983a 	sll	r2,r6,r2
 84072ac:	48c6d83a 	srl	r3,r9,r3
 84072b0:	290cb03a 	or	r6,r5,r4
 84072b4:	1004c03a 	cmpne	r2,r2,zero
 84072b8:	308cb03a 	or	r6,r6,r2
 84072bc:	898dc83a 	sub	r6,r17,r6
 84072c0:	89a3803a 	cmpltu	r17,r17,r6
 84072c4:	40d1c83a 	sub	r8,r8,r3
 84072c8:	4451c83a 	sub	r8,r8,r17
 84072cc:	3023883a 	mov	r17,r6
 84072d0:	4080202c 	andhi	r2,r8,128
 84072d4:	10002326 	beq	r2,zero,8407364 <__adddf3+0x204>
 84072d8:	04c02034 	movhi	r19,128
 84072dc:	9cffffc4 	addi	r19,r19,-1
 84072e0:	44e6703a 	and	r19,r8,r19
 84072e4:	98007626 	beq	r19,zero,84074c0 <__adddf3+0x360>
 84072e8:	9809883a 	mov	r4,r19
 84072ec:	84096340 	call	8409634 <__clzsi2>
 84072f0:	10fffe04 	addi	r3,r2,-8
 84072f4:	010007c4 	movi	r4,31
 84072f8:	20c07716 	blt	r4,r3,84074d8 <__adddf3+0x378>
 84072fc:	00800804 	movi	r2,32
 8407300:	10c5c83a 	sub	r2,r2,r3
 8407304:	8884d83a 	srl	r2,r17,r2
 8407308:	98d0983a 	sll	r8,r19,r3
 840730c:	88e2983a 	sll	r17,r17,r3
 8407310:	1204b03a 	or	r2,r2,r8
 8407314:	1c007416 	blt	r3,r16,84074e8 <__adddf3+0x388>
 8407318:	1c21c83a 	sub	r16,r3,r16
 840731c:	82000044 	addi	r8,r16,1
 8407320:	00c007c4 	movi	r3,31
 8407324:	1a009116 	blt	r3,r8,840756c <__adddf3+0x40c>
 8407328:	00c00804 	movi	r3,32
 840732c:	1a07c83a 	sub	r3,r3,r8
 8407330:	8a08d83a 	srl	r4,r17,r8
 8407334:	88e2983a 	sll	r17,r17,r3
 8407338:	10c6983a 	sll	r3,r2,r3
 840733c:	1210d83a 	srl	r8,r2,r8
 8407340:	8804c03a 	cmpne	r2,r17,zero
 8407344:	1906b03a 	or	r3,r3,r4
 8407348:	18a2b03a 	or	r17,r3,r2
 840734c:	0021883a 	mov	r16,zero
 8407350:	003fa206 	br	84071dc <__alt_data_end+0xfc4071dc>
 8407354:	1890b03a 	or	r8,r3,r2
 8407358:	40017d26 	beq	r8,zero,8407950 <__adddf3+0x7f0>
 840735c:	1011883a 	mov	r8,r2
 8407360:	1823883a 	mov	r17,r3
 8407364:	888001cc 	andi	r2,r17,7
 8407368:	103f9e1e 	bne	r2,zero,84071e4 <__alt_data_end+0xfc4071e4>
 840736c:	4004977a 	slli	r2,r8,29
 8407370:	8822d0fa 	srli	r17,r17,3
 8407374:	4010d0fa 	srli	r8,r8,3
 8407378:	9007883a 	mov	r3,r18
 840737c:	1444b03a 	or	r2,r2,r17
 8407380:	0101ffc4 	movi	r4,2047
 8407384:	81002426 	beq	r16,r4,8407418 <__adddf3+0x2b8>
 8407388:	8120703a 	and	r16,r16,r4
 840738c:	01000434 	movhi	r4,16
 8407390:	213fffc4 	addi	r4,r4,-1
 8407394:	4110703a 	and	r8,r8,r4
 8407398:	003fa806 	br	840723c <__alt_data_end+0xfc40723c>
 840739c:	8089c83a 	sub	r4,r16,r2
 84073a0:	01005e0e 	bge	zero,r4,840751c <__adddf3+0x3bc>
 84073a4:	10002b26 	beq	r2,zero,8407454 <__adddf3+0x2f4>
 84073a8:	0081ffc4 	movi	r2,2047
 84073ac:	80bf8b26 	beq	r16,r2,84071dc <__alt_data_end+0xfc4071dc>
 84073b0:	4a402034 	orhi	r9,r9,128
 84073b4:	00800e04 	movi	r2,56
 84073b8:	1100a40e 	bge	r2,r4,840764c <__adddf3+0x4ec>
 84073bc:	498cb03a 	or	r6,r9,r6
 84073c0:	300ac03a 	cmpne	r5,r6,zero
 84073c4:	0013883a 	mov	r9,zero
 84073c8:	2c4b883a 	add	r5,r5,r17
 84073cc:	2c63803a 	cmpltu	r17,r5,r17
 84073d0:	4a11883a 	add	r8,r9,r8
 84073d4:	8a11883a 	add	r8,r17,r8
 84073d8:	2823883a 	mov	r17,r5
 84073dc:	4080202c 	andhi	r2,r8,128
 84073e0:	103fe026 	beq	r2,zero,8407364 <__alt_data_end+0xfc407364>
 84073e4:	84000044 	addi	r16,r16,1
 84073e8:	0081ffc4 	movi	r2,2047
 84073ec:	8080d226 	beq	r16,r2,8407738 <__adddf3+0x5d8>
 84073f0:	00bfe034 	movhi	r2,65408
 84073f4:	10bfffc4 	addi	r2,r2,-1
 84073f8:	4090703a 	and	r8,r8,r2
 84073fc:	880ad07a 	srli	r5,r17,1
 8407400:	400897fa 	slli	r4,r8,31
 8407404:	88c0004c 	andi	r3,r17,1
 8407408:	28e2b03a 	or	r17,r5,r3
 840740c:	4010d07a 	srli	r8,r8,1
 8407410:	2462b03a 	or	r17,r4,r17
 8407414:	003f7106 	br	84071dc <__alt_data_end+0xfc4071dc>
 8407418:	4088b03a 	or	r4,r8,r2
 840741c:	20014526 	beq	r4,zero,8407934 <__adddf3+0x7d4>
 8407420:	01000434 	movhi	r4,16
 8407424:	42000234 	orhi	r8,r8,8
 8407428:	213fffc4 	addi	r4,r4,-1
 840742c:	4110703a 	and	r8,r8,r4
 8407430:	003f8206 	br	840723c <__alt_data_end+0xfc40723c>
 8407434:	18ffffc4 	addi	r3,r3,-1
 8407438:	1800491e 	bne	r3,zero,8407560 <__adddf3+0x400>
 840743c:	898bc83a 	sub	r5,r17,r6
 8407440:	8963803a 	cmpltu	r17,r17,r5
 8407444:	4251c83a 	sub	r8,r8,r9
 8407448:	4451c83a 	sub	r8,r8,r17
 840744c:	2823883a 	mov	r17,r5
 8407450:	003f9f06 	br	84072d0 <__alt_data_end+0xfc4072d0>
 8407454:	4984b03a 	or	r2,r9,r6
 8407458:	103f6026 	beq	r2,zero,84071dc <__alt_data_end+0xfc4071dc>
 840745c:	213fffc4 	addi	r4,r4,-1
 8407460:	2000931e 	bne	r4,zero,84076b0 <__adddf3+0x550>
 8407464:	898d883a 	add	r6,r17,r6
 8407468:	3463803a 	cmpltu	r17,r6,r17
 840746c:	4251883a 	add	r8,r8,r9
 8407470:	8a11883a 	add	r8,r17,r8
 8407474:	3023883a 	mov	r17,r6
 8407478:	003fd806 	br	84073dc <__alt_data_end+0xfc4073dc>
 840747c:	1800541e 	bne	r3,zero,84075d0 <__adddf3+0x470>
 8407480:	80800044 	addi	r2,r16,1
 8407484:	1081ffcc 	andi	r2,r2,2047
 8407488:	00c00044 	movi	r3,1
 840748c:	1880a00e 	bge	r3,r2,8407710 <__adddf3+0x5b0>
 8407490:	8989c83a 	sub	r4,r17,r6
 8407494:	8905803a 	cmpltu	r2,r17,r4
 8407498:	4267c83a 	sub	r19,r8,r9
 840749c:	98a7c83a 	sub	r19,r19,r2
 84074a0:	9880202c 	andhi	r2,r19,128
 84074a4:	10006326 	beq	r2,zero,8407634 <__adddf3+0x4d4>
 84074a8:	3463c83a 	sub	r17,r6,r17
 84074ac:	4a07c83a 	sub	r3,r9,r8
 84074b0:	344d803a 	cmpltu	r6,r6,r17
 84074b4:	19a7c83a 	sub	r19,r3,r6
 84074b8:	3825883a 	mov	r18,r7
 84074bc:	983f8a1e 	bne	r19,zero,84072e8 <__alt_data_end+0xfc4072e8>
 84074c0:	8809883a 	mov	r4,r17
 84074c4:	84096340 	call	8409634 <__clzsi2>
 84074c8:	10800804 	addi	r2,r2,32
 84074cc:	10fffe04 	addi	r3,r2,-8
 84074d0:	010007c4 	movi	r4,31
 84074d4:	20ff890e 	bge	r4,r3,84072fc <__alt_data_end+0xfc4072fc>
 84074d8:	10bff604 	addi	r2,r2,-40
 84074dc:	8884983a 	sll	r2,r17,r2
 84074e0:	0023883a 	mov	r17,zero
 84074e4:	1c3f8c0e 	bge	r3,r16,8407318 <__alt_data_end+0xfc407318>
 84074e8:	023fe034 	movhi	r8,65408
 84074ec:	423fffc4 	addi	r8,r8,-1
 84074f0:	80e1c83a 	sub	r16,r16,r3
 84074f4:	1210703a 	and	r8,r2,r8
 84074f8:	003f3806 	br	84071dc <__alt_data_end+0xfc4071dc>
 84074fc:	9007883a 	mov	r3,r18
 8407500:	0011883a 	mov	r8,zero
 8407504:	0005883a 	mov	r2,zero
 8407508:	003f4c06 	br	840723c <__alt_data_end+0xfc40723c>
 840750c:	498cb03a 	or	r6,r9,r6
 8407510:	300cc03a 	cmpne	r6,r6,zero
 8407514:	0007883a 	mov	r3,zero
 8407518:	003f6806 	br	84072bc <__alt_data_end+0xfc4072bc>
 840751c:	20009c1e 	bne	r4,zero,8407790 <__adddf3+0x630>
 8407520:	80800044 	addi	r2,r16,1
 8407524:	1141ffcc 	andi	r5,r2,2047
 8407528:	01000044 	movi	r4,1
 840752c:	2140670e 	bge	r4,r5,84076cc <__adddf3+0x56c>
 8407530:	0101ffc4 	movi	r4,2047
 8407534:	11007f26 	beq	r2,r4,8407734 <__adddf3+0x5d4>
 8407538:	898d883a 	add	r6,r17,r6
 840753c:	4247883a 	add	r3,r8,r9
 8407540:	3451803a 	cmpltu	r8,r6,r17
 8407544:	40d1883a 	add	r8,r8,r3
 8407548:	402297fa 	slli	r17,r8,31
 840754c:	300cd07a 	srli	r6,r6,1
 8407550:	4010d07a 	srli	r8,r8,1
 8407554:	1021883a 	mov	r16,r2
 8407558:	89a2b03a 	or	r17,r17,r6
 840755c:	003f1f06 	br	84071dc <__alt_data_end+0xfc4071dc>
 8407560:	0081ffc4 	movi	r2,2047
 8407564:	80bf481e 	bne	r16,r2,8407288 <__alt_data_end+0xfc407288>
 8407568:	003f1c06 	br	84071dc <__alt_data_end+0xfc4071dc>
 840756c:	843ff844 	addi	r16,r16,-31
 8407570:	01000804 	movi	r4,32
 8407574:	1406d83a 	srl	r3,r2,r16
 8407578:	41005026 	beq	r8,r4,84076bc <__adddf3+0x55c>
 840757c:	01001004 	movi	r4,64
 8407580:	2211c83a 	sub	r8,r4,r8
 8407584:	1204983a 	sll	r2,r2,r8
 8407588:	88a2b03a 	or	r17,r17,r2
 840758c:	8822c03a 	cmpne	r17,r17,zero
 8407590:	1c62b03a 	or	r17,r3,r17
 8407594:	0011883a 	mov	r8,zero
 8407598:	0021883a 	mov	r16,zero
 840759c:	003f7106 	br	8407364 <__alt_data_end+0xfc407364>
 84075a0:	193ff804 	addi	r4,r3,-32
 84075a4:	00800804 	movi	r2,32
 84075a8:	4908d83a 	srl	r4,r9,r4
 84075ac:	18804526 	beq	r3,r2,84076c4 <__adddf3+0x564>
 84075b0:	00801004 	movi	r2,64
 84075b4:	10c5c83a 	sub	r2,r2,r3
 84075b8:	4886983a 	sll	r3,r9,r2
 84075bc:	198cb03a 	or	r6,r3,r6
 84075c0:	300cc03a 	cmpne	r6,r6,zero
 84075c4:	218cb03a 	or	r6,r4,r6
 84075c8:	0007883a 	mov	r3,zero
 84075cc:	003f3b06 	br	84072bc <__alt_data_end+0xfc4072bc>
 84075d0:	80002a26 	beq	r16,zero,840767c <__adddf3+0x51c>
 84075d4:	0101ffc4 	movi	r4,2047
 84075d8:	11006826 	beq	r2,r4,840777c <__adddf3+0x61c>
 84075dc:	00c7c83a 	sub	r3,zero,r3
 84075e0:	42002034 	orhi	r8,r8,128
 84075e4:	01000e04 	movi	r4,56
 84075e8:	20c07c16 	blt	r4,r3,84077dc <__adddf3+0x67c>
 84075ec:	010007c4 	movi	r4,31
 84075f0:	20c0da16 	blt	r4,r3,840795c <__adddf3+0x7fc>
 84075f4:	01000804 	movi	r4,32
 84075f8:	20c9c83a 	sub	r4,r4,r3
 84075fc:	4114983a 	sll	r10,r8,r4
 8407600:	88cad83a 	srl	r5,r17,r3
 8407604:	8908983a 	sll	r4,r17,r4
 8407608:	40c6d83a 	srl	r3,r8,r3
 840760c:	5162b03a 	or	r17,r10,r5
 8407610:	2008c03a 	cmpne	r4,r4,zero
 8407614:	8922b03a 	or	r17,r17,r4
 8407618:	3463c83a 	sub	r17,r6,r17
 840761c:	48c7c83a 	sub	r3,r9,r3
 8407620:	344d803a 	cmpltu	r6,r6,r17
 8407624:	1991c83a 	sub	r8,r3,r6
 8407628:	1021883a 	mov	r16,r2
 840762c:	3825883a 	mov	r18,r7
 8407630:	003f2706 	br	84072d0 <__alt_data_end+0xfc4072d0>
 8407634:	24d0b03a 	or	r8,r4,r19
 8407638:	40001b1e 	bne	r8,zero,84076a8 <__adddf3+0x548>
 840763c:	0005883a 	mov	r2,zero
 8407640:	0007883a 	mov	r3,zero
 8407644:	0021883a 	mov	r16,zero
 8407648:	003f4d06 	br	8407380 <__alt_data_end+0xfc407380>
 840764c:	008007c4 	movi	r2,31
 8407650:	11003c16 	blt	r2,r4,8407744 <__adddf3+0x5e4>
 8407654:	00800804 	movi	r2,32
 8407658:	1105c83a 	sub	r2,r2,r4
 840765c:	488e983a 	sll	r7,r9,r2
 8407660:	310ad83a 	srl	r5,r6,r4
 8407664:	3084983a 	sll	r2,r6,r2
 8407668:	4912d83a 	srl	r9,r9,r4
 840766c:	394ab03a 	or	r5,r7,r5
 8407670:	1004c03a 	cmpne	r2,r2,zero
 8407674:	288ab03a 	or	r5,r5,r2
 8407678:	003f5306 	br	84073c8 <__alt_data_end+0xfc4073c8>
 840767c:	4448b03a 	or	r4,r8,r17
 8407680:	20003e26 	beq	r4,zero,840777c <__adddf3+0x61c>
 8407684:	00c6303a 	nor	r3,zero,r3
 8407688:	18003a1e 	bne	r3,zero,8407774 <__adddf3+0x614>
 840768c:	3463c83a 	sub	r17,r6,r17
 8407690:	4a07c83a 	sub	r3,r9,r8
 8407694:	344d803a 	cmpltu	r6,r6,r17
 8407698:	1991c83a 	sub	r8,r3,r6
 840769c:	1021883a 	mov	r16,r2
 84076a0:	3825883a 	mov	r18,r7
 84076a4:	003f0a06 	br	84072d0 <__alt_data_end+0xfc4072d0>
 84076a8:	2023883a 	mov	r17,r4
 84076ac:	003f0d06 	br	84072e4 <__alt_data_end+0xfc4072e4>
 84076b0:	0081ffc4 	movi	r2,2047
 84076b4:	80bf3f1e 	bne	r16,r2,84073b4 <__alt_data_end+0xfc4073b4>
 84076b8:	003ec806 	br	84071dc <__alt_data_end+0xfc4071dc>
 84076bc:	0005883a 	mov	r2,zero
 84076c0:	003fb106 	br	8407588 <__alt_data_end+0xfc407588>
 84076c4:	0007883a 	mov	r3,zero
 84076c8:	003fbc06 	br	84075bc <__alt_data_end+0xfc4075bc>
 84076cc:	4444b03a 	or	r2,r8,r17
 84076d0:	8000871e 	bne	r16,zero,84078f0 <__adddf3+0x790>
 84076d4:	1000ba26 	beq	r2,zero,84079c0 <__adddf3+0x860>
 84076d8:	4984b03a 	or	r2,r9,r6
 84076dc:	103ebf26 	beq	r2,zero,84071dc <__alt_data_end+0xfc4071dc>
 84076e0:	8985883a 	add	r2,r17,r6
 84076e4:	4247883a 	add	r3,r8,r9
 84076e8:	1451803a 	cmpltu	r8,r2,r17
 84076ec:	40d1883a 	add	r8,r8,r3
 84076f0:	40c0202c 	andhi	r3,r8,128
 84076f4:	1023883a 	mov	r17,r2
 84076f8:	183f1a26 	beq	r3,zero,8407364 <__alt_data_end+0xfc407364>
 84076fc:	00bfe034 	movhi	r2,65408
 8407700:	10bfffc4 	addi	r2,r2,-1
 8407704:	2021883a 	mov	r16,r4
 8407708:	4090703a 	and	r8,r8,r2
 840770c:	003eb306 	br	84071dc <__alt_data_end+0xfc4071dc>
 8407710:	4444b03a 	or	r2,r8,r17
 8407714:	8000291e 	bne	r16,zero,84077bc <__adddf3+0x65c>
 8407718:	10004b1e 	bne	r2,zero,8407848 <__adddf3+0x6e8>
 840771c:	4990b03a 	or	r8,r9,r6
 8407720:	40008b26 	beq	r8,zero,8407950 <__adddf3+0x7f0>
 8407724:	4811883a 	mov	r8,r9
 8407728:	3023883a 	mov	r17,r6
 840772c:	3825883a 	mov	r18,r7
 8407730:	003eaa06 	br	84071dc <__alt_data_end+0xfc4071dc>
 8407734:	1021883a 	mov	r16,r2
 8407738:	0011883a 	mov	r8,zero
 840773c:	0005883a 	mov	r2,zero
 8407740:	003f0f06 	br	8407380 <__alt_data_end+0xfc407380>
 8407744:	217ff804 	addi	r5,r4,-32
 8407748:	00800804 	movi	r2,32
 840774c:	494ad83a 	srl	r5,r9,r5
 8407750:	20807d26 	beq	r4,r2,8407948 <__adddf3+0x7e8>
 8407754:	00801004 	movi	r2,64
 8407758:	1109c83a 	sub	r4,r2,r4
 840775c:	4912983a 	sll	r9,r9,r4
 8407760:	498cb03a 	or	r6,r9,r6
 8407764:	300cc03a 	cmpne	r6,r6,zero
 8407768:	298ab03a 	or	r5,r5,r6
 840776c:	0013883a 	mov	r9,zero
 8407770:	003f1506 	br	84073c8 <__alt_data_end+0xfc4073c8>
 8407774:	0101ffc4 	movi	r4,2047
 8407778:	113f9a1e 	bne	r2,r4,84075e4 <__alt_data_end+0xfc4075e4>
 840777c:	4811883a 	mov	r8,r9
 8407780:	3023883a 	mov	r17,r6
 8407784:	1021883a 	mov	r16,r2
 8407788:	3825883a 	mov	r18,r7
 840778c:	003e9306 	br	84071dc <__alt_data_end+0xfc4071dc>
 8407790:	8000161e 	bne	r16,zero,84077ec <__adddf3+0x68c>
 8407794:	444ab03a 	or	r5,r8,r17
 8407798:	28005126 	beq	r5,zero,84078e0 <__adddf3+0x780>
 840779c:	0108303a 	nor	r4,zero,r4
 84077a0:	20004d1e 	bne	r4,zero,84078d8 <__adddf3+0x778>
 84077a4:	89a3883a 	add	r17,r17,r6
 84077a8:	4253883a 	add	r9,r8,r9
 84077ac:	898d803a 	cmpltu	r6,r17,r6
 84077b0:	3251883a 	add	r8,r6,r9
 84077b4:	1021883a 	mov	r16,r2
 84077b8:	003f0806 	br	84073dc <__alt_data_end+0xfc4073dc>
 84077bc:	1000301e 	bne	r2,zero,8407880 <__adddf3+0x720>
 84077c0:	4984b03a 	or	r2,r9,r6
 84077c4:	10007126 	beq	r2,zero,840798c <__adddf3+0x82c>
 84077c8:	4811883a 	mov	r8,r9
 84077cc:	3023883a 	mov	r17,r6
 84077d0:	3825883a 	mov	r18,r7
 84077d4:	0401ffc4 	movi	r16,2047
 84077d8:	003e8006 	br	84071dc <__alt_data_end+0xfc4071dc>
 84077dc:	4462b03a 	or	r17,r8,r17
 84077e0:	8822c03a 	cmpne	r17,r17,zero
 84077e4:	0007883a 	mov	r3,zero
 84077e8:	003f8b06 	br	8407618 <__alt_data_end+0xfc407618>
 84077ec:	0141ffc4 	movi	r5,2047
 84077f0:	11403b26 	beq	r2,r5,84078e0 <__adddf3+0x780>
 84077f4:	0109c83a 	sub	r4,zero,r4
 84077f8:	42002034 	orhi	r8,r8,128
 84077fc:	01400e04 	movi	r5,56
 8407800:	29006716 	blt	r5,r4,84079a0 <__adddf3+0x840>
 8407804:	014007c4 	movi	r5,31
 8407808:	29007016 	blt	r5,r4,84079cc <__adddf3+0x86c>
 840780c:	01400804 	movi	r5,32
 8407810:	290bc83a 	sub	r5,r5,r4
 8407814:	4154983a 	sll	r10,r8,r5
 8407818:	890ed83a 	srl	r7,r17,r4
 840781c:	894a983a 	sll	r5,r17,r5
 8407820:	4108d83a 	srl	r4,r8,r4
 8407824:	51e2b03a 	or	r17,r10,r7
 8407828:	280ac03a 	cmpne	r5,r5,zero
 840782c:	8962b03a 	or	r17,r17,r5
 8407830:	89a3883a 	add	r17,r17,r6
 8407834:	2253883a 	add	r9,r4,r9
 8407838:	898d803a 	cmpltu	r6,r17,r6
 840783c:	3251883a 	add	r8,r6,r9
 8407840:	1021883a 	mov	r16,r2
 8407844:	003ee506 	br	84073dc <__alt_data_end+0xfc4073dc>
 8407848:	4984b03a 	or	r2,r9,r6
 840784c:	103e6326 	beq	r2,zero,84071dc <__alt_data_end+0xfc4071dc>
 8407850:	8987c83a 	sub	r3,r17,r6
 8407854:	88c9803a 	cmpltu	r4,r17,r3
 8407858:	4245c83a 	sub	r2,r8,r9
 840785c:	1105c83a 	sub	r2,r2,r4
 8407860:	1100202c 	andhi	r4,r2,128
 8407864:	203ebb26 	beq	r4,zero,8407354 <__alt_data_end+0xfc407354>
 8407868:	3463c83a 	sub	r17,r6,r17
 840786c:	4a07c83a 	sub	r3,r9,r8
 8407870:	344d803a 	cmpltu	r6,r6,r17
 8407874:	1991c83a 	sub	r8,r3,r6
 8407878:	3825883a 	mov	r18,r7
 840787c:	003e5706 	br	84071dc <__alt_data_end+0xfc4071dc>
 8407880:	4984b03a 	or	r2,r9,r6
 8407884:	10002e26 	beq	r2,zero,8407940 <__adddf3+0x7e0>
 8407888:	4004d0fa 	srli	r2,r8,3
 840788c:	8822d0fa 	srli	r17,r17,3
 8407890:	4010977a 	slli	r8,r8,29
 8407894:	10c0022c 	andhi	r3,r2,8
 8407898:	4462b03a 	or	r17,r8,r17
 840789c:	18000826 	beq	r3,zero,84078c0 <__adddf3+0x760>
 84078a0:	4808d0fa 	srli	r4,r9,3
 84078a4:	20c0022c 	andhi	r3,r4,8
 84078a8:	1800051e 	bne	r3,zero,84078c0 <__adddf3+0x760>
 84078ac:	300cd0fa 	srli	r6,r6,3
 84078b0:	4806977a 	slli	r3,r9,29
 84078b4:	2005883a 	mov	r2,r4
 84078b8:	3825883a 	mov	r18,r7
 84078bc:	19a2b03a 	or	r17,r3,r6
 84078c0:	8810d77a 	srli	r8,r17,29
 84078c4:	100490fa 	slli	r2,r2,3
 84078c8:	882290fa 	slli	r17,r17,3
 84078cc:	0401ffc4 	movi	r16,2047
 84078d0:	4090b03a 	or	r8,r8,r2
 84078d4:	003e4106 	br	84071dc <__alt_data_end+0xfc4071dc>
 84078d8:	0141ffc4 	movi	r5,2047
 84078dc:	117fc71e 	bne	r2,r5,84077fc <__alt_data_end+0xfc4077fc>
 84078e0:	4811883a 	mov	r8,r9
 84078e4:	3023883a 	mov	r17,r6
 84078e8:	1021883a 	mov	r16,r2
 84078ec:	003e3b06 	br	84071dc <__alt_data_end+0xfc4071dc>
 84078f0:	10002f26 	beq	r2,zero,84079b0 <__adddf3+0x850>
 84078f4:	4984b03a 	or	r2,r9,r6
 84078f8:	10001126 	beq	r2,zero,8407940 <__adddf3+0x7e0>
 84078fc:	4004d0fa 	srli	r2,r8,3
 8407900:	8822d0fa 	srli	r17,r17,3
 8407904:	4010977a 	slli	r8,r8,29
 8407908:	10c0022c 	andhi	r3,r2,8
 840790c:	4462b03a 	or	r17,r8,r17
 8407910:	183feb26 	beq	r3,zero,84078c0 <__alt_data_end+0xfc4078c0>
 8407914:	4808d0fa 	srli	r4,r9,3
 8407918:	20c0022c 	andhi	r3,r4,8
 840791c:	183fe81e 	bne	r3,zero,84078c0 <__alt_data_end+0xfc4078c0>
 8407920:	300cd0fa 	srli	r6,r6,3
 8407924:	4806977a 	slli	r3,r9,29
 8407928:	2005883a 	mov	r2,r4
 840792c:	19a2b03a 	or	r17,r3,r6
 8407930:	003fe306 	br	84078c0 <__alt_data_end+0xfc4078c0>
 8407934:	0011883a 	mov	r8,zero
 8407938:	0005883a 	mov	r2,zero
 840793c:	003e3f06 	br	840723c <__alt_data_end+0xfc40723c>
 8407940:	0401ffc4 	movi	r16,2047
 8407944:	003e2506 	br	84071dc <__alt_data_end+0xfc4071dc>
 8407948:	0013883a 	mov	r9,zero
 840794c:	003f8406 	br	8407760 <__alt_data_end+0xfc407760>
 8407950:	0005883a 	mov	r2,zero
 8407954:	0007883a 	mov	r3,zero
 8407958:	003e8906 	br	8407380 <__alt_data_end+0xfc407380>
 840795c:	197ff804 	addi	r5,r3,-32
 8407960:	01000804 	movi	r4,32
 8407964:	414ad83a 	srl	r5,r8,r5
 8407968:	19002426 	beq	r3,r4,84079fc <__adddf3+0x89c>
 840796c:	01001004 	movi	r4,64
 8407970:	20c7c83a 	sub	r3,r4,r3
 8407974:	40c6983a 	sll	r3,r8,r3
 8407978:	1c46b03a 	or	r3,r3,r17
 840797c:	1806c03a 	cmpne	r3,r3,zero
 8407980:	28e2b03a 	or	r17,r5,r3
 8407984:	0007883a 	mov	r3,zero
 8407988:	003f2306 	br	8407618 <__alt_data_end+0xfc407618>
 840798c:	0007883a 	mov	r3,zero
 8407990:	5811883a 	mov	r8,r11
 8407994:	00bfffc4 	movi	r2,-1
 8407998:	0401ffc4 	movi	r16,2047
 840799c:	003e7806 	br	8407380 <__alt_data_end+0xfc407380>
 84079a0:	4462b03a 	or	r17,r8,r17
 84079a4:	8822c03a 	cmpne	r17,r17,zero
 84079a8:	0009883a 	mov	r4,zero
 84079ac:	003fa006 	br	8407830 <__alt_data_end+0xfc407830>
 84079b0:	4811883a 	mov	r8,r9
 84079b4:	3023883a 	mov	r17,r6
 84079b8:	0401ffc4 	movi	r16,2047
 84079bc:	003e0706 	br	84071dc <__alt_data_end+0xfc4071dc>
 84079c0:	4811883a 	mov	r8,r9
 84079c4:	3023883a 	mov	r17,r6
 84079c8:	003e0406 	br	84071dc <__alt_data_end+0xfc4071dc>
 84079cc:	21fff804 	addi	r7,r4,-32
 84079d0:	01400804 	movi	r5,32
 84079d4:	41ced83a 	srl	r7,r8,r7
 84079d8:	21400a26 	beq	r4,r5,8407a04 <__adddf3+0x8a4>
 84079dc:	01401004 	movi	r5,64
 84079e0:	2909c83a 	sub	r4,r5,r4
 84079e4:	4108983a 	sll	r4,r8,r4
 84079e8:	2448b03a 	or	r4,r4,r17
 84079ec:	2008c03a 	cmpne	r4,r4,zero
 84079f0:	3922b03a 	or	r17,r7,r4
 84079f4:	0009883a 	mov	r4,zero
 84079f8:	003f8d06 	br	8407830 <__alt_data_end+0xfc407830>
 84079fc:	0007883a 	mov	r3,zero
 8407a00:	003fdd06 	br	8407978 <__alt_data_end+0xfc407978>
 8407a04:	0009883a 	mov	r4,zero
 8407a08:	003ff706 	br	84079e8 <__alt_data_end+0xfc4079e8>

08407a0c <__divdf3>:
 8407a0c:	defff204 	addi	sp,sp,-56
 8407a10:	dd400915 	stw	r21,36(sp)
 8407a14:	282ad53a 	srli	r21,r5,20
 8407a18:	dd000815 	stw	r20,32(sp)
 8407a1c:	2828d7fa 	srli	r20,r5,31
 8407a20:	dc000415 	stw	r16,16(sp)
 8407a24:	04000434 	movhi	r16,16
 8407a28:	df000c15 	stw	fp,48(sp)
 8407a2c:	843fffc4 	addi	r16,r16,-1
 8407a30:	dfc00d15 	stw	ra,52(sp)
 8407a34:	ddc00b15 	stw	r23,44(sp)
 8407a38:	dd800a15 	stw	r22,40(sp)
 8407a3c:	dcc00715 	stw	r19,28(sp)
 8407a40:	dc800615 	stw	r18,24(sp)
 8407a44:	dc400515 	stw	r17,20(sp)
 8407a48:	ad41ffcc 	andi	r21,r21,2047
 8407a4c:	2c20703a 	and	r16,r5,r16
 8407a50:	a7003fcc 	andi	fp,r20,255
 8407a54:	a8006126 	beq	r21,zero,8407bdc <__divdf3+0x1d0>
 8407a58:	0081ffc4 	movi	r2,2047
 8407a5c:	2025883a 	mov	r18,r4
 8407a60:	a8803726 	beq	r21,r2,8407b40 <__divdf3+0x134>
 8407a64:	80800434 	orhi	r2,r16,16
 8407a68:	100490fa 	slli	r2,r2,3
 8407a6c:	2020d77a 	srli	r16,r4,29
 8407a70:	202490fa 	slli	r18,r4,3
 8407a74:	ad7f0044 	addi	r21,r21,-1023
 8407a78:	80a0b03a 	or	r16,r16,r2
 8407a7c:	0027883a 	mov	r19,zero
 8407a80:	0013883a 	mov	r9,zero
 8407a84:	3804d53a 	srli	r2,r7,20
 8407a88:	382cd7fa 	srli	r22,r7,31
 8407a8c:	04400434 	movhi	r17,16
 8407a90:	8c7fffc4 	addi	r17,r17,-1
 8407a94:	1081ffcc 	andi	r2,r2,2047
 8407a98:	3011883a 	mov	r8,r6
 8407a9c:	3c62703a 	and	r17,r7,r17
 8407aa0:	b5c03fcc 	andi	r23,r22,255
 8407aa4:	10006c26 	beq	r2,zero,8407c58 <__divdf3+0x24c>
 8407aa8:	00c1ffc4 	movi	r3,2047
 8407aac:	10c06426 	beq	r2,r3,8407c40 <__divdf3+0x234>
 8407ab0:	88c00434 	orhi	r3,r17,16
 8407ab4:	180690fa 	slli	r3,r3,3
 8407ab8:	3022d77a 	srli	r17,r6,29
 8407abc:	301090fa 	slli	r8,r6,3
 8407ac0:	10bf0044 	addi	r2,r2,-1023
 8407ac4:	88e2b03a 	or	r17,r17,r3
 8407ac8:	000f883a 	mov	r7,zero
 8407acc:	a58cf03a 	xor	r6,r20,r22
 8407ad0:	3cc8b03a 	or	r4,r7,r19
 8407ad4:	a8abc83a 	sub	r21,r21,r2
 8407ad8:	008003c4 	movi	r2,15
 8407adc:	3007883a 	mov	r3,r6
 8407ae0:	34c03fcc 	andi	r19,r6,255
 8407ae4:	11009036 	bltu	r2,r4,8407d28 <__divdf3+0x31c>
 8407ae8:	200890ba 	slli	r4,r4,2
 8407aec:	00821034 	movhi	r2,2112
 8407af0:	109ec004 	addi	r2,r2,31488
 8407af4:	2089883a 	add	r4,r4,r2
 8407af8:	20800017 	ldw	r2,0(r4)
 8407afc:	1000683a 	jmp	r2
 8407b00:	08407d28 	cmpgeui	at,at,500
 8407b04:	08407b78 	rdprs	at,at,493
 8407b08:	08407d18 	cmpnei	at,at,500
 8407b0c:	08407b6c 	andhi	at,at,493
 8407b10:	08407d18 	cmpnei	at,at,500
 8407b14:	08407cec 	andhi	at,at,499
 8407b18:	08407d18 	cmpnei	at,at,500
 8407b1c:	08407b6c 	andhi	at,at,493
 8407b20:	08407b78 	rdprs	at,at,493
 8407b24:	08407b78 	rdprs	at,at,493
 8407b28:	08407cec 	andhi	at,at,499
 8407b2c:	08407b6c 	andhi	at,at,493
 8407b30:	08407b5c 	xori	at,at,493
 8407b34:	08407b5c 	xori	at,at,493
 8407b38:	08407b5c 	xori	at,at,493
 8407b3c:	0840800c 	andi	at,at,512
 8407b40:	2404b03a 	or	r2,r4,r16
 8407b44:	1000661e 	bne	r2,zero,8407ce0 <__divdf3+0x2d4>
 8407b48:	04c00204 	movi	r19,8
 8407b4c:	0021883a 	mov	r16,zero
 8407b50:	0025883a 	mov	r18,zero
 8407b54:	02400084 	movi	r9,2
 8407b58:	003fca06 	br	8407a84 <__alt_data_end+0xfc407a84>
 8407b5c:	8023883a 	mov	r17,r16
 8407b60:	9011883a 	mov	r8,r18
 8407b64:	e02f883a 	mov	r23,fp
 8407b68:	480f883a 	mov	r7,r9
 8407b6c:	00800084 	movi	r2,2
 8407b70:	3881311e 	bne	r7,r2,8408038 <__divdf3+0x62c>
 8407b74:	b827883a 	mov	r19,r23
 8407b78:	98c0004c 	andi	r3,r19,1
 8407b7c:	0081ffc4 	movi	r2,2047
 8407b80:	000b883a 	mov	r5,zero
 8407b84:	0025883a 	mov	r18,zero
 8407b88:	1004953a 	slli	r2,r2,20
 8407b8c:	18c03fcc 	andi	r3,r3,255
 8407b90:	04400434 	movhi	r17,16
 8407b94:	8c7fffc4 	addi	r17,r17,-1
 8407b98:	180697fa 	slli	r3,r3,31
 8407b9c:	2c4a703a 	and	r5,r5,r17
 8407ba0:	288ab03a 	or	r5,r5,r2
 8407ba4:	28c6b03a 	or	r3,r5,r3
 8407ba8:	9005883a 	mov	r2,r18
 8407bac:	dfc00d17 	ldw	ra,52(sp)
 8407bb0:	df000c17 	ldw	fp,48(sp)
 8407bb4:	ddc00b17 	ldw	r23,44(sp)
 8407bb8:	dd800a17 	ldw	r22,40(sp)
 8407bbc:	dd400917 	ldw	r21,36(sp)
 8407bc0:	dd000817 	ldw	r20,32(sp)
 8407bc4:	dcc00717 	ldw	r19,28(sp)
 8407bc8:	dc800617 	ldw	r18,24(sp)
 8407bcc:	dc400517 	ldw	r17,20(sp)
 8407bd0:	dc000417 	ldw	r16,16(sp)
 8407bd4:	dec00e04 	addi	sp,sp,56
 8407bd8:	f800283a 	ret
 8407bdc:	2404b03a 	or	r2,r4,r16
 8407be0:	2027883a 	mov	r19,r4
 8407be4:	10003926 	beq	r2,zero,8407ccc <__divdf3+0x2c0>
 8407be8:	80012e26 	beq	r16,zero,84080a4 <__divdf3+0x698>
 8407bec:	8009883a 	mov	r4,r16
 8407bf0:	d9800315 	stw	r6,12(sp)
 8407bf4:	d9c00215 	stw	r7,8(sp)
 8407bf8:	84096340 	call	8409634 <__clzsi2>
 8407bfc:	d9800317 	ldw	r6,12(sp)
 8407c00:	d9c00217 	ldw	r7,8(sp)
 8407c04:	113ffd44 	addi	r4,r2,-11
 8407c08:	00c00704 	movi	r3,28
 8407c0c:	19012116 	blt	r3,r4,8408094 <__divdf3+0x688>
 8407c10:	00c00744 	movi	r3,29
 8407c14:	147ffe04 	addi	r17,r2,-8
 8407c18:	1907c83a 	sub	r3,r3,r4
 8407c1c:	8460983a 	sll	r16,r16,r17
 8407c20:	98c6d83a 	srl	r3,r19,r3
 8407c24:	9c64983a 	sll	r18,r19,r17
 8407c28:	1c20b03a 	or	r16,r3,r16
 8407c2c:	1080fcc4 	addi	r2,r2,1011
 8407c30:	00abc83a 	sub	r21,zero,r2
 8407c34:	0027883a 	mov	r19,zero
 8407c38:	0013883a 	mov	r9,zero
 8407c3c:	003f9106 	br	8407a84 <__alt_data_end+0xfc407a84>
 8407c40:	3446b03a 	or	r3,r6,r17
 8407c44:	18001f1e 	bne	r3,zero,8407cc4 <__divdf3+0x2b8>
 8407c48:	0023883a 	mov	r17,zero
 8407c4c:	0011883a 	mov	r8,zero
 8407c50:	01c00084 	movi	r7,2
 8407c54:	003f9d06 	br	8407acc <__alt_data_end+0xfc407acc>
 8407c58:	3446b03a 	or	r3,r6,r17
 8407c5c:	18001526 	beq	r3,zero,8407cb4 <__divdf3+0x2a8>
 8407c60:	88011b26 	beq	r17,zero,84080d0 <__divdf3+0x6c4>
 8407c64:	8809883a 	mov	r4,r17
 8407c68:	d9800315 	stw	r6,12(sp)
 8407c6c:	da400115 	stw	r9,4(sp)
 8407c70:	84096340 	call	8409634 <__clzsi2>
 8407c74:	d9800317 	ldw	r6,12(sp)
 8407c78:	da400117 	ldw	r9,4(sp)
 8407c7c:	113ffd44 	addi	r4,r2,-11
 8407c80:	00c00704 	movi	r3,28
 8407c84:	19010e16 	blt	r3,r4,84080c0 <__divdf3+0x6b4>
 8407c88:	00c00744 	movi	r3,29
 8407c8c:	123ffe04 	addi	r8,r2,-8
 8407c90:	1907c83a 	sub	r3,r3,r4
 8407c94:	8a22983a 	sll	r17,r17,r8
 8407c98:	30c6d83a 	srl	r3,r6,r3
 8407c9c:	3210983a 	sll	r8,r6,r8
 8407ca0:	1c62b03a 	or	r17,r3,r17
 8407ca4:	1080fcc4 	addi	r2,r2,1011
 8407ca8:	0085c83a 	sub	r2,zero,r2
 8407cac:	000f883a 	mov	r7,zero
 8407cb0:	003f8606 	br	8407acc <__alt_data_end+0xfc407acc>
 8407cb4:	0023883a 	mov	r17,zero
 8407cb8:	0011883a 	mov	r8,zero
 8407cbc:	01c00044 	movi	r7,1
 8407cc0:	003f8206 	br	8407acc <__alt_data_end+0xfc407acc>
 8407cc4:	01c000c4 	movi	r7,3
 8407cc8:	003f8006 	br	8407acc <__alt_data_end+0xfc407acc>
 8407ccc:	04c00104 	movi	r19,4
 8407cd0:	0021883a 	mov	r16,zero
 8407cd4:	0025883a 	mov	r18,zero
 8407cd8:	02400044 	movi	r9,1
 8407cdc:	003f6906 	br	8407a84 <__alt_data_end+0xfc407a84>
 8407ce0:	04c00304 	movi	r19,12
 8407ce4:	024000c4 	movi	r9,3
 8407ce8:	003f6606 	br	8407a84 <__alt_data_end+0xfc407a84>
 8407cec:	01400434 	movhi	r5,16
 8407cf0:	0007883a 	mov	r3,zero
 8407cf4:	297fffc4 	addi	r5,r5,-1
 8407cf8:	04bfffc4 	movi	r18,-1
 8407cfc:	0081ffc4 	movi	r2,2047
 8407d00:	003fa106 	br	8407b88 <__alt_data_end+0xfc407b88>
 8407d04:	00c00044 	movi	r3,1
 8407d08:	1887c83a 	sub	r3,r3,r2
 8407d0c:	01000e04 	movi	r4,56
 8407d10:	20c1210e 	bge	r4,r3,8408198 <__divdf3+0x78c>
 8407d14:	98c0004c 	andi	r3,r19,1
 8407d18:	0005883a 	mov	r2,zero
 8407d1c:	000b883a 	mov	r5,zero
 8407d20:	0025883a 	mov	r18,zero
 8407d24:	003f9806 	br	8407b88 <__alt_data_end+0xfc407b88>
 8407d28:	8c00fd36 	bltu	r17,r16,8408120 <__divdf3+0x714>
 8407d2c:	8440fb26 	beq	r16,r17,840811c <__divdf3+0x710>
 8407d30:	8007883a 	mov	r3,r16
 8407d34:	ad7fffc4 	addi	r21,r21,-1
 8407d38:	0021883a 	mov	r16,zero
 8407d3c:	4004d63a 	srli	r2,r8,24
 8407d40:	8822923a 	slli	r17,r17,8
 8407d44:	1809883a 	mov	r4,r3
 8407d48:	402c923a 	slli	r22,r8,8
 8407d4c:	88b8b03a 	or	fp,r17,r2
 8407d50:	e028d43a 	srli	r20,fp,16
 8407d54:	d8c00015 	stw	r3,0(sp)
 8407d58:	e5ffffcc 	andi	r23,fp,65535
 8407d5c:	a00b883a 	mov	r5,r20
 8407d60:	84070a40 	call	84070a4 <__udivsi3>
 8407d64:	d8c00017 	ldw	r3,0(sp)
 8407d68:	a00b883a 	mov	r5,r20
 8407d6c:	d8800315 	stw	r2,12(sp)
 8407d70:	1809883a 	mov	r4,r3
 8407d74:	84071080 	call	8407108 <__umodsi3>
 8407d78:	d9800317 	ldw	r6,12(sp)
 8407d7c:	1006943a 	slli	r3,r2,16
 8407d80:	9004d43a 	srli	r2,r18,16
 8407d84:	b9a3383a 	mul	r17,r23,r6
 8407d88:	10c4b03a 	or	r2,r2,r3
 8407d8c:	1440062e 	bgeu	r2,r17,8407da8 <__divdf3+0x39c>
 8407d90:	1705883a 	add	r2,r2,fp
 8407d94:	30ffffc4 	addi	r3,r6,-1
 8407d98:	1700ee36 	bltu	r2,fp,8408154 <__divdf3+0x748>
 8407d9c:	1440ed2e 	bgeu	r2,r17,8408154 <__divdf3+0x748>
 8407da0:	31bfff84 	addi	r6,r6,-2
 8407da4:	1705883a 	add	r2,r2,fp
 8407da8:	1463c83a 	sub	r17,r2,r17
 8407dac:	a00b883a 	mov	r5,r20
 8407db0:	8809883a 	mov	r4,r17
 8407db4:	d9800315 	stw	r6,12(sp)
 8407db8:	84070a40 	call	84070a4 <__udivsi3>
 8407dbc:	a00b883a 	mov	r5,r20
 8407dc0:	8809883a 	mov	r4,r17
 8407dc4:	d8800215 	stw	r2,8(sp)
 8407dc8:	84071080 	call	8407108 <__umodsi3>
 8407dcc:	d9c00217 	ldw	r7,8(sp)
 8407dd0:	1004943a 	slli	r2,r2,16
 8407dd4:	94bfffcc 	andi	r18,r18,65535
 8407dd8:	b9d1383a 	mul	r8,r23,r7
 8407ddc:	90a4b03a 	or	r18,r18,r2
 8407de0:	d9800317 	ldw	r6,12(sp)
 8407de4:	9200062e 	bgeu	r18,r8,8407e00 <__divdf3+0x3f4>
 8407de8:	9725883a 	add	r18,r18,fp
 8407dec:	38bfffc4 	addi	r2,r7,-1
 8407df0:	9700d636 	bltu	r18,fp,840814c <__divdf3+0x740>
 8407df4:	9200d52e 	bgeu	r18,r8,840814c <__divdf3+0x740>
 8407df8:	39ffff84 	addi	r7,r7,-2
 8407dfc:	9725883a 	add	r18,r18,fp
 8407e00:	3004943a 	slli	r2,r6,16
 8407e04:	b012d43a 	srli	r9,r22,16
 8407e08:	b1bfffcc 	andi	r6,r22,65535
 8407e0c:	11e2b03a 	or	r17,r2,r7
 8407e10:	8806d43a 	srli	r3,r17,16
 8407e14:	893fffcc 	andi	r4,r17,65535
 8407e18:	218b383a 	mul	r5,r4,r6
 8407e1c:	30c5383a 	mul	r2,r6,r3
 8407e20:	2249383a 	mul	r4,r4,r9
 8407e24:	280ed43a 	srli	r7,r5,16
 8407e28:	9225c83a 	sub	r18,r18,r8
 8407e2c:	2089883a 	add	r4,r4,r2
 8407e30:	3909883a 	add	r4,r7,r4
 8407e34:	1a47383a 	mul	r3,r3,r9
 8407e38:	2080022e 	bgeu	r4,r2,8407e44 <__divdf3+0x438>
 8407e3c:	00800074 	movhi	r2,1
 8407e40:	1887883a 	add	r3,r3,r2
 8407e44:	2004d43a 	srli	r2,r4,16
 8407e48:	2008943a 	slli	r4,r4,16
 8407e4c:	297fffcc 	andi	r5,r5,65535
 8407e50:	10c7883a 	add	r3,r2,r3
 8407e54:	2149883a 	add	r4,r4,r5
 8407e58:	90c0a536 	bltu	r18,r3,84080f0 <__divdf3+0x6e4>
 8407e5c:	90c0bf26 	beq	r18,r3,840815c <__divdf3+0x750>
 8407e60:	90c7c83a 	sub	r3,r18,r3
 8407e64:	810fc83a 	sub	r7,r16,r4
 8407e68:	81e5803a 	cmpltu	r18,r16,r7
 8407e6c:	1ca5c83a 	sub	r18,r3,r18
 8407e70:	e480c126 	beq	fp,r18,8408178 <__divdf3+0x76c>
 8407e74:	a00b883a 	mov	r5,r20
 8407e78:	9009883a 	mov	r4,r18
 8407e7c:	d9800315 	stw	r6,12(sp)
 8407e80:	d9c00215 	stw	r7,8(sp)
 8407e84:	da400115 	stw	r9,4(sp)
 8407e88:	84070a40 	call	84070a4 <__udivsi3>
 8407e8c:	a00b883a 	mov	r5,r20
 8407e90:	9009883a 	mov	r4,r18
 8407e94:	d8800015 	stw	r2,0(sp)
 8407e98:	84071080 	call	8407108 <__umodsi3>
 8407e9c:	d9c00217 	ldw	r7,8(sp)
 8407ea0:	da000017 	ldw	r8,0(sp)
 8407ea4:	1006943a 	slli	r3,r2,16
 8407ea8:	3804d43a 	srli	r2,r7,16
 8407eac:	ba21383a 	mul	r16,r23,r8
 8407eb0:	d9800317 	ldw	r6,12(sp)
 8407eb4:	10c4b03a 	or	r2,r2,r3
 8407eb8:	da400117 	ldw	r9,4(sp)
 8407ebc:	1400062e 	bgeu	r2,r16,8407ed8 <__divdf3+0x4cc>
 8407ec0:	1705883a 	add	r2,r2,fp
 8407ec4:	40ffffc4 	addi	r3,r8,-1
 8407ec8:	1700ad36 	bltu	r2,fp,8408180 <__divdf3+0x774>
 8407ecc:	1400ac2e 	bgeu	r2,r16,8408180 <__divdf3+0x774>
 8407ed0:	423fff84 	addi	r8,r8,-2
 8407ed4:	1705883a 	add	r2,r2,fp
 8407ed8:	1421c83a 	sub	r16,r2,r16
 8407edc:	a00b883a 	mov	r5,r20
 8407ee0:	8009883a 	mov	r4,r16
 8407ee4:	d9800315 	stw	r6,12(sp)
 8407ee8:	d9c00215 	stw	r7,8(sp)
 8407eec:	da000015 	stw	r8,0(sp)
 8407ef0:	da400115 	stw	r9,4(sp)
 8407ef4:	84070a40 	call	84070a4 <__udivsi3>
 8407ef8:	8009883a 	mov	r4,r16
 8407efc:	a00b883a 	mov	r5,r20
 8407f00:	1025883a 	mov	r18,r2
 8407f04:	84071080 	call	8407108 <__umodsi3>
 8407f08:	d9c00217 	ldw	r7,8(sp)
 8407f0c:	1004943a 	slli	r2,r2,16
 8407f10:	bcaf383a 	mul	r23,r23,r18
 8407f14:	393fffcc 	andi	r4,r7,65535
 8407f18:	2088b03a 	or	r4,r4,r2
 8407f1c:	d9800317 	ldw	r6,12(sp)
 8407f20:	da000017 	ldw	r8,0(sp)
 8407f24:	da400117 	ldw	r9,4(sp)
 8407f28:	25c0062e 	bgeu	r4,r23,8407f44 <__divdf3+0x538>
 8407f2c:	2709883a 	add	r4,r4,fp
 8407f30:	90bfffc4 	addi	r2,r18,-1
 8407f34:	27009436 	bltu	r4,fp,8408188 <__divdf3+0x77c>
 8407f38:	25c0932e 	bgeu	r4,r23,8408188 <__divdf3+0x77c>
 8407f3c:	94bfff84 	addi	r18,r18,-2
 8407f40:	2709883a 	add	r4,r4,fp
 8407f44:	4004943a 	slli	r2,r8,16
 8407f48:	25efc83a 	sub	r23,r4,r23
 8407f4c:	1490b03a 	or	r8,r2,r18
 8407f50:	4008d43a 	srli	r4,r8,16
 8407f54:	40ffffcc 	andi	r3,r8,65535
 8407f58:	30c5383a 	mul	r2,r6,r3
 8407f5c:	1a47383a 	mul	r3,r3,r9
 8407f60:	310d383a 	mul	r6,r6,r4
 8407f64:	100ad43a 	srli	r5,r2,16
 8407f68:	4913383a 	mul	r9,r9,r4
 8407f6c:	1987883a 	add	r3,r3,r6
 8407f70:	28c7883a 	add	r3,r5,r3
 8407f74:	1980022e 	bgeu	r3,r6,8407f80 <__divdf3+0x574>
 8407f78:	01000074 	movhi	r4,1
 8407f7c:	4913883a 	add	r9,r9,r4
 8407f80:	1808d43a 	srli	r4,r3,16
 8407f84:	1806943a 	slli	r3,r3,16
 8407f88:	10bfffcc 	andi	r2,r2,65535
 8407f8c:	2253883a 	add	r9,r4,r9
 8407f90:	1887883a 	add	r3,r3,r2
 8407f94:	ba403836 	bltu	r23,r9,8408078 <__divdf3+0x66c>
 8407f98:	ba403626 	beq	r23,r9,8408074 <__divdf3+0x668>
 8407f9c:	42000054 	ori	r8,r8,1
 8407fa0:	a880ffc4 	addi	r2,r21,1023
 8407fa4:	00bf570e 	bge	zero,r2,8407d04 <__alt_data_end+0xfc407d04>
 8407fa8:	40c001cc 	andi	r3,r8,7
 8407fac:	18000726 	beq	r3,zero,8407fcc <__divdf3+0x5c0>
 8407fb0:	40c003cc 	andi	r3,r8,15
 8407fb4:	01000104 	movi	r4,4
 8407fb8:	19000426 	beq	r3,r4,8407fcc <__divdf3+0x5c0>
 8407fbc:	4107883a 	add	r3,r8,r4
 8407fc0:	1a11803a 	cmpltu	r8,r3,r8
 8407fc4:	8a23883a 	add	r17,r17,r8
 8407fc8:	1811883a 	mov	r8,r3
 8407fcc:	88c0402c 	andhi	r3,r17,256
 8407fd0:	18000426 	beq	r3,zero,8407fe4 <__divdf3+0x5d8>
 8407fd4:	00ffc034 	movhi	r3,65280
 8407fd8:	18ffffc4 	addi	r3,r3,-1
 8407fdc:	a8810004 	addi	r2,r21,1024
 8407fe0:	88e2703a 	and	r17,r17,r3
 8407fe4:	00c1ff84 	movi	r3,2046
 8407fe8:	18bee316 	blt	r3,r2,8407b78 <__alt_data_end+0xfc407b78>
 8407fec:	8824977a 	slli	r18,r17,29
 8407ff0:	4010d0fa 	srli	r8,r8,3
 8407ff4:	8822927a 	slli	r17,r17,9
 8407ff8:	1081ffcc 	andi	r2,r2,2047
 8407ffc:	9224b03a 	or	r18,r18,r8
 8408000:	880ad33a 	srli	r5,r17,12
 8408004:	98c0004c 	andi	r3,r19,1
 8408008:	003edf06 	br	8407b88 <__alt_data_end+0xfc407b88>
 840800c:	8080022c 	andhi	r2,r16,8
 8408010:	10001226 	beq	r2,zero,840805c <__divdf3+0x650>
 8408014:	8880022c 	andhi	r2,r17,8
 8408018:	1000101e 	bne	r2,zero,840805c <__divdf3+0x650>
 840801c:	00800434 	movhi	r2,16
 8408020:	89400234 	orhi	r5,r17,8
 8408024:	10bfffc4 	addi	r2,r2,-1
 8408028:	b007883a 	mov	r3,r22
 840802c:	288a703a 	and	r5,r5,r2
 8408030:	4025883a 	mov	r18,r8
 8408034:	003f3106 	br	8407cfc <__alt_data_end+0xfc407cfc>
 8408038:	008000c4 	movi	r2,3
 840803c:	3880a626 	beq	r7,r2,84082d8 <__divdf3+0x8cc>
 8408040:	00800044 	movi	r2,1
 8408044:	3880521e 	bne	r7,r2,8408190 <__divdf3+0x784>
 8408048:	b807883a 	mov	r3,r23
 840804c:	0005883a 	mov	r2,zero
 8408050:	000b883a 	mov	r5,zero
 8408054:	0025883a 	mov	r18,zero
 8408058:	003ecb06 	br	8407b88 <__alt_data_end+0xfc407b88>
 840805c:	00800434 	movhi	r2,16
 8408060:	81400234 	orhi	r5,r16,8
 8408064:	10bfffc4 	addi	r2,r2,-1
 8408068:	a007883a 	mov	r3,r20
 840806c:	288a703a 	and	r5,r5,r2
 8408070:	003f2206 	br	8407cfc <__alt_data_end+0xfc407cfc>
 8408074:	183fca26 	beq	r3,zero,8407fa0 <__alt_data_end+0xfc407fa0>
 8408078:	e5ef883a 	add	r23,fp,r23
 840807c:	40bfffc4 	addi	r2,r8,-1
 8408080:	bf00392e 	bgeu	r23,fp,8408168 <__divdf3+0x75c>
 8408084:	1011883a 	mov	r8,r2
 8408088:	ba7fc41e 	bne	r23,r9,8407f9c <__alt_data_end+0xfc407f9c>
 840808c:	b0ffc31e 	bne	r22,r3,8407f9c <__alt_data_end+0xfc407f9c>
 8408090:	003fc306 	br	8407fa0 <__alt_data_end+0xfc407fa0>
 8408094:	143ff604 	addi	r16,r2,-40
 8408098:	9c20983a 	sll	r16,r19,r16
 840809c:	0025883a 	mov	r18,zero
 84080a0:	003ee206 	br	8407c2c <__alt_data_end+0xfc407c2c>
 84080a4:	d9800315 	stw	r6,12(sp)
 84080a8:	d9c00215 	stw	r7,8(sp)
 84080ac:	84096340 	call	8409634 <__clzsi2>
 84080b0:	10800804 	addi	r2,r2,32
 84080b4:	d9c00217 	ldw	r7,8(sp)
 84080b8:	d9800317 	ldw	r6,12(sp)
 84080bc:	003ed106 	br	8407c04 <__alt_data_end+0xfc407c04>
 84080c0:	147ff604 	addi	r17,r2,-40
 84080c4:	3462983a 	sll	r17,r6,r17
 84080c8:	0011883a 	mov	r8,zero
 84080cc:	003ef506 	br	8407ca4 <__alt_data_end+0xfc407ca4>
 84080d0:	3009883a 	mov	r4,r6
 84080d4:	d9800315 	stw	r6,12(sp)
 84080d8:	da400115 	stw	r9,4(sp)
 84080dc:	84096340 	call	8409634 <__clzsi2>
 84080e0:	10800804 	addi	r2,r2,32
 84080e4:	da400117 	ldw	r9,4(sp)
 84080e8:	d9800317 	ldw	r6,12(sp)
 84080ec:	003ee306 	br	8407c7c <__alt_data_end+0xfc407c7c>
 84080f0:	85a1883a 	add	r16,r16,r22
 84080f4:	8585803a 	cmpltu	r2,r16,r22
 84080f8:	1705883a 	add	r2,r2,fp
 84080fc:	14a5883a 	add	r18,r2,r18
 8408100:	88bfffc4 	addi	r2,r17,-1
 8408104:	e4800c2e 	bgeu	fp,r18,8408138 <__divdf3+0x72c>
 8408108:	90c03e36 	bltu	r18,r3,8408204 <__divdf3+0x7f8>
 840810c:	1c806926 	beq	r3,r18,84082b4 <__divdf3+0x8a8>
 8408110:	90c7c83a 	sub	r3,r18,r3
 8408114:	1023883a 	mov	r17,r2
 8408118:	003f5206 	br	8407e64 <__alt_data_end+0xfc407e64>
 840811c:	923f0436 	bltu	r18,r8,8407d30 <__alt_data_end+0xfc407d30>
 8408120:	800897fa 	slli	r4,r16,31
 8408124:	9004d07a 	srli	r2,r18,1
 8408128:	8006d07a 	srli	r3,r16,1
 840812c:	902097fa 	slli	r16,r18,31
 8408130:	20a4b03a 	or	r18,r4,r2
 8408134:	003f0106 	br	8407d3c <__alt_data_end+0xfc407d3c>
 8408138:	e4bff51e 	bne	fp,r18,8408110 <__alt_data_end+0xfc408110>
 840813c:	85bff22e 	bgeu	r16,r22,8408108 <__alt_data_end+0xfc408108>
 8408140:	e0c7c83a 	sub	r3,fp,r3
 8408144:	1023883a 	mov	r17,r2
 8408148:	003f4606 	br	8407e64 <__alt_data_end+0xfc407e64>
 840814c:	100f883a 	mov	r7,r2
 8408150:	003f2b06 	br	8407e00 <__alt_data_end+0xfc407e00>
 8408154:	180d883a 	mov	r6,r3
 8408158:	003f1306 	br	8407da8 <__alt_data_end+0xfc407da8>
 840815c:	813fe436 	bltu	r16,r4,84080f0 <__alt_data_end+0xfc4080f0>
 8408160:	0007883a 	mov	r3,zero
 8408164:	003f3f06 	br	8407e64 <__alt_data_end+0xfc407e64>
 8408168:	ba402c36 	bltu	r23,r9,840821c <__divdf3+0x810>
 840816c:	4dc05426 	beq	r9,r23,84082c0 <__divdf3+0x8b4>
 8408170:	1011883a 	mov	r8,r2
 8408174:	003f8906 	br	8407f9c <__alt_data_end+0xfc407f9c>
 8408178:	023fffc4 	movi	r8,-1
 840817c:	003f8806 	br	8407fa0 <__alt_data_end+0xfc407fa0>
 8408180:	1811883a 	mov	r8,r3
 8408184:	003f5406 	br	8407ed8 <__alt_data_end+0xfc407ed8>
 8408188:	1025883a 	mov	r18,r2
 840818c:	003f6d06 	br	8407f44 <__alt_data_end+0xfc407f44>
 8408190:	b827883a 	mov	r19,r23
 8408194:	003f8206 	br	8407fa0 <__alt_data_end+0xfc407fa0>
 8408198:	010007c4 	movi	r4,31
 840819c:	20c02616 	blt	r4,r3,8408238 <__divdf3+0x82c>
 84081a0:	00800804 	movi	r2,32
 84081a4:	10c5c83a 	sub	r2,r2,r3
 84081a8:	888a983a 	sll	r5,r17,r2
 84081ac:	40c8d83a 	srl	r4,r8,r3
 84081b0:	4084983a 	sll	r2,r8,r2
 84081b4:	88e2d83a 	srl	r17,r17,r3
 84081b8:	2906b03a 	or	r3,r5,r4
 84081bc:	1004c03a 	cmpne	r2,r2,zero
 84081c0:	1886b03a 	or	r3,r3,r2
 84081c4:	188001cc 	andi	r2,r3,7
 84081c8:	10000726 	beq	r2,zero,84081e8 <__divdf3+0x7dc>
 84081cc:	188003cc 	andi	r2,r3,15
 84081d0:	01000104 	movi	r4,4
 84081d4:	11000426 	beq	r2,r4,84081e8 <__divdf3+0x7dc>
 84081d8:	1805883a 	mov	r2,r3
 84081dc:	10c00104 	addi	r3,r2,4
 84081e0:	1885803a 	cmpltu	r2,r3,r2
 84081e4:	88a3883a 	add	r17,r17,r2
 84081e8:	8880202c 	andhi	r2,r17,128
 84081ec:	10002726 	beq	r2,zero,840828c <__divdf3+0x880>
 84081f0:	98c0004c 	andi	r3,r19,1
 84081f4:	00800044 	movi	r2,1
 84081f8:	000b883a 	mov	r5,zero
 84081fc:	0025883a 	mov	r18,zero
 8408200:	003e6106 	br	8407b88 <__alt_data_end+0xfc407b88>
 8408204:	85a1883a 	add	r16,r16,r22
 8408208:	8585803a 	cmpltu	r2,r16,r22
 840820c:	1705883a 	add	r2,r2,fp
 8408210:	14a5883a 	add	r18,r2,r18
 8408214:	8c7fff84 	addi	r17,r17,-2
 8408218:	003f1106 	br	8407e60 <__alt_data_end+0xfc407e60>
 840821c:	b589883a 	add	r4,r22,r22
 8408220:	25ad803a 	cmpltu	r22,r4,r22
 8408224:	b739883a 	add	fp,r22,fp
 8408228:	40bfff84 	addi	r2,r8,-2
 840822c:	bf2f883a 	add	r23,r23,fp
 8408230:	202d883a 	mov	r22,r4
 8408234:	003f9306 	br	8408084 <__alt_data_end+0xfc408084>
 8408238:	013ff844 	movi	r4,-31
 840823c:	2085c83a 	sub	r2,r4,r2
 8408240:	8888d83a 	srl	r4,r17,r2
 8408244:	00800804 	movi	r2,32
 8408248:	18802126 	beq	r3,r2,84082d0 <__divdf3+0x8c4>
 840824c:	00801004 	movi	r2,64
 8408250:	10c5c83a 	sub	r2,r2,r3
 8408254:	8884983a 	sll	r2,r17,r2
 8408258:	1204b03a 	or	r2,r2,r8
 840825c:	1004c03a 	cmpne	r2,r2,zero
 8408260:	2084b03a 	or	r2,r4,r2
 8408264:	144001cc 	andi	r17,r2,7
 8408268:	88000d1e 	bne	r17,zero,84082a0 <__divdf3+0x894>
 840826c:	000b883a 	mov	r5,zero
 8408270:	1024d0fa 	srli	r18,r2,3
 8408274:	98c0004c 	andi	r3,r19,1
 8408278:	0005883a 	mov	r2,zero
 840827c:	9464b03a 	or	r18,r18,r17
 8408280:	003e4106 	br	8407b88 <__alt_data_end+0xfc407b88>
 8408284:	1007883a 	mov	r3,r2
 8408288:	0023883a 	mov	r17,zero
 840828c:	880a927a 	slli	r5,r17,9
 8408290:	1805883a 	mov	r2,r3
 8408294:	8822977a 	slli	r17,r17,29
 8408298:	280ad33a 	srli	r5,r5,12
 840829c:	003ff406 	br	8408270 <__alt_data_end+0xfc408270>
 84082a0:	10c003cc 	andi	r3,r2,15
 84082a4:	01000104 	movi	r4,4
 84082a8:	193ff626 	beq	r3,r4,8408284 <__alt_data_end+0xfc408284>
 84082ac:	0023883a 	mov	r17,zero
 84082b0:	003fca06 	br	84081dc <__alt_data_end+0xfc4081dc>
 84082b4:	813fd336 	bltu	r16,r4,8408204 <__alt_data_end+0xfc408204>
 84082b8:	1023883a 	mov	r17,r2
 84082bc:	003fa806 	br	8408160 <__alt_data_end+0xfc408160>
 84082c0:	b0ffd636 	bltu	r22,r3,840821c <__alt_data_end+0xfc40821c>
 84082c4:	1011883a 	mov	r8,r2
 84082c8:	b0ff341e 	bne	r22,r3,8407f9c <__alt_data_end+0xfc407f9c>
 84082cc:	003f3406 	br	8407fa0 <__alt_data_end+0xfc407fa0>
 84082d0:	0005883a 	mov	r2,zero
 84082d4:	003fe006 	br	8408258 <__alt_data_end+0xfc408258>
 84082d8:	00800434 	movhi	r2,16
 84082dc:	89400234 	orhi	r5,r17,8
 84082e0:	10bfffc4 	addi	r2,r2,-1
 84082e4:	b807883a 	mov	r3,r23
 84082e8:	288a703a 	and	r5,r5,r2
 84082ec:	4025883a 	mov	r18,r8
 84082f0:	003e8206 	br	8407cfc <__alt_data_end+0xfc407cfc>

084082f4 <__gedf2>:
 84082f4:	2804d53a 	srli	r2,r5,20
 84082f8:	3806d53a 	srli	r3,r7,20
 84082fc:	02000434 	movhi	r8,16
 8408300:	423fffc4 	addi	r8,r8,-1
 8408304:	1081ffcc 	andi	r2,r2,2047
 8408308:	0241ffc4 	movi	r9,2047
 840830c:	2a14703a 	and	r10,r5,r8
 8408310:	18c1ffcc 	andi	r3,r3,2047
 8408314:	3a10703a 	and	r8,r7,r8
 8408318:	280ad7fa 	srli	r5,r5,31
 840831c:	380ed7fa 	srli	r7,r7,31
 8408320:	12401d26 	beq	r2,r9,8408398 <__gedf2+0xa4>
 8408324:	0241ffc4 	movi	r9,2047
 8408328:	1a401226 	beq	r3,r9,8408374 <__gedf2+0x80>
 840832c:	1000081e 	bne	r2,zero,8408350 <__gedf2+0x5c>
 8408330:	2296b03a 	or	r11,r4,r10
 8408334:	5813003a 	cmpeq	r9,r11,zero
 8408338:	1800091e 	bne	r3,zero,8408360 <__gedf2+0x6c>
 840833c:	3218b03a 	or	r12,r6,r8
 8408340:	6000071e 	bne	r12,zero,8408360 <__gedf2+0x6c>
 8408344:	0005883a 	mov	r2,zero
 8408348:	5800101e 	bne	r11,zero,840838c <__gedf2+0x98>
 840834c:	f800283a 	ret
 8408350:	18000c1e 	bne	r3,zero,8408384 <__gedf2+0x90>
 8408354:	3212b03a 	or	r9,r6,r8
 8408358:	48000c26 	beq	r9,zero,840838c <__gedf2+0x98>
 840835c:	0013883a 	mov	r9,zero
 8408360:	39c03fcc 	andi	r7,r7,255
 8408364:	48000826 	beq	r9,zero,8408388 <__gedf2+0x94>
 8408368:	38000926 	beq	r7,zero,8408390 <__gedf2+0x9c>
 840836c:	00800044 	movi	r2,1
 8408370:	f800283a 	ret
 8408374:	3212b03a 	or	r9,r6,r8
 8408378:	483fec26 	beq	r9,zero,840832c <__alt_data_end+0xfc40832c>
 840837c:	00bfff84 	movi	r2,-2
 8408380:	f800283a 	ret
 8408384:	39c03fcc 	andi	r7,r7,255
 8408388:	29c00626 	beq	r5,r7,84083a4 <__gedf2+0xb0>
 840838c:	283ff726 	beq	r5,zero,840836c <__alt_data_end+0xfc40836c>
 8408390:	00bfffc4 	movi	r2,-1
 8408394:	f800283a 	ret
 8408398:	2292b03a 	or	r9,r4,r10
 840839c:	483fe126 	beq	r9,zero,8408324 <__alt_data_end+0xfc408324>
 84083a0:	003ff606 	br	840837c <__alt_data_end+0xfc40837c>
 84083a4:	18bff916 	blt	r3,r2,840838c <__alt_data_end+0xfc40838c>
 84083a8:	10c00316 	blt	r2,r3,84083b8 <__gedf2+0xc4>
 84083ac:	42bff736 	bltu	r8,r10,840838c <__alt_data_end+0xfc40838c>
 84083b0:	52000326 	beq	r10,r8,84083c0 <__gedf2+0xcc>
 84083b4:	5200042e 	bgeu	r10,r8,84083c8 <__gedf2+0xd4>
 84083b8:	283fec1e 	bne	r5,zero,840836c <__alt_data_end+0xfc40836c>
 84083bc:	003ff406 	br	8408390 <__alt_data_end+0xfc408390>
 84083c0:	313ff236 	bltu	r6,r4,840838c <__alt_data_end+0xfc40838c>
 84083c4:	21bffc36 	bltu	r4,r6,84083b8 <__alt_data_end+0xfc4083b8>
 84083c8:	0005883a 	mov	r2,zero
 84083cc:	f800283a 	ret

084083d0 <__ledf2>:
 84083d0:	2804d53a 	srli	r2,r5,20
 84083d4:	3810d53a 	srli	r8,r7,20
 84083d8:	00c00434 	movhi	r3,16
 84083dc:	18ffffc4 	addi	r3,r3,-1
 84083e0:	1081ffcc 	andi	r2,r2,2047
 84083e4:	0241ffc4 	movi	r9,2047
 84083e8:	28d4703a 	and	r10,r5,r3
 84083ec:	4201ffcc 	andi	r8,r8,2047
 84083f0:	38c6703a 	and	r3,r7,r3
 84083f4:	280ad7fa 	srli	r5,r5,31
 84083f8:	380ed7fa 	srli	r7,r7,31
 84083fc:	12401f26 	beq	r2,r9,840847c <__ledf2+0xac>
 8408400:	0241ffc4 	movi	r9,2047
 8408404:	42401426 	beq	r8,r9,8408458 <__ledf2+0x88>
 8408408:	1000091e 	bne	r2,zero,8408430 <__ledf2+0x60>
 840840c:	2296b03a 	or	r11,r4,r10
 8408410:	5813003a 	cmpeq	r9,r11,zero
 8408414:	29403fcc 	andi	r5,r5,255
 8408418:	40000a1e 	bne	r8,zero,8408444 <__ledf2+0x74>
 840841c:	30d8b03a 	or	r12,r6,r3
 8408420:	6000081e 	bne	r12,zero,8408444 <__ledf2+0x74>
 8408424:	0005883a 	mov	r2,zero
 8408428:	5800111e 	bne	r11,zero,8408470 <__ledf2+0xa0>
 840842c:	f800283a 	ret
 8408430:	29403fcc 	andi	r5,r5,255
 8408434:	40000c1e 	bne	r8,zero,8408468 <__ledf2+0x98>
 8408438:	30d2b03a 	or	r9,r6,r3
 840843c:	48000c26 	beq	r9,zero,8408470 <__ledf2+0xa0>
 8408440:	0013883a 	mov	r9,zero
 8408444:	39c03fcc 	andi	r7,r7,255
 8408448:	48000826 	beq	r9,zero,840846c <__ledf2+0x9c>
 840844c:	38001126 	beq	r7,zero,8408494 <__ledf2+0xc4>
 8408450:	00800044 	movi	r2,1
 8408454:	f800283a 	ret
 8408458:	30d2b03a 	or	r9,r6,r3
 840845c:	483fea26 	beq	r9,zero,8408408 <__alt_data_end+0xfc408408>
 8408460:	00800084 	movi	r2,2
 8408464:	f800283a 	ret
 8408468:	39c03fcc 	andi	r7,r7,255
 840846c:	39400726 	beq	r7,r5,840848c <__ledf2+0xbc>
 8408470:	2800081e 	bne	r5,zero,8408494 <__ledf2+0xc4>
 8408474:	00800044 	movi	r2,1
 8408478:	f800283a 	ret
 840847c:	2292b03a 	or	r9,r4,r10
 8408480:	483fdf26 	beq	r9,zero,8408400 <__alt_data_end+0xfc408400>
 8408484:	00800084 	movi	r2,2
 8408488:	f800283a 	ret
 840848c:	4080030e 	bge	r8,r2,840849c <__ledf2+0xcc>
 8408490:	383fef26 	beq	r7,zero,8408450 <__alt_data_end+0xfc408450>
 8408494:	00bfffc4 	movi	r2,-1
 8408498:	f800283a 	ret
 840849c:	123feb16 	blt	r2,r8,840844c <__alt_data_end+0xfc40844c>
 84084a0:	1abff336 	bltu	r3,r10,8408470 <__alt_data_end+0xfc408470>
 84084a4:	50c00326 	beq	r10,r3,84084b4 <__ledf2+0xe4>
 84084a8:	50c0042e 	bgeu	r10,r3,84084bc <__ledf2+0xec>
 84084ac:	283fe81e 	bne	r5,zero,8408450 <__alt_data_end+0xfc408450>
 84084b0:	003ff806 	br	8408494 <__alt_data_end+0xfc408494>
 84084b4:	313fee36 	bltu	r6,r4,8408470 <__alt_data_end+0xfc408470>
 84084b8:	21bffc36 	bltu	r4,r6,84084ac <__alt_data_end+0xfc4084ac>
 84084bc:	0005883a 	mov	r2,zero
 84084c0:	f800283a 	ret

084084c4 <__muldf3>:
 84084c4:	defff304 	addi	sp,sp,-52
 84084c8:	2804d53a 	srli	r2,r5,20
 84084cc:	dd800915 	stw	r22,36(sp)
 84084d0:	282cd7fa 	srli	r22,r5,31
 84084d4:	dc000315 	stw	r16,12(sp)
 84084d8:	04000434 	movhi	r16,16
 84084dc:	dd400815 	stw	r21,32(sp)
 84084e0:	dc800515 	stw	r18,20(sp)
 84084e4:	843fffc4 	addi	r16,r16,-1
 84084e8:	dfc00c15 	stw	ra,48(sp)
 84084ec:	df000b15 	stw	fp,44(sp)
 84084f0:	ddc00a15 	stw	r23,40(sp)
 84084f4:	dd000715 	stw	r20,28(sp)
 84084f8:	dcc00615 	stw	r19,24(sp)
 84084fc:	dc400415 	stw	r17,16(sp)
 8408500:	1481ffcc 	andi	r18,r2,2047
 8408504:	2c20703a 	and	r16,r5,r16
 8408508:	b02b883a 	mov	r21,r22
 840850c:	b2403fcc 	andi	r9,r22,255
 8408510:	90006026 	beq	r18,zero,8408694 <__muldf3+0x1d0>
 8408514:	0081ffc4 	movi	r2,2047
 8408518:	2029883a 	mov	r20,r4
 840851c:	90803626 	beq	r18,r2,84085f8 <__muldf3+0x134>
 8408520:	80800434 	orhi	r2,r16,16
 8408524:	100490fa 	slli	r2,r2,3
 8408528:	2020d77a 	srli	r16,r4,29
 840852c:	202890fa 	slli	r20,r4,3
 8408530:	94bf0044 	addi	r18,r18,-1023
 8408534:	80a0b03a 	or	r16,r16,r2
 8408538:	0027883a 	mov	r19,zero
 840853c:	0039883a 	mov	fp,zero
 8408540:	3804d53a 	srli	r2,r7,20
 8408544:	382ed7fa 	srli	r23,r7,31
 8408548:	04400434 	movhi	r17,16
 840854c:	8c7fffc4 	addi	r17,r17,-1
 8408550:	1081ffcc 	andi	r2,r2,2047
 8408554:	3011883a 	mov	r8,r6
 8408558:	3c62703a 	and	r17,r7,r17
 840855c:	ba803fcc 	andi	r10,r23,255
 8408560:	10006d26 	beq	r2,zero,8408718 <__muldf3+0x254>
 8408564:	00c1ffc4 	movi	r3,2047
 8408568:	10c06526 	beq	r2,r3,8408700 <__muldf3+0x23c>
 840856c:	88c00434 	orhi	r3,r17,16
 8408570:	180690fa 	slli	r3,r3,3
 8408574:	3022d77a 	srli	r17,r6,29
 8408578:	301090fa 	slli	r8,r6,3
 840857c:	10bf0044 	addi	r2,r2,-1023
 8408580:	88e2b03a 	or	r17,r17,r3
 8408584:	000b883a 	mov	r5,zero
 8408588:	9085883a 	add	r2,r18,r2
 840858c:	2cc8b03a 	or	r4,r5,r19
 8408590:	00c003c4 	movi	r3,15
 8408594:	bdacf03a 	xor	r22,r23,r22
 8408598:	12c00044 	addi	r11,r2,1
 840859c:	19009936 	bltu	r3,r4,8408804 <__muldf3+0x340>
 84085a0:	200890ba 	slli	r4,r4,2
 84085a4:	00c21074 	movhi	r3,2113
 84085a8:	18e16e04 	addi	r3,r3,-31304
 84085ac:	20c9883a 	add	r4,r4,r3
 84085b0:	20c00017 	ldw	r3,0(r4)
 84085b4:	1800683a 	jmp	r3
 84085b8:	08408804 	addi	at,at,544
 84085bc:	08408618 	cmpnei	at,at,536
 84085c0:	08408618 	cmpnei	at,at,536
 84085c4:	08408614 	ori	at,at,536
 84085c8:	084087e0 	cmpeqi	at,at,543
 84085cc:	084087e0 	cmpeqi	at,at,543
 84085d0:	084087c8 	cmpgei	at,at,543
 84085d4:	08408614 	ori	at,at,536
 84085d8:	084087e0 	cmpeqi	at,at,543
 84085dc:	084087c8 	cmpgei	at,at,543
 84085e0:	084087e0 	cmpeqi	at,at,543
 84085e4:	08408614 	ori	at,at,536
 84085e8:	084087f0 	cmpltui	at,at,543
 84085ec:	084087f0 	cmpltui	at,at,543
 84085f0:	084087f0 	cmpltui	at,at,543
 84085f4:	08408a0c 	andi	at,at,552
 84085f8:	2404b03a 	or	r2,r4,r16
 84085fc:	10006f1e 	bne	r2,zero,84087bc <__muldf3+0x2f8>
 8408600:	04c00204 	movi	r19,8
 8408604:	0021883a 	mov	r16,zero
 8408608:	0029883a 	mov	r20,zero
 840860c:	07000084 	movi	fp,2
 8408610:	003fcb06 	br	8408540 <__alt_data_end+0xfc408540>
 8408614:	502d883a 	mov	r22,r10
 8408618:	00800084 	movi	r2,2
 840861c:	28805726 	beq	r5,r2,840877c <__muldf3+0x2b8>
 8408620:	008000c4 	movi	r2,3
 8408624:	28816626 	beq	r5,r2,8408bc0 <__muldf3+0x6fc>
 8408628:	00800044 	movi	r2,1
 840862c:	2881411e 	bne	r5,r2,8408b34 <__muldf3+0x670>
 8408630:	b02b883a 	mov	r21,r22
 8408634:	0005883a 	mov	r2,zero
 8408638:	000b883a 	mov	r5,zero
 840863c:	0029883a 	mov	r20,zero
 8408640:	1004953a 	slli	r2,r2,20
 8408644:	a8c03fcc 	andi	r3,r21,255
 8408648:	04400434 	movhi	r17,16
 840864c:	8c7fffc4 	addi	r17,r17,-1
 8408650:	180697fa 	slli	r3,r3,31
 8408654:	2c4a703a 	and	r5,r5,r17
 8408658:	288ab03a 	or	r5,r5,r2
 840865c:	28c6b03a 	or	r3,r5,r3
 8408660:	a005883a 	mov	r2,r20
 8408664:	dfc00c17 	ldw	ra,48(sp)
 8408668:	df000b17 	ldw	fp,44(sp)
 840866c:	ddc00a17 	ldw	r23,40(sp)
 8408670:	dd800917 	ldw	r22,36(sp)
 8408674:	dd400817 	ldw	r21,32(sp)
 8408678:	dd000717 	ldw	r20,28(sp)
 840867c:	dcc00617 	ldw	r19,24(sp)
 8408680:	dc800517 	ldw	r18,20(sp)
 8408684:	dc400417 	ldw	r17,16(sp)
 8408688:	dc000317 	ldw	r16,12(sp)
 840868c:	dec00d04 	addi	sp,sp,52
 8408690:	f800283a 	ret
 8408694:	2404b03a 	or	r2,r4,r16
 8408698:	2027883a 	mov	r19,r4
 840869c:	10004226 	beq	r2,zero,84087a8 <__muldf3+0x2e4>
 84086a0:	8000fc26 	beq	r16,zero,8408a94 <__muldf3+0x5d0>
 84086a4:	8009883a 	mov	r4,r16
 84086a8:	d9800215 	stw	r6,8(sp)
 84086ac:	d9c00015 	stw	r7,0(sp)
 84086b0:	da400115 	stw	r9,4(sp)
 84086b4:	84096340 	call	8409634 <__clzsi2>
 84086b8:	d9800217 	ldw	r6,8(sp)
 84086bc:	d9c00017 	ldw	r7,0(sp)
 84086c0:	da400117 	ldw	r9,4(sp)
 84086c4:	113ffd44 	addi	r4,r2,-11
 84086c8:	00c00704 	movi	r3,28
 84086cc:	1900ed16 	blt	r3,r4,8408a84 <__muldf3+0x5c0>
 84086d0:	00c00744 	movi	r3,29
 84086d4:	147ffe04 	addi	r17,r2,-8
 84086d8:	1907c83a 	sub	r3,r3,r4
 84086dc:	8460983a 	sll	r16,r16,r17
 84086e0:	98c6d83a 	srl	r3,r19,r3
 84086e4:	9c68983a 	sll	r20,r19,r17
 84086e8:	1c20b03a 	or	r16,r3,r16
 84086ec:	1080fcc4 	addi	r2,r2,1011
 84086f0:	00a5c83a 	sub	r18,zero,r2
 84086f4:	0027883a 	mov	r19,zero
 84086f8:	0039883a 	mov	fp,zero
 84086fc:	003f9006 	br	8408540 <__alt_data_end+0xfc408540>
 8408700:	3446b03a 	or	r3,r6,r17
 8408704:	1800261e 	bne	r3,zero,84087a0 <__muldf3+0x2dc>
 8408708:	0023883a 	mov	r17,zero
 840870c:	0011883a 	mov	r8,zero
 8408710:	01400084 	movi	r5,2
 8408714:	003f9c06 	br	8408588 <__alt_data_end+0xfc408588>
 8408718:	3446b03a 	or	r3,r6,r17
 840871c:	18001c26 	beq	r3,zero,8408790 <__muldf3+0x2cc>
 8408720:	8800ce26 	beq	r17,zero,8408a5c <__muldf3+0x598>
 8408724:	8809883a 	mov	r4,r17
 8408728:	d9800215 	stw	r6,8(sp)
 840872c:	da400115 	stw	r9,4(sp)
 8408730:	da800015 	stw	r10,0(sp)
 8408734:	84096340 	call	8409634 <__clzsi2>
 8408738:	d9800217 	ldw	r6,8(sp)
 840873c:	da400117 	ldw	r9,4(sp)
 8408740:	da800017 	ldw	r10,0(sp)
 8408744:	113ffd44 	addi	r4,r2,-11
 8408748:	00c00704 	movi	r3,28
 840874c:	1900bf16 	blt	r3,r4,8408a4c <__muldf3+0x588>
 8408750:	00c00744 	movi	r3,29
 8408754:	123ffe04 	addi	r8,r2,-8
 8408758:	1907c83a 	sub	r3,r3,r4
 840875c:	8a22983a 	sll	r17,r17,r8
 8408760:	30c6d83a 	srl	r3,r6,r3
 8408764:	3210983a 	sll	r8,r6,r8
 8408768:	1c62b03a 	or	r17,r3,r17
 840876c:	1080fcc4 	addi	r2,r2,1011
 8408770:	0085c83a 	sub	r2,zero,r2
 8408774:	000b883a 	mov	r5,zero
 8408778:	003f8306 	br	8408588 <__alt_data_end+0xfc408588>
 840877c:	b02b883a 	mov	r21,r22
 8408780:	0081ffc4 	movi	r2,2047
 8408784:	000b883a 	mov	r5,zero
 8408788:	0029883a 	mov	r20,zero
 840878c:	003fac06 	br	8408640 <__alt_data_end+0xfc408640>
 8408790:	0023883a 	mov	r17,zero
 8408794:	0011883a 	mov	r8,zero
 8408798:	01400044 	movi	r5,1
 840879c:	003f7a06 	br	8408588 <__alt_data_end+0xfc408588>
 84087a0:	014000c4 	movi	r5,3
 84087a4:	003f7806 	br	8408588 <__alt_data_end+0xfc408588>
 84087a8:	04c00104 	movi	r19,4
 84087ac:	0021883a 	mov	r16,zero
 84087b0:	0029883a 	mov	r20,zero
 84087b4:	07000044 	movi	fp,1
 84087b8:	003f6106 	br	8408540 <__alt_data_end+0xfc408540>
 84087bc:	04c00304 	movi	r19,12
 84087c0:	070000c4 	movi	fp,3
 84087c4:	003f5e06 	br	8408540 <__alt_data_end+0xfc408540>
 84087c8:	01400434 	movhi	r5,16
 84087cc:	002b883a 	mov	r21,zero
 84087d0:	297fffc4 	addi	r5,r5,-1
 84087d4:	053fffc4 	movi	r20,-1
 84087d8:	0081ffc4 	movi	r2,2047
 84087dc:	003f9806 	br	8408640 <__alt_data_end+0xfc408640>
 84087e0:	8023883a 	mov	r17,r16
 84087e4:	a011883a 	mov	r8,r20
 84087e8:	e00b883a 	mov	r5,fp
 84087ec:	003f8a06 	br	8408618 <__alt_data_end+0xfc408618>
 84087f0:	8023883a 	mov	r17,r16
 84087f4:	a011883a 	mov	r8,r20
 84087f8:	482d883a 	mov	r22,r9
 84087fc:	e00b883a 	mov	r5,fp
 8408800:	003f8506 	br	8408618 <__alt_data_end+0xfc408618>
 8408804:	a00ad43a 	srli	r5,r20,16
 8408808:	401ad43a 	srli	r13,r8,16
 840880c:	a53fffcc 	andi	r20,r20,65535
 8408810:	423fffcc 	andi	r8,r8,65535
 8408814:	4519383a 	mul	r12,r8,r20
 8408818:	4147383a 	mul	r3,r8,r5
 840881c:	6d09383a 	mul	r4,r13,r20
 8408820:	600cd43a 	srli	r6,r12,16
 8408824:	2b5d383a 	mul	r14,r5,r13
 8408828:	20c9883a 	add	r4,r4,r3
 840882c:	310d883a 	add	r6,r6,r4
 8408830:	30c0022e 	bgeu	r6,r3,840883c <__muldf3+0x378>
 8408834:	00c00074 	movhi	r3,1
 8408838:	70dd883a 	add	r14,r14,r3
 840883c:	8826d43a 	srli	r19,r17,16
 8408840:	8bffffcc 	andi	r15,r17,65535
 8408844:	7d23383a 	mul	r17,r15,r20
 8408848:	7949383a 	mul	r4,r15,r5
 840884c:	9d29383a 	mul	r20,r19,r20
 8408850:	8814d43a 	srli	r10,r17,16
 8408854:	3012943a 	slli	r9,r6,16
 8408858:	a129883a 	add	r20,r20,r4
 840885c:	633fffcc 	andi	r12,r12,65535
 8408860:	5515883a 	add	r10,r10,r20
 8408864:	3006d43a 	srli	r3,r6,16
 8408868:	4b13883a 	add	r9,r9,r12
 840886c:	2ccb383a 	mul	r5,r5,r19
 8408870:	5100022e 	bgeu	r10,r4,840887c <__muldf3+0x3b8>
 8408874:	01000074 	movhi	r4,1
 8408878:	290b883a 	add	r5,r5,r4
 840887c:	802ad43a 	srli	r21,r16,16
 8408880:	843fffcc 	andi	r16,r16,65535
 8408884:	440d383a 	mul	r6,r8,r16
 8408888:	4565383a 	mul	r18,r8,r21
 840888c:	8349383a 	mul	r4,r16,r13
 8408890:	500e943a 	slli	r7,r10,16
 8408894:	3010d43a 	srli	r8,r6,16
 8408898:	5028d43a 	srli	r20,r10,16
 840889c:	2489883a 	add	r4,r4,r18
 84088a0:	8abfffcc 	andi	r10,r17,65535
 84088a4:	3a95883a 	add	r10,r7,r10
 84088a8:	4119883a 	add	r12,r8,r4
 84088ac:	a169883a 	add	r20,r20,r5
 84088b0:	1a87883a 	add	r3,r3,r10
 84088b4:	6d5b383a 	mul	r13,r13,r21
 84088b8:	6480022e 	bgeu	r12,r18,84088c4 <__muldf3+0x400>
 84088bc:	01000074 	movhi	r4,1
 84088c0:	691b883a 	add	r13,r13,r4
 84088c4:	7c25383a 	mul	r18,r15,r16
 84088c8:	7d4b383a 	mul	r5,r15,r21
 84088cc:	84cf383a 	mul	r7,r16,r19
 84088d0:	901ed43a 	srli	r15,r18,16
 84088d4:	6008d43a 	srli	r4,r12,16
 84088d8:	6010943a 	slli	r8,r12,16
 84088dc:	394f883a 	add	r7,r7,r5
 84088e0:	333fffcc 	andi	r12,r6,65535
 84088e4:	79df883a 	add	r15,r15,r7
 84088e8:	235b883a 	add	r13,r4,r13
 84088ec:	9d63383a 	mul	r17,r19,r21
 84088f0:	4309883a 	add	r4,r8,r12
 84088f4:	7940022e 	bgeu	r15,r5,8408900 <__muldf3+0x43c>
 84088f8:	01400074 	movhi	r5,1
 84088fc:	8963883a 	add	r17,r17,r5
 8408900:	780a943a 	slli	r5,r15,16
 8408904:	91bfffcc 	andi	r6,r18,65535
 8408908:	70c7883a 	add	r3,r14,r3
 840890c:	298d883a 	add	r6,r5,r6
 8408910:	1a8f803a 	cmpltu	r7,r3,r10
 8408914:	350b883a 	add	r5,r6,r20
 8408918:	20c7883a 	add	r3,r4,r3
 840891c:	3955883a 	add	r10,r7,r5
 8408920:	1909803a 	cmpltu	r4,r3,r4
 8408924:	6a91883a 	add	r8,r13,r10
 8408928:	780cd43a 	srli	r6,r15,16
 840892c:	2219883a 	add	r12,r4,r8
 8408930:	2d0b803a 	cmpltu	r5,r5,r20
 8408934:	51cf803a 	cmpltu	r7,r10,r7
 8408938:	29ceb03a 	or	r7,r5,r7
 840893c:	4351803a 	cmpltu	r8,r8,r13
 8408940:	610b803a 	cmpltu	r5,r12,r4
 8408944:	4148b03a 	or	r4,r8,r5
 8408948:	398f883a 	add	r7,r7,r6
 840894c:	3909883a 	add	r4,r7,r4
 8408950:	1810927a 	slli	r8,r3,9
 8408954:	2449883a 	add	r4,r4,r17
 8408958:	2008927a 	slli	r4,r4,9
 840895c:	6022d5fa 	srli	r17,r12,23
 8408960:	1806d5fa 	srli	r3,r3,23
 8408964:	4252b03a 	or	r9,r8,r9
 8408968:	600a927a 	slli	r5,r12,9
 840896c:	4810c03a 	cmpne	r8,r9,zero
 8408970:	2462b03a 	or	r17,r4,r17
 8408974:	40c6b03a 	or	r3,r8,r3
 8408978:	8900402c 	andhi	r4,r17,256
 840897c:	1950b03a 	or	r8,r3,r5
 8408980:	20000726 	beq	r4,zero,84089a0 <__muldf3+0x4dc>
 8408984:	4006d07a 	srli	r3,r8,1
 8408988:	880497fa 	slli	r2,r17,31
 840898c:	4200004c 	andi	r8,r8,1
 8408990:	8822d07a 	srli	r17,r17,1
 8408994:	1a10b03a 	or	r8,r3,r8
 8408998:	1210b03a 	or	r8,r2,r8
 840899c:	5805883a 	mov	r2,r11
 84089a0:	1140ffc4 	addi	r5,r2,1023
 84089a4:	0140440e 	bge	zero,r5,8408ab8 <__muldf3+0x5f4>
 84089a8:	40c001cc 	andi	r3,r8,7
 84089ac:	18000726 	beq	r3,zero,84089cc <__muldf3+0x508>
 84089b0:	40c003cc 	andi	r3,r8,15
 84089b4:	01000104 	movi	r4,4
 84089b8:	19000426 	beq	r3,r4,84089cc <__muldf3+0x508>
 84089bc:	4107883a 	add	r3,r8,r4
 84089c0:	1a11803a 	cmpltu	r8,r3,r8
 84089c4:	8a23883a 	add	r17,r17,r8
 84089c8:	1811883a 	mov	r8,r3
 84089cc:	88c0402c 	andhi	r3,r17,256
 84089d0:	18000426 	beq	r3,zero,84089e4 <__muldf3+0x520>
 84089d4:	11410004 	addi	r5,r2,1024
 84089d8:	00bfc034 	movhi	r2,65280
 84089dc:	10bfffc4 	addi	r2,r2,-1
 84089e0:	88a2703a 	and	r17,r17,r2
 84089e4:	0081ff84 	movi	r2,2046
 84089e8:	117f6416 	blt	r2,r5,840877c <__alt_data_end+0xfc40877c>
 84089ec:	8828977a 	slli	r20,r17,29
 84089f0:	4010d0fa 	srli	r8,r8,3
 84089f4:	8822927a 	slli	r17,r17,9
 84089f8:	2881ffcc 	andi	r2,r5,2047
 84089fc:	a228b03a 	or	r20,r20,r8
 8408a00:	880ad33a 	srli	r5,r17,12
 8408a04:	b02b883a 	mov	r21,r22
 8408a08:	003f0d06 	br	8408640 <__alt_data_end+0xfc408640>
 8408a0c:	8080022c 	andhi	r2,r16,8
 8408a10:	10000926 	beq	r2,zero,8408a38 <__muldf3+0x574>
 8408a14:	8880022c 	andhi	r2,r17,8
 8408a18:	1000071e 	bne	r2,zero,8408a38 <__muldf3+0x574>
 8408a1c:	00800434 	movhi	r2,16
 8408a20:	89400234 	orhi	r5,r17,8
 8408a24:	10bfffc4 	addi	r2,r2,-1
 8408a28:	b82b883a 	mov	r21,r23
 8408a2c:	288a703a 	and	r5,r5,r2
 8408a30:	4029883a 	mov	r20,r8
 8408a34:	003f6806 	br	84087d8 <__alt_data_end+0xfc4087d8>
 8408a38:	00800434 	movhi	r2,16
 8408a3c:	81400234 	orhi	r5,r16,8
 8408a40:	10bfffc4 	addi	r2,r2,-1
 8408a44:	288a703a 	and	r5,r5,r2
 8408a48:	003f6306 	br	84087d8 <__alt_data_end+0xfc4087d8>
 8408a4c:	147ff604 	addi	r17,r2,-40
 8408a50:	3462983a 	sll	r17,r6,r17
 8408a54:	0011883a 	mov	r8,zero
 8408a58:	003f4406 	br	840876c <__alt_data_end+0xfc40876c>
 8408a5c:	3009883a 	mov	r4,r6
 8408a60:	d9800215 	stw	r6,8(sp)
 8408a64:	da400115 	stw	r9,4(sp)
 8408a68:	da800015 	stw	r10,0(sp)
 8408a6c:	84096340 	call	8409634 <__clzsi2>
 8408a70:	10800804 	addi	r2,r2,32
 8408a74:	da800017 	ldw	r10,0(sp)
 8408a78:	da400117 	ldw	r9,4(sp)
 8408a7c:	d9800217 	ldw	r6,8(sp)
 8408a80:	003f3006 	br	8408744 <__alt_data_end+0xfc408744>
 8408a84:	143ff604 	addi	r16,r2,-40
 8408a88:	9c20983a 	sll	r16,r19,r16
 8408a8c:	0029883a 	mov	r20,zero
 8408a90:	003f1606 	br	84086ec <__alt_data_end+0xfc4086ec>
 8408a94:	d9800215 	stw	r6,8(sp)
 8408a98:	d9c00015 	stw	r7,0(sp)
 8408a9c:	da400115 	stw	r9,4(sp)
 8408aa0:	84096340 	call	8409634 <__clzsi2>
 8408aa4:	10800804 	addi	r2,r2,32
 8408aa8:	da400117 	ldw	r9,4(sp)
 8408aac:	d9c00017 	ldw	r7,0(sp)
 8408ab0:	d9800217 	ldw	r6,8(sp)
 8408ab4:	003f0306 	br	84086c4 <__alt_data_end+0xfc4086c4>
 8408ab8:	00c00044 	movi	r3,1
 8408abc:	1947c83a 	sub	r3,r3,r5
 8408ac0:	00800e04 	movi	r2,56
 8408ac4:	10feda16 	blt	r2,r3,8408630 <__alt_data_end+0xfc408630>
 8408ac8:	008007c4 	movi	r2,31
 8408acc:	10c01b16 	blt	r2,r3,8408b3c <__muldf3+0x678>
 8408ad0:	00800804 	movi	r2,32
 8408ad4:	10c5c83a 	sub	r2,r2,r3
 8408ad8:	888a983a 	sll	r5,r17,r2
 8408adc:	40c8d83a 	srl	r4,r8,r3
 8408ae0:	4084983a 	sll	r2,r8,r2
 8408ae4:	88e2d83a 	srl	r17,r17,r3
 8408ae8:	2906b03a 	or	r3,r5,r4
 8408aec:	1004c03a 	cmpne	r2,r2,zero
 8408af0:	1886b03a 	or	r3,r3,r2
 8408af4:	188001cc 	andi	r2,r3,7
 8408af8:	10000726 	beq	r2,zero,8408b18 <__muldf3+0x654>
 8408afc:	188003cc 	andi	r2,r3,15
 8408b00:	01000104 	movi	r4,4
 8408b04:	11000426 	beq	r2,r4,8408b18 <__muldf3+0x654>
 8408b08:	1805883a 	mov	r2,r3
 8408b0c:	10c00104 	addi	r3,r2,4
 8408b10:	1885803a 	cmpltu	r2,r3,r2
 8408b14:	88a3883a 	add	r17,r17,r2
 8408b18:	8880202c 	andhi	r2,r17,128
 8408b1c:	10001c26 	beq	r2,zero,8408b90 <__muldf3+0x6cc>
 8408b20:	b02b883a 	mov	r21,r22
 8408b24:	00800044 	movi	r2,1
 8408b28:	000b883a 	mov	r5,zero
 8408b2c:	0029883a 	mov	r20,zero
 8408b30:	003ec306 	br	8408640 <__alt_data_end+0xfc408640>
 8408b34:	5805883a 	mov	r2,r11
 8408b38:	003f9906 	br	84089a0 <__alt_data_end+0xfc4089a0>
 8408b3c:	00bff844 	movi	r2,-31
 8408b40:	1145c83a 	sub	r2,r2,r5
 8408b44:	8888d83a 	srl	r4,r17,r2
 8408b48:	00800804 	movi	r2,32
 8408b4c:	18801a26 	beq	r3,r2,8408bb8 <__muldf3+0x6f4>
 8408b50:	00801004 	movi	r2,64
 8408b54:	10c5c83a 	sub	r2,r2,r3
 8408b58:	8884983a 	sll	r2,r17,r2
 8408b5c:	1204b03a 	or	r2,r2,r8
 8408b60:	1004c03a 	cmpne	r2,r2,zero
 8408b64:	2084b03a 	or	r2,r4,r2
 8408b68:	144001cc 	andi	r17,r2,7
 8408b6c:	88000d1e 	bne	r17,zero,8408ba4 <__muldf3+0x6e0>
 8408b70:	000b883a 	mov	r5,zero
 8408b74:	1028d0fa 	srli	r20,r2,3
 8408b78:	b02b883a 	mov	r21,r22
 8408b7c:	0005883a 	mov	r2,zero
 8408b80:	a468b03a 	or	r20,r20,r17
 8408b84:	003eae06 	br	8408640 <__alt_data_end+0xfc408640>
 8408b88:	1007883a 	mov	r3,r2
 8408b8c:	0023883a 	mov	r17,zero
 8408b90:	880a927a 	slli	r5,r17,9
 8408b94:	1805883a 	mov	r2,r3
 8408b98:	8822977a 	slli	r17,r17,29
 8408b9c:	280ad33a 	srli	r5,r5,12
 8408ba0:	003ff406 	br	8408b74 <__alt_data_end+0xfc408b74>
 8408ba4:	10c003cc 	andi	r3,r2,15
 8408ba8:	01000104 	movi	r4,4
 8408bac:	193ff626 	beq	r3,r4,8408b88 <__alt_data_end+0xfc408b88>
 8408bb0:	0023883a 	mov	r17,zero
 8408bb4:	003fd506 	br	8408b0c <__alt_data_end+0xfc408b0c>
 8408bb8:	0005883a 	mov	r2,zero
 8408bbc:	003fe706 	br	8408b5c <__alt_data_end+0xfc408b5c>
 8408bc0:	00800434 	movhi	r2,16
 8408bc4:	89400234 	orhi	r5,r17,8
 8408bc8:	10bfffc4 	addi	r2,r2,-1
 8408bcc:	b02b883a 	mov	r21,r22
 8408bd0:	288a703a 	and	r5,r5,r2
 8408bd4:	4029883a 	mov	r20,r8
 8408bd8:	003eff06 	br	84087d8 <__alt_data_end+0xfc4087d8>

08408bdc <__subdf3>:
 8408bdc:	02000434 	movhi	r8,16
 8408be0:	423fffc4 	addi	r8,r8,-1
 8408be4:	defffb04 	addi	sp,sp,-20
 8408be8:	2a14703a 	and	r10,r5,r8
 8408bec:	3812d53a 	srli	r9,r7,20
 8408bf0:	3a10703a 	and	r8,r7,r8
 8408bf4:	2006d77a 	srli	r3,r4,29
 8408bf8:	3004d77a 	srli	r2,r6,29
 8408bfc:	dc000015 	stw	r16,0(sp)
 8408c00:	501490fa 	slli	r10,r10,3
 8408c04:	2820d53a 	srli	r16,r5,20
 8408c08:	401090fa 	slli	r8,r8,3
 8408c0c:	dc800215 	stw	r18,8(sp)
 8408c10:	dc400115 	stw	r17,4(sp)
 8408c14:	dfc00415 	stw	ra,16(sp)
 8408c18:	202290fa 	slli	r17,r4,3
 8408c1c:	dcc00315 	stw	r19,12(sp)
 8408c20:	4a41ffcc 	andi	r9,r9,2047
 8408c24:	0101ffc4 	movi	r4,2047
 8408c28:	2824d7fa 	srli	r18,r5,31
 8408c2c:	8401ffcc 	andi	r16,r16,2047
 8408c30:	50c6b03a 	or	r3,r10,r3
 8408c34:	380ed7fa 	srli	r7,r7,31
 8408c38:	408ab03a 	or	r5,r8,r2
 8408c3c:	300c90fa 	slli	r6,r6,3
 8408c40:	49009626 	beq	r9,r4,8408e9c <__subdf3+0x2c0>
 8408c44:	39c0005c 	xori	r7,r7,1
 8408c48:	8245c83a 	sub	r2,r16,r9
 8408c4c:	3c807426 	beq	r7,r18,8408e20 <__subdf3+0x244>
 8408c50:	0080af0e 	bge	zero,r2,8408f10 <__subdf3+0x334>
 8408c54:	48002a1e 	bne	r9,zero,8408d00 <__subdf3+0x124>
 8408c58:	2988b03a 	or	r4,r5,r6
 8408c5c:	20009a1e 	bne	r4,zero,8408ec8 <__subdf3+0x2ec>
 8408c60:	888001cc 	andi	r2,r17,7
 8408c64:	10000726 	beq	r2,zero,8408c84 <__subdf3+0xa8>
 8408c68:	888003cc 	andi	r2,r17,15
 8408c6c:	01000104 	movi	r4,4
 8408c70:	11000426 	beq	r2,r4,8408c84 <__subdf3+0xa8>
 8408c74:	890b883a 	add	r5,r17,r4
 8408c78:	2c63803a 	cmpltu	r17,r5,r17
 8408c7c:	1c47883a 	add	r3,r3,r17
 8408c80:	2823883a 	mov	r17,r5
 8408c84:	1880202c 	andhi	r2,r3,128
 8408c88:	10005926 	beq	r2,zero,8408df0 <__subdf3+0x214>
 8408c8c:	84000044 	addi	r16,r16,1
 8408c90:	0081ffc4 	movi	r2,2047
 8408c94:	8080be26 	beq	r16,r2,8408f90 <__subdf3+0x3b4>
 8408c98:	017fe034 	movhi	r5,65408
 8408c9c:	297fffc4 	addi	r5,r5,-1
 8408ca0:	1946703a 	and	r3,r3,r5
 8408ca4:	1804977a 	slli	r2,r3,29
 8408ca8:	1806927a 	slli	r3,r3,9
 8408cac:	8822d0fa 	srli	r17,r17,3
 8408cb0:	8401ffcc 	andi	r16,r16,2047
 8408cb4:	180ad33a 	srli	r5,r3,12
 8408cb8:	9100004c 	andi	r4,r18,1
 8408cbc:	1444b03a 	or	r2,r2,r17
 8408cc0:	80c1ffcc 	andi	r3,r16,2047
 8408cc4:	1820953a 	slli	r16,r3,20
 8408cc8:	20c03fcc 	andi	r3,r4,255
 8408ccc:	180897fa 	slli	r4,r3,31
 8408cd0:	00c00434 	movhi	r3,16
 8408cd4:	18ffffc4 	addi	r3,r3,-1
 8408cd8:	28c6703a 	and	r3,r5,r3
 8408cdc:	1c06b03a 	or	r3,r3,r16
 8408ce0:	1906b03a 	or	r3,r3,r4
 8408ce4:	dfc00417 	ldw	ra,16(sp)
 8408ce8:	dcc00317 	ldw	r19,12(sp)
 8408cec:	dc800217 	ldw	r18,8(sp)
 8408cf0:	dc400117 	ldw	r17,4(sp)
 8408cf4:	dc000017 	ldw	r16,0(sp)
 8408cf8:	dec00504 	addi	sp,sp,20
 8408cfc:	f800283a 	ret
 8408d00:	0101ffc4 	movi	r4,2047
 8408d04:	813fd626 	beq	r16,r4,8408c60 <__alt_data_end+0xfc408c60>
 8408d08:	29402034 	orhi	r5,r5,128
 8408d0c:	01000e04 	movi	r4,56
 8408d10:	2080a316 	blt	r4,r2,8408fa0 <__subdf3+0x3c4>
 8408d14:	010007c4 	movi	r4,31
 8408d18:	2080c616 	blt	r4,r2,8409034 <__subdf3+0x458>
 8408d1c:	01000804 	movi	r4,32
 8408d20:	2089c83a 	sub	r4,r4,r2
 8408d24:	2910983a 	sll	r8,r5,r4
 8408d28:	308ed83a 	srl	r7,r6,r2
 8408d2c:	3108983a 	sll	r4,r6,r4
 8408d30:	2884d83a 	srl	r2,r5,r2
 8408d34:	41ccb03a 	or	r6,r8,r7
 8408d38:	2008c03a 	cmpne	r4,r4,zero
 8408d3c:	310cb03a 	or	r6,r6,r4
 8408d40:	898dc83a 	sub	r6,r17,r6
 8408d44:	89a3803a 	cmpltu	r17,r17,r6
 8408d48:	1887c83a 	sub	r3,r3,r2
 8408d4c:	1c47c83a 	sub	r3,r3,r17
 8408d50:	3023883a 	mov	r17,r6
 8408d54:	1880202c 	andhi	r2,r3,128
 8408d58:	10002326 	beq	r2,zero,8408de8 <__subdf3+0x20c>
 8408d5c:	04c02034 	movhi	r19,128
 8408d60:	9cffffc4 	addi	r19,r19,-1
 8408d64:	1ce6703a 	and	r19,r3,r19
 8408d68:	98007a26 	beq	r19,zero,8408f54 <__subdf3+0x378>
 8408d6c:	9809883a 	mov	r4,r19
 8408d70:	84096340 	call	8409634 <__clzsi2>
 8408d74:	113ffe04 	addi	r4,r2,-8
 8408d78:	00c007c4 	movi	r3,31
 8408d7c:	19007b16 	blt	r3,r4,8408f6c <__subdf3+0x390>
 8408d80:	00800804 	movi	r2,32
 8408d84:	1105c83a 	sub	r2,r2,r4
 8408d88:	8884d83a 	srl	r2,r17,r2
 8408d8c:	9906983a 	sll	r3,r19,r4
 8408d90:	8922983a 	sll	r17,r17,r4
 8408d94:	10c4b03a 	or	r2,r2,r3
 8408d98:	24007816 	blt	r4,r16,8408f7c <__subdf3+0x3a0>
 8408d9c:	2421c83a 	sub	r16,r4,r16
 8408da0:	80c00044 	addi	r3,r16,1
 8408da4:	010007c4 	movi	r4,31
 8408da8:	20c09516 	blt	r4,r3,8409000 <__subdf3+0x424>
 8408dac:	01400804 	movi	r5,32
 8408db0:	28cbc83a 	sub	r5,r5,r3
 8408db4:	88c8d83a 	srl	r4,r17,r3
 8408db8:	8962983a 	sll	r17,r17,r5
 8408dbc:	114a983a 	sll	r5,r2,r5
 8408dc0:	10c6d83a 	srl	r3,r2,r3
 8408dc4:	8804c03a 	cmpne	r2,r17,zero
 8408dc8:	290ab03a 	or	r5,r5,r4
 8408dcc:	28a2b03a 	or	r17,r5,r2
 8408dd0:	0021883a 	mov	r16,zero
 8408dd4:	003fa206 	br	8408c60 <__alt_data_end+0xfc408c60>
 8408dd8:	2090b03a 	or	r8,r4,r2
 8408ddc:	40018e26 	beq	r8,zero,8409418 <__subdf3+0x83c>
 8408de0:	1007883a 	mov	r3,r2
 8408de4:	2023883a 	mov	r17,r4
 8408de8:	888001cc 	andi	r2,r17,7
 8408dec:	103f9e1e 	bne	r2,zero,8408c68 <__alt_data_end+0xfc408c68>
 8408df0:	1804977a 	slli	r2,r3,29
 8408df4:	8822d0fa 	srli	r17,r17,3
 8408df8:	1810d0fa 	srli	r8,r3,3
 8408dfc:	9100004c 	andi	r4,r18,1
 8408e00:	1444b03a 	or	r2,r2,r17
 8408e04:	00c1ffc4 	movi	r3,2047
 8408e08:	80c02826 	beq	r16,r3,8408eac <__subdf3+0x2d0>
 8408e0c:	01400434 	movhi	r5,16
 8408e10:	297fffc4 	addi	r5,r5,-1
 8408e14:	80e0703a 	and	r16,r16,r3
 8408e18:	414a703a 	and	r5,r8,r5
 8408e1c:	003fa806 	br	8408cc0 <__alt_data_end+0xfc408cc0>
 8408e20:	0080630e 	bge	zero,r2,8408fb0 <__subdf3+0x3d4>
 8408e24:	48003026 	beq	r9,zero,8408ee8 <__subdf3+0x30c>
 8408e28:	0101ffc4 	movi	r4,2047
 8408e2c:	813f8c26 	beq	r16,r4,8408c60 <__alt_data_end+0xfc408c60>
 8408e30:	29402034 	orhi	r5,r5,128
 8408e34:	01000e04 	movi	r4,56
 8408e38:	2080a90e 	bge	r4,r2,84090e0 <__subdf3+0x504>
 8408e3c:	298cb03a 	or	r6,r5,r6
 8408e40:	3012c03a 	cmpne	r9,r6,zero
 8408e44:	0005883a 	mov	r2,zero
 8408e48:	4c53883a 	add	r9,r9,r17
 8408e4c:	4c63803a 	cmpltu	r17,r9,r17
 8408e50:	10c7883a 	add	r3,r2,r3
 8408e54:	88c7883a 	add	r3,r17,r3
 8408e58:	4823883a 	mov	r17,r9
 8408e5c:	1880202c 	andhi	r2,r3,128
 8408e60:	1000d026 	beq	r2,zero,84091a4 <__subdf3+0x5c8>
 8408e64:	84000044 	addi	r16,r16,1
 8408e68:	0081ffc4 	movi	r2,2047
 8408e6c:	8080fe26 	beq	r16,r2,8409268 <__subdf3+0x68c>
 8408e70:	00bfe034 	movhi	r2,65408
 8408e74:	10bfffc4 	addi	r2,r2,-1
 8408e78:	1886703a 	and	r3,r3,r2
 8408e7c:	880ad07a 	srli	r5,r17,1
 8408e80:	180497fa 	slli	r2,r3,31
 8408e84:	8900004c 	andi	r4,r17,1
 8408e88:	2922b03a 	or	r17,r5,r4
 8408e8c:	1806d07a 	srli	r3,r3,1
 8408e90:	1462b03a 	or	r17,r2,r17
 8408e94:	3825883a 	mov	r18,r7
 8408e98:	003f7106 	br	8408c60 <__alt_data_end+0xfc408c60>
 8408e9c:	2984b03a 	or	r2,r5,r6
 8408ea0:	103f6826 	beq	r2,zero,8408c44 <__alt_data_end+0xfc408c44>
 8408ea4:	39c03fcc 	andi	r7,r7,255
 8408ea8:	003f6706 	br	8408c48 <__alt_data_end+0xfc408c48>
 8408eac:	4086b03a 	or	r3,r8,r2
 8408eb0:	18015226 	beq	r3,zero,84093fc <__subdf3+0x820>
 8408eb4:	00c00434 	movhi	r3,16
 8408eb8:	41400234 	orhi	r5,r8,8
 8408ebc:	18ffffc4 	addi	r3,r3,-1
 8408ec0:	28ca703a 	and	r5,r5,r3
 8408ec4:	003f7e06 	br	8408cc0 <__alt_data_end+0xfc408cc0>
 8408ec8:	10bfffc4 	addi	r2,r2,-1
 8408ecc:	1000491e 	bne	r2,zero,8408ff4 <__subdf3+0x418>
 8408ed0:	898fc83a 	sub	r7,r17,r6
 8408ed4:	89e3803a 	cmpltu	r17,r17,r7
 8408ed8:	1947c83a 	sub	r3,r3,r5
 8408edc:	1c47c83a 	sub	r3,r3,r17
 8408ee0:	3823883a 	mov	r17,r7
 8408ee4:	003f9b06 	br	8408d54 <__alt_data_end+0xfc408d54>
 8408ee8:	2988b03a 	or	r4,r5,r6
 8408eec:	203f5c26 	beq	r4,zero,8408c60 <__alt_data_end+0xfc408c60>
 8408ef0:	10bfffc4 	addi	r2,r2,-1
 8408ef4:	1000931e 	bne	r2,zero,8409144 <__subdf3+0x568>
 8408ef8:	898d883a 	add	r6,r17,r6
 8408efc:	3463803a 	cmpltu	r17,r6,r17
 8408f00:	1947883a 	add	r3,r3,r5
 8408f04:	88c7883a 	add	r3,r17,r3
 8408f08:	3023883a 	mov	r17,r6
 8408f0c:	003fd306 	br	8408e5c <__alt_data_end+0xfc408e5c>
 8408f10:	1000541e 	bne	r2,zero,8409064 <__subdf3+0x488>
 8408f14:	80800044 	addi	r2,r16,1
 8408f18:	1081ffcc 	andi	r2,r2,2047
 8408f1c:	01000044 	movi	r4,1
 8408f20:	2080a20e 	bge	r4,r2,84091ac <__subdf3+0x5d0>
 8408f24:	8989c83a 	sub	r4,r17,r6
 8408f28:	8905803a 	cmpltu	r2,r17,r4
 8408f2c:	1967c83a 	sub	r19,r3,r5
 8408f30:	98a7c83a 	sub	r19,r19,r2
 8408f34:	9880202c 	andhi	r2,r19,128
 8408f38:	10006326 	beq	r2,zero,84090c8 <__subdf3+0x4ec>
 8408f3c:	3463c83a 	sub	r17,r6,r17
 8408f40:	28c7c83a 	sub	r3,r5,r3
 8408f44:	344d803a 	cmpltu	r6,r6,r17
 8408f48:	19a7c83a 	sub	r19,r3,r6
 8408f4c:	3825883a 	mov	r18,r7
 8408f50:	983f861e 	bne	r19,zero,8408d6c <__alt_data_end+0xfc408d6c>
 8408f54:	8809883a 	mov	r4,r17
 8408f58:	84096340 	call	8409634 <__clzsi2>
 8408f5c:	10800804 	addi	r2,r2,32
 8408f60:	113ffe04 	addi	r4,r2,-8
 8408f64:	00c007c4 	movi	r3,31
 8408f68:	193f850e 	bge	r3,r4,8408d80 <__alt_data_end+0xfc408d80>
 8408f6c:	10bff604 	addi	r2,r2,-40
 8408f70:	8884983a 	sll	r2,r17,r2
 8408f74:	0023883a 	mov	r17,zero
 8408f78:	243f880e 	bge	r4,r16,8408d9c <__alt_data_end+0xfc408d9c>
 8408f7c:	00ffe034 	movhi	r3,65408
 8408f80:	18ffffc4 	addi	r3,r3,-1
 8408f84:	8121c83a 	sub	r16,r16,r4
 8408f88:	10c6703a 	and	r3,r2,r3
 8408f8c:	003f3406 	br	8408c60 <__alt_data_end+0xfc408c60>
 8408f90:	9100004c 	andi	r4,r18,1
 8408f94:	000b883a 	mov	r5,zero
 8408f98:	0005883a 	mov	r2,zero
 8408f9c:	003f4806 	br	8408cc0 <__alt_data_end+0xfc408cc0>
 8408fa0:	298cb03a 	or	r6,r5,r6
 8408fa4:	300cc03a 	cmpne	r6,r6,zero
 8408fa8:	0005883a 	mov	r2,zero
 8408fac:	003f6406 	br	8408d40 <__alt_data_end+0xfc408d40>
 8408fb0:	10009a1e 	bne	r2,zero,840921c <__subdf3+0x640>
 8408fb4:	82400044 	addi	r9,r16,1
 8408fb8:	4881ffcc 	andi	r2,r9,2047
 8408fbc:	02800044 	movi	r10,1
 8408fc0:	5080670e 	bge	r10,r2,8409160 <__subdf3+0x584>
 8408fc4:	0081ffc4 	movi	r2,2047
 8408fc8:	4880af26 	beq	r9,r2,8409288 <__subdf3+0x6ac>
 8408fcc:	898d883a 	add	r6,r17,r6
 8408fd0:	1945883a 	add	r2,r3,r5
 8408fd4:	3447803a 	cmpltu	r3,r6,r17
 8408fd8:	1887883a 	add	r3,r3,r2
 8408fdc:	182297fa 	slli	r17,r3,31
 8408fe0:	300cd07a 	srli	r6,r6,1
 8408fe4:	1806d07a 	srli	r3,r3,1
 8408fe8:	4821883a 	mov	r16,r9
 8408fec:	89a2b03a 	or	r17,r17,r6
 8408ff0:	003f1b06 	br	8408c60 <__alt_data_end+0xfc408c60>
 8408ff4:	0101ffc4 	movi	r4,2047
 8408ff8:	813f441e 	bne	r16,r4,8408d0c <__alt_data_end+0xfc408d0c>
 8408ffc:	003f1806 	br	8408c60 <__alt_data_end+0xfc408c60>
 8409000:	843ff844 	addi	r16,r16,-31
 8409004:	01400804 	movi	r5,32
 8409008:	1408d83a 	srl	r4,r2,r16
 840900c:	19405026 	beq	r3,r5,8409150 <__subdf3+0x574>
 8409010:	01401004 	movi	r5,64
 8409014:	28c7c83a 	sub	r3,r5,r3
 8409018:	10c4983a 	sll	r2,r2,r3
 840901c:	88a2b03a 	or	r17,r17,r2
 8409020:	8822c03a 	cmpne	r17,r17,zero
 8409024:	2462b03a 	or	r17,r4,r17
 8409028:	0007883a 	mov	r3,zero
 840902c:	0021883a 	mov	r16,zero
 8409030:	003f6d06 	br	8408de8 <__alt_data_end+0xfc408de8>
 8409034:	11fff804 	addi	r7,r2,-32
 8409038:	01000804 	movi	r4,32
 840903c:	29ced83a 	srl	r7,r5,r7
 8409040:	11004526 	beq	r2,r4,8409158 <__subdf3+0x57c>
 8409044:	01001004 	movi	r4,64
 8409048:	2089c83a 	sub	r4,r4,r2
 840904c:	2904983a 	sll	r2,r5,r4
 8409050:	118cb03a 	or	r6,r2,r6
 8409054:	300cc03a 	cmpne	r6,r6,zero
 8409058:	398cb03a 	or	r6,r7,r6
 840905c:	0005883a 	mov	r2,zero
 8409060:	003f3706 	br	8408d40 <__alt_data_end+0xfc408d40>
 8409064:	80002a26 	beq	r16,zero,8409110 <__subdf3+0x534>
 8409068:	0101ffc4 	movi	r4,2047
 840906c:	49006626 	beq	r9,r4,8409208 <__subdf3+0x62c>
 8409070:	0085c83a 	sub	r2,zero,r2
 8409074:	18c02034 	orhi	r3,r3,128
 8409078:	01000e04 	movi	r4,56
 840907c:	20807e16 	blt	r4,r2,8409278 <__subdf3+0x69c>
 8409080:	010007c4 	movi	r4,31
 8409084:	2080e716 	blt	r4,r2,8409424 <__subdf3+0x848>
 8409088:	01000804 	movi	r4,32
 840908c:	2089c83a 	sub	r4,r4,r2
 8409090:	1914983a 	sll	r10,r3,r4
 8409094:	8890d83a 	srl	r8,r17,r2
 8409098:	8908983a 	sll	r4,r17,r4
 840909c:	1884d83a 	srl	r2,r3,r2
 84090a0:	5222b03a 	or	r17,r10,r8
 84090a4:	2006c03a 	cmpne	r3,r4,zero
 84090a8:	88e2b03a 	or	r17,r17,r3
 84090ac:	3463c83a 	sub	r17,r6,r17
 84090b0:	2885c83a 	sub	r2,r5,r2
 84090b4:	344d803a 	cmpltu	r6,r6,r17
 84090b8:	1187c83a 	sub	r3,r2,r6
 84090bc:	4821883a 	mov	r16,r9
 84090c0:	3825883a 	mov	r18,r7
 84090c4:	003f2306 	br	8408d54 <__alt_data_end+0xfc408d54>
 84090c8:	24d0b03a 	or	r8,r4,r19
 84090cc:	40001b1e 	bne	r8,zero,840913c <__subdf3+0x560>
 84090d0:	0005883a 	mov	r2,zero
 84090d4:	0009883a 	mov	r4,zero
 84090d8:	0021883a 	mov	r16,zero
 84090dc:	003f4906 	br	8408e04 <__alt_data_end+0xfc408e04>
 84090e0:	010007c4 	movi	r4,31
 84090e4:	20803a16 	blt	r4,r2,84091d0 <__subdf3+0x5f4>
 84090e8:	01000804 	movi	r4,32
 84090ec:	2089c83a 	sub	r4,r4,r2
 84090f0:	2912983a 	sll	r9,r5,r4
 84090f4:	3090d83a 	srl	r8,r6,r2
 84090f8:	3108983a 	sll	r4,r6,r4
 84090fc:	2884d83a 	srl	r2,r5,r2
 8409100:	4a12b03a 	or	r9,r9,r8
 8409104:	2008c03a 	cmpne	r4,r4,zero
 8409108:	4912b03a 	or	r9,r9,r4
 840910c:	003f4e06 	br	8408e48 <__alt_data_end+0xfc408e48>
 8409110:	1c48b03a 	or	r4,r3,r17
 8409114:	20003c26 	beq	r4,zero,8409208 <__subdf3+0x62c>
 8409118:	0084303a 	nor	r2,zero,r2
 840911c:	1000381e 	bne	r2,zero,8409200 <__subdf3+0x624>
 8409120:	3463c83a 	sub	r17,r6,r17
 8409124:	28c5c83a 	sub	r2,r5,r3
 8409128:	344d803a 	cmpltu	r6,r6,r17
 840912c:	1187c83a 	sub	r3,r2,r6
 8409130:	4821883a 	mov	r16,r9
 8409134:	3825883a 	mov	r18,r7
 8409138:	003f0606 	br	8408d54 <__alt_data_end+0xfc408d54>
 840913c:	2023883a 	mov	r17,r4
 8409140:	003f0906 	br	8408d68 <__alt_data_end+0xfc408d68>
 8409144:	0101ffc4 	movi	r4,2047
 8409148:	813f3a1e 	bne	r16,r4,8408e34 <__alt_data_end+0xfc408e34>
 840914c:	003ec406 	br	8408c60 <__alt_data_end+0xfc408c60>
 8409150:	0005883a 	mov	r2,zero
 8409154:	003fb106 	br	840901c <__alt_data_end+0xfc40901c>
 8409158:	0005883a 	mov	r2,zero
 840915c:	003fbc06 	br	8409050 <__alt_data_end+0xfc409050>
 8409160:	1c44b03a 	or	r2,r3,r17
 8409164:	80008e1e 	bne	r16,zero,84093a0 <__subdf3+0x7c4>
 8409168:	1000c826 	beq	r2,zero,840948c <__subdf3+0x8b0>
 840916c:	2984b03a 	or	r2,r5,r6
 8409170:	103ebb26 	beq	r2,zero,8408c60 <__alt_data_end+0xfc408c60>
 8409174:	8989883a 	add	r4,r17,r6
 8409178:	1945883a 	add	r2,r3,r5
 840917c:	2447803a 	cmpltu	r3,r4,r17
 8409180:	1887883a 	add	r3,r3,r2
 8409184:	1880202c 	andhi	r2,r3,128
 8409188:	2023883a 	mov	r17,r4
 840918c:	103f1626 	beq	r2,zero,8408de8 <__alt_data_end+0xfc408de8>
 8409190:	00bfe034 	movhi	r2,65408
 8409194:	10bfffc4 	addi	r2,r2,-1
 8409198:	5021883a 	mov	r16,r10
 840919c:	1886703a 	and	r3,r3,r2
 84091a0:	003eaf06 	br	8408c60 <__alt_data_end+0xfc408c60>
 84091a4:	3825883a 	mov	r18,r7
 84091a8:	003f0f06 	br	8408de8 <__alt_data_end+0xfc408de8>
 84091ac:	1c44b03a 	or	r2,r3,r17
 84091b0:	8000251e 	bne	r16,zero,8409248 <__subdf3+0x66c>
 84091b4:	1000661e 	bne	r2,zero,8409350 <__subdf3+0x774>
 84091b8:	2990b03a 	or	r8,r5,r6
 84091bc:	40009626 	beq	r8,zero,8409418 <__subdf3+0x83c>
 84091c0:	2807883a 	mov	r3,r5
 84091c4:	3023883a 	mov	r17,r6
 84091c8:	3825883a 	mov	r18,r7
 84091cc:	003ea406 	br	8408c60 <__alt_data_end+0xfc408c60>
 84091d0:	127ff804 	addi	r9,r2,-32
 84091d4:	01000804 	movi	r4,32
 84091d8:	2a52d83a 	srl	r9,r5,r9
 84091dc:	11008c26 	beq	r2,r4,8409410 <__subdf3+0x834>
 84091e0:	01001004 	movi	r4,64
 84091e4:	2085c83a 	sub	r2,r4,r2
 84091e8:	2884983a 	sll	r2,r5,r2
 84091ec:	118cb03a 	or	r6,r2,r6
 84091f0:	300cc03a 	cmpne	r6,r6,zero
 84091f4:	4992b03a 	or	r9,r9,r6
 84091f8:	0005883a 	mov	r2,zero
 84091fc:	003f1206 	br	8408e48 <__alt_data_end+0xfc408e48>
 8409200:	0101ffc4 	movi	r4,2047
 8409204:	493f9c1e 	bne	r9,r4,8409078 <__alt_data_end+0xfc409078>
 8409208:	2807883a 	mov	r3,r5
 840920c:	3023883a 	mov	r17,r6
 8409210:	4821883a 	mov	r16,r9
 8409214:	3825883a 	mov	r18,r7
 8409218:	003e9106 	br	8408c60 <__alt_data_end+0xfc408c60>
 840921c:	80001f1e 	bne	r16,zero,840929c <__subdf3+0x6c0>
 8409220:	1c48b03a 	or	r4,r3,r17
 8409224:	20005a26 	beq	r4,zero,8409390 <__subdf3+0x7b4>
 8409228:	0084303a 	nor	r2,zero,r2
 840922c:	1000561e 	bne	r2,zero,8409388 <__subdf3+0x7ac>
 8409230:	89a3883a 	add	r17,r17,r6
 8409234:	1945883a 	add	r2,r3,r5
 8409238:	898d803a 	cmpltu	r6,r17,r6
 840923c:	3087883a 	add	r3,r6,r2
 8409240:	4821883a 	mov	r16,r9
 8409244:	003f0506 	br	8408e5c <__alt_data_end+0xfc408e5c>
 8409248:	10002b1e 	bne	r2,zero,84092f8 <__subdf3+0x71c>
 840924c:	2984b03a 	or	r2,r5,r6
 8409250:	10008026 	beq	r2,zero,8409454 <__subdf3+0x878>
 8409254:	2807883a 	mov	r3,r5
 8409258:	3023883a 	mov	r17,r6
 840925c:	3825883a 	mov	r18,r7
 8409260:	0401ffc4 	movi	r16,2047
 8409264:	003e7e06 	br	8408c60 <__alt_data_end+0xfc408c60>
 8409268:	3809883a 	mov	r4,r7
 840926c:	0011883a 	mov	r8,zero
 8409270:	0005883a 	mov	r2,zero
 8409274:	003ee306 	br	8408e04 <__alt_data_end+0xfc408e04>
 8409278:	1c62b03a 	or	r17,r3,r17
 840927c:	8822c03a 	cmpne	r17,r17,zero
 8409280:	0005883a 	mov	r2,zero
 8409284:	003f8906 	br	84090ac <__alt_data_end+0xfc4090ac>
 8409288:	3809883a 	mov	r4,r7
 840928c:	4821883a 	mov	r16,r9
 8409290:	0011883a 	mov	r8,zero
 8409294:	0005883a 	mov	r2,zero
 8409298:	003eda06 	br	8408e04 <__alt_data_end+0xfc408e04>
 840929c:	0101ffc4 	movi	r4,2047
 84092a0:	49003b26 	beq	r9,r4,8409390 <__subdf3+0x7b4>
 84092a4:	0085c83a 	sub	r2,zero,r2
 84092a8:	18c02034 	orhi	r3,r3,128
 84092ac:	01000e04 	movi	r4,56
 84092b0:	20806e16 	blt	r4,r2,840946c <__subdf3+0x890>
 84092b4:	010007c4 	movi	r4,31
 84092b8:	20807716 	blt	r4,r2,8409498 <__subdf3+0x8bc>
 84092bc:	01000804 	movi	r4,32
 84092c0:	2089c83a 	sub	r4,r4,r2
 84092c4:	1914983a 	sll	r10,r3,r4
 84092c8:	8890d83a 	srl	r8,r17,r2
 84092cc:	8908983a 	sll	r4,r17,r4
 84092d0:	1884d83a 	srl	r2,r3,r2
 84092d4:	5222b03a 	or	r17,r10,r8
 84092d8:	2006c03a 	cmpne	r3,r4,zero
 84092dc:	88e2b03a 	or	r17,r17,r3
 84092e0:	89a3883a 	add	r17,r17,r6
 84092e4:	1145883a 	add	r2,r2,r5
 84092e8:	898d803a 	cmpltu	r6,r17,r6
 84092ec:	3087883a 	add	r3,r6,r2
 84092f0:	4821883a 	mov	r16,r9
 84092f4:	003ed906 	br	8408e5c <__alt_data_end+0xfc408e5c>
 84092f8:	2984b03a 	or	r2,r5,r6
 84092fc:	10004226 	beq	r2,zero,8409408 <__subdf3+0x82c>
 8409300:	1808d0fa 	srli	r4,r3,3
 8409304:	8822d0fa 	srli	r17,r17,3
 8409308:	1806977a 	slli	r3,r3,29
 840930c:	2080022c 	andhi	r2,r4,8
 8409310:	1c62b03a 	or	r17,r3,r17
 8409314:	10000826 	beq	r2,zero,8409338 <__subdf3+0x75c>
 8409318:	2812d0fa 	srli	r9,r5,3
 840931c:	4880022c 	andhi	r2,r9,8
 8409320:	1000051e 	bne	r2,zero,8409338 <__subdf3+0x75c>
 8409324:	300cd0fa 	srli	r6,r6,3
 8409328:	2804977a 	slli	r2,r5,29
 840932c:	4809883a 	mov	r4,r9
 8409330:	3825883a 	mov	r18,r7
 8409334:	11a2b03a 	or	r17,r2,r6
 8409338:	8806d77a 	srli	r3,r17,29
 840933c:	200890fa 	slli	r4,r4,3
 8409340:	882290fa 	slli	r17,r17,3
 8409344:	0401ffc4 	movi	r16,2047
 8409348:	1906b03a 	or	r3,r3,r4
 840934c:	003e4406 	br	8408c60 <__alt_data_end+0xfc408c60>
 8409350:	2984b03a 	or	r2,r5,r6
 8409354:	103e4226 	beq	r2,zero,8408c60 <__alt_data_end+0xfc408c60>
 8409358:	8989c83a 	sub	r4,r17,r6
 840935c:	8911803a 	cmpltu	r8,r17,r4
 8409360:	1945c83a 	sub	r2,r3,r5
 8409364:	1205c83a 	sub	r2,r2,r8
 8409368:	1200202c 	andhi	r8,r2,128
 840936c:	403e9a26 	beq	r8,zero,8408dd8 <__alt_data_end+0xfc408dd8>
 8409370:	3463c83a 	sub	r17,r6,r17
 8409374:	28c5c83a 	sub	r2,r5,r3
 8409378:	344d803a 	cmpltu	r6,r6,r17
 840937c:	1187c83a 	sub	r3,r2,r6
 8409380:	3825883a 	mov	r18,r7
 8409384:	003e3606 	br	8408c60 <__alt_data_end+0xfc408c60>
 8409388:	0101ffc4 	movi	r4,2047
 840938c:	493fc71e 	bne	r9,r4,84092ac <__alt_data_end+0xfc4092ac>
 8409390:	2807883a 	mov	r3,r5
 8409394:	3023883a 	mov	r17,r6
 8409398:	4821883a 	mov	r16,r9
 840939c:	003e3006 	br	8408c60 <__alt_data_end+0xfc408c60>
 84093a0:	10003626 	beq	r2,zero,840947c <__subdf3+0x8a0>
 84093a4:	2984b03a 	or	r2,r5,r6
 84093a8:	10001726 	beq	r2,zero,8409408 <__subdf3+0x82c>
 84093ac:	1808d0fa 	srli	r4,r3,3
 84093b0:	8822d0fa 	srli	r17,r17,3
 84093b4:	1806977a 	slli	r3,r3,29
 84093b8:	2080022c 	andhi	r2,r4,8
 84093bc:	1c62b03a 	or	r17,r3,r17
 84093c0:	10000726 	beq	r2,zero,84093e0 <__subdf3+0x804>
 84093c4:	2812d0fa 	srli	r9,r5,3
 84093c8:	4880022c 	andhi	r2,r9,8
 84093cc:	1000041e 	bne	r2,zero,84093e0 <__subdf3+0x804>
 84093d0:	300cd0fa 	srli	r6,r6,3
 84093d4:	2804977a 	slli	r2,r5,29
 84093d8:	4809883a 	mov	r4,r9
 84093dc:	11a2b03a 	or	r17,r2,r6
 84093e0:	8806d77a 	srli	r3,r17,29
 84093e4:	200890fa 	slli	r4,r4,3
 84093e8:	882290fa 	slli	r17,r17,3
 84093ec:	3825883a 	mov	r18,r7
 84093f0:	1906b03a 	or	r3,r3,r4
 84093f4:	0401ffc4 	movi	r16,2047
 84093f8:	003e1906 	br	8408c60 <__alt_data_end+0xfc408c60>
 84093fc:	000b883a 	mov	r5,zero
 8409400:	0005883a 	mov	r2,zero
 8409404:	003e2e06 	br	8408cc0 <__alt_data_end+0xfc408cc0>
 8409408:	0401ffc4 	movi	r16,2047
 840940c:	003e1406 	br	8408c60 <__alt_data_end+0xfc408c60>
 8409410:	0005883a 	mov	r2,zero
 8409414:	003f7506 	br	84091ec <__alt_data_end+0xfc4091ec>
 8409418:	0005883a 	mov	r2,zero
 840941c:	0009883a 	mov	r4,zero
 8409420:	003e7806 	br	8408e04 <__alt_data_end+0xfc408e04>
 8409424:	123ff804 	addi	r8,r2,-32
 8409428:	01000804 	movi	r4,32
 840942c:	1a10d83a 	srl	r8,r3,r8
 8409430:	11002526 	beq	r2,r4,84094c8 <__subdf3+0x8ec>
 8409434:	01001004 	movi	r4,64
 8409438:	2085c83a 	sub	r2,r4,r2
 840943c:	1884983a 	sll	r2,r3,r2
 8409440:	1444b03a 	or	r2,r2,r17
 8409444:	1004c03a 	cmpne	r2,r2,zero
 8409448:	40a2b03a 	or	r17,r8,r2
 840944c:	0005883a 	mov	r2,zero
 8409450:	003f1606 	br	84090ac <__alt_data_end+0xfc4090ac>
 8409454:	02000434 	movhi	r8,16
 8409458:	0009883a 	mov	r4,zero
 840945c:	423fffc4 	addi	r8,r8,-1
 8409460:	00bfffc4 	movi	r2,-1
 8409464:	0401ffc4 	movi	r16,2047
 8409468:	003e6606 	br	8408e04 <__alt_data_end+0xfc408e04>
 840946c:	1c62b03a 	or	r17,r3,r17
 8409470:	8822c03a 	cmpne	r17,r17,zero
 8409474:	0005883a 	mov	r2,zero
 8409478:	003f9906 	br	84092e0 <__alt_data_end+0xfc4092e0>
 840947c:	2807883a 	mov	r3,r5
 8409480:	3023883a 	mov	r17,r6
 8409484:	0401ffc4 	movi	r16,2047
 8409488:	003df506 	br	8408c60 <__alt_data_end+0xfc408c60>
 840948c:	2807883a 	mov	r3,r5
 8409490:	3023883a 	mov	r17,r6
 8409494:	003df206 	br	8408c60 <__alt_data_end+0xfc408c60>
 8409498:	123ff804 	addi	r8,r2,-32
 840949c:	01000804 	movi	r4,32
 84094a0:	1a10d83a 	srl	r8,r3,r8
 84094a4:	11000a26 	beq	r2,r4,84094d0 <__subdf3+0x8f4>
 84094a8:	01001004 	movi	r4,64
 84094ac:	2085c83a 	sub	r2,r4,r2
 84094b0:	1884983a 	sll	r2,r3,r2
 84094b4:	1444b03a 	or	r2,r2,r17
 84094b8:	1004c03a 	cmpne	r2,r2,zero
 84094bc:	40a2b03a 	or	r17,r8,r2
 84094c0:	0005883a 	mov	r2,zero
 84094c4:	003f8606 	br	84092e0 <__alt_data_end+0xfc4092e0>
 84094c8:	0005883a 	mov	r2,zero
 84094cc:	003fdc06 	br	8409440 <__alt_data_end+0xfc409440>
 84094d0:	0005883a 	mov	r2,zero
 84094d4:	003ff706 	br	84094b4 <__alt_data_end+0xfc4094b4>

084094d8 <__fixdfsi>:
 84094d8:	280cd53a 	srli	r6,r5,20
 84094dc:	00c00434 	movhi	r3,16
 84094e0:	18ffffc4 	addi	r3,r3,-1
 84094e4:	3181ffcc 	andi	r6,r6,2047
 84094e8:	01c0ff84 	movi	r7,1022
 84094ec:	28c6703a 	and	r3,r5,r3
 84094f0:	280ad7fa 	srli	r5,r5,31
 84094f4:	3980120e 	bge	r7,r6,8409540 <__fixdfsi+0x68>
 84094f8:	00810744 	movi	r2,1053
 84094fc:	11800c16 	blt	r2,r6,8409530 <__fixdfsi+0x58>
 8409500:	00810cc4 	movi	r2,1075
 8409504:	1185c83a 	sub	r2,r2,r6
 8409508:	01c007c4 	movi	r7,31
 840950c:	18c00434 	orhi	r3,r3,16
 8409510:	38800d16 	blt	r7,r2,8409548 <__fixdfsi+0x70>
 8409514:	31befb44 	addi	r6,r6,-1043
 8409518:	2084d83a 	srl	r2,r4,r2
 840951c:	1986983a 	sll	r3,r3,r6
 8409520:	1884b03a 	or	r2,r3,r2
 8409524:	28000726 	beq	r5,zero,8409544 <__fixdfsi+0x6c>
 8409528:	0085c83a 	sub	r2,zero,r2
 840952c:	f800283a 	ret
 8409530:	00a00034 	movhi	r2,32768
 8409534:	10bfffc4 	addi	r2,r2,-1
 8409538:	2885883a 	add	r2,r5,r2
 840953c:	f800283a 	ret
 8409540:	0005883a 	mov	r2,zero
 8409544:	f800283a 	ret
 8409548:	008104c4 	movi	r2,1043
 840954c:	1185c83a 	sub	r2,r2,r6
 8409550:	1884d83a 	srl	r2,r3,r2
 8409554:	003ff306 	br	8409524 <__alt_data_end+0xfc409524>

08409558 <__floatsidf>:
 8409558:	defffd04 	addi	sp,sp,-12
 840955c:	dfc00215 	stw	ra,8(sp)
 8409560:	dc400115 	stw	r17,4(sp)
 8409564:	dc000015 	stw	r16,0(sp)
 8409568:	20002b26 	beq	r4,zero,8409618 <__floatsidf+0xc0>
 840956c:	2023883a 	mov	r17,r4
 8409570:	2020d7fa 	srli	r16,r4,31
 8409574:	20002d16 	blt	r4,zero,840962c <__floatsidf+0xd4>
 8409578:	8809883a 	mov	r4,r17
 840957c:	84096340 	call	8409634 <__clzsi2>
 8409580:	01410784 	movi	r5,1054
 8409584:	288bc83a 	sub	r5,r5,r2
 8409588:	01010cc4 	movi	r4,1075
 840958c:	2149c83a 	sub	r4,r4,r5
 8409590:	00c007c4 	movi	r3,31
 8409594:	1900160e 	bge	r3,r4,84095f0 <__floatsidf+0x98>
 8409598:	00c104c4 	movi	r3,1043
 840959c:	1947c83a 	sub	r3,r3,r5
 84095a0:	88c6983a 	sll	r3,r17,r3
 84095a4:	00800434 	movhi	r2,16
 84095a8:	10bfffc4 	addi	r2,r2,-1
 84095ac:	1886703a 	and	r3,r3,r2
 84095b0:	2941ffcc 	andi	r5,r5,2047
 84095b4:	800d883a 	mov	r6,r16
 84095b8:	0005883a 	mov	r2,zero
 84095bc:	280a953a 	slli	r5,r5,20
 84095c0:	31803fcc 	andi	r6,r6,255
 84095c4:	01000434 	movhi	r4,16
 84095c8:	300c97fa 	slli	r6,r6,31
 84095cc:	213fffc4 	addi	r4,r4,-1
 84095d0:	1906703a 	and	r3,r3,r4
 84095d4:	1946b03a 	or	r3,r3,r5
 84095d8:	1986b03a 	or	r3,r3,r6
 84095dc:	dfc00217 	ldw	ra,8(sp)
 84095e0:	dc400117 	ldw	r17,4(sp)
 84095e4:	dc000017 	ldw	r16,0(sp)
 84095e8:	dec00304 	addi	sp,sp,12
 84095ec:	f800283a 	ret
 84095f0:	00c002c4 	movi	r3,11
 84095f4:	1887c83a 	sub	r3,r3,r2
 84095f8:	88c6d83a 	srl	r3,r17,r3
 84095fc:	8904983a 	sll	r2,r17,r4
 8409600:	01000434 	movhi	r4,16
 8409604:	213fffc4 	addi	r4,r4,-1
 8409608:	2941ffcc 	andi	r5,r5,2047
 840960c:	1906703a 	and	r3,r3,r4
 8409610:	800d883a 	mov	r6,r16
 8409614:	003fe906 	br	84095bc <__alt_data_end+0xfc4095bc>
 8409618:	000d883a 	mov	r6,zero
 840961c:	000b883a 	mov	r5,zero
 8409620:	0007883a 	mov	r3,zero
 8409624:	0005883a 	mov	r2,zero
 8409628:	003fe406 	br	84095bc <__alt_data_end+0xfc4095bc>
 840962c:	0123c83a 	sub	r17,zero,r4
 8409630:	003fd106 	br	8409578 <__alt_data_end+0xfc409578>

08409634 <__clzsi2>:
 8409634:	00bfffd4 	movui	r2,65535
 8409638:	11000536 	bltu	r2,r4,8409650 <__clzsi2+0x1c>
 840963c:	00803fc4 	movi	r2,255
 8409640:	11000f36 	bltu	r2,r4,8409680 <__clzsi2+0x4c>
 8409644:	00800804 	movi	r2,32
 8409648:	0007883a 	mov	r3,zero
 840964c:	00000506 	br	8409664 <__clzsi2+0x30>
 8409650:	00804034 	movhi	r2,256
 8409654:	10bfffc4 	addi	r2,r2,-1
 8409658:	11000c2e 	bgeu	r2,r4,840968c <__clzsi2+0x58>
 840965c:	00800204 	movi	r2,8
 8409660:	00c00604 	movi	r3,24
 8409664:	20c8d83a 	srl	r4,r4,r3
 8409668:	00c21134 	movhi	r3,2116
 840966c:	18e35844 	addi	r3,r3,-29343
 8409670:	1909883a 	add	r4,r3,r4
 8409674:	20c00003 	ldbu	r3,0(r4)
 8409678:	10c5c83a 	sub	r2,r2,r3
 840967c:	f800283a 	ret
 8409680:	00800604 	movi	r2,24
 8409684:	00c00204 	movi	r3,8
 8409688:	003ff606 	br	8409664 <__alt_data_end+0xfc409664>
 840968c:	00800404 	movi	r2,16
 8409690:	1007883a 	mov	r3,r2
 8409694:	003ff306 	br	8409664 <__alt_data_end+0xfc409664>

08409698 <__errno>:
 8409698:	00821134 	movhi	r2,2116
 840969c:	10b01704 	addi	r2,r2,-16292
 84096a0:	10800017 	ldw	r2,0(r2)
 84096a4:	f800283a 	ret

084096a8 <malloc>:
 84096a8:	00821134 	movhi	r2,2116
 84096ac:	10b01704 	addi	r2,r2,-16292
 84096b0:	200b883a 	mov	r5,r4
 84096b4:	11000017 	ldw	r4,0(r2)
 84096b8:	84096d01 	jmpi	84096d0 <_malloc_r>

084096bc <free>:
 84096bc:	00821134 	movhi	r2,2116
 84096c0:	10b01704 	addi	r2,r2,-16292
 84096c4:	200b883a 	mov	r5,r4
 84096c8:	11000017 	ldw	r4,0(r2)
 84096cc:	840aa281 	jmpi	840aa28 <_free_r>

084096d0 <_malloc_r>:
 84096d0:	defff504 	addi	sp,sp,-44
 84096d4:	dc800315 	stw	r18,12(sp)
 84096d8:	dfc00a15 	stw	ra,40(sp)
 84096dc:	df000915 	stw	fp,36(sp)
 84096e0:	ddc00815 	stw	r23,32(sp)
 84096e4:	dd800715 	stw	r22,28(sp)
 84096e8:	dd400615 	stw	r21,24(sp)
 84096ec:	dd000515 	stw	r20,20(sp)
 84096f0:	dcc00415 	stw	r19,16(sp)
 84096f4:	dc400215 	stw	r17,8(sp)
 84096f8:	dc000115 	stw	r16,4(sp)
 84096fc:	288002c4 	addi	r2,r5,11
 8409700:	00c00584 	movi	r3,22
 8409704:	2025883a 	mov	r18,r4
 8409708:	18807f2e 	bgeu	r3,r2,8409908 <_malloc_r+0x238>
 840970c:	047ffe04 	movi	r17,-8
 8409710:	1462703a 	and	r17,r2,r17
 8409714:	8800a316 	blt	r17,zero,84099a4 <_malloc_r+0x2d4>
 8409718:	8940a236 	bltu	r17,r5,84099a4 <_malloc_r+0x2d4>
 840971c:	840d3f40 	call	840d3f4 <__malloc_lock>
 8409720:	00807dc4 	movi	r2,503
 8409724:	1441e92e 	bgeu	r2,r17,8409ecc <_malloc_r+0x7fc>
 8409728:	8804d27a 	srli	r2,r17,9
 840972c:	1000a126 	beq	r2,zero,84099b4 <_malloc_r+0x2e4>
 8409730:	00c00104 	movi	r3,4
 8409734:	18811e36 	bltu	r3,r2,8409bb0 <_malloc_r+0x4e0>
 8409738:	8804d1ba 	srli	r2,r17,6
 840973c:	12000e44 	addi	r8,r2,57
 8409740:	11c00e04 	addi	r7,r2,56
 8409744:	4209883a 	add	r4,r8,r8
 8409748:	04c21134 	movhi	r19,2116
 840974c:	2109883a 	add	r4,r4,r4
 8409750:	9cea9104 	addi	r19,r19,-21948
 8409754:	2109883a 	add	r4,r4,r4
 8409758:	9909883a 	add	r4,r19,r4
 840975c:	24000117 	ldw	r16,4(r4)
 8409760:	213ffe04 	addi	r4,r4,-8
 8409764:	24009726 	beq	r4,r16,84099c4 <_malloc_r+0x2f4>
 8409768:	80800117 	ldw	r2,4(r16)
 840976c:	01bfff04 	movi	r6,-4
 8409770:	014003c4 	movi	r5,15
 8409774:	1184703a 	and	r2,r2,r6
 8409778:	1447c83a 	sub	r3,r2,r17
 840977c:	28c00716 	blt	r5,r3,840979c <_malloc_r+0xcc>
 8409780:	1800920e 	bge	r3,zero,84099cc <_malloc_r+0x2fc>
 8409784:	84000317 	ldw	r16,12(r16)
 8409788:	24008e26 	beq	r4,r16,84099c4 <_malloc_r+0x2f4>
 840978c:	80800117 	ldw	r2,4(r16)
 8409790:	1184703a 	and	r2,r2,r6
 8409794:	1447c83a 	sub	r3,r2,r17
 8409798:	28fff90e 	bge	r5,r3,8409780 <__alt_data_end+0xfc409780>
 840979c:	3809883a 	mov	r4,r7
 84097a0:	01821134 	movhi	r6,2116
 84097a4:	9c000417 	ldw	r16,16(r19)
 84097a8:	31aa9104 	addi	r6,r6,-21948
 84097ac:	32000204 	addi	r8,r6,8
 84097b0:	82013426 	beq	r16,r8,8409c84 <_malloc_r+0x5b4>
 84097b4:	80c00117 	ldw	r3,4(r16)
 84097b8:	00bfff04 	movi	r2,-4
 84097bc:	188e703a 	and	r7,r3,r2
 84097c0:	3c45c83a 	sub	r2,r7,r17
 84097c4:	00c003c4 	movi	r3,15
 84097c8:	18811f16 	blt	r3,r2,8409c48 <_malloc_r+0x578>
 84097cc:	32000515 	stw	r8,20(r6)
 84097d0:	32000415 	stw	r8,16(r6)
 84097d4:	10007f0e 	bge	r2,zero,84099d4 <_malloc_r+0x304>
 84097d8:	00807fc4 	movi	r2,511
 84097dc:	11c0fd36 	bltu	r2,r7,8409bd4 <_malloc_r+0x504>
 84097e0:	3806d0fa 	srli	r3,r7,3
 84097e4:	01c00044 	movi	r7,1
 84097e8:	30800117 	ldw	r2,4(r6)
 84097ec:	19400044 	addi	r5,r3,1
 84097f0:	294b883a 	add	r5,r5,r5
 84097f4:	1807d0ba 	srai	r3,r3,2
 84097f8:	294b883a 	add	r5,r5,r5
 84097fc:	294b883a 	add	r5,r5,r5
 8409800:	298b883a 	add	r5,r5,r6
 8409804:	38c6983a 	sll	r3,r7,r3
 8409808:	29c00017 	ldw	r7,0(r5)
 840980c:	2a7ffe04 	addi	r9,r5,-8
 8409810:	1886b03a 	or	r3,r3,r2
 8409814:	82400315 	stw	r9,12(r16)
 8409818:	81c00215 	stw	r7,8(r16)
 840981c:	30c00115 	stw	r3,4(r6)
 8409820:	2c000015 	stw	r16,0(r5)
 8409824:	3c000315 	stw	r16,12(r7)
 8409828:	2005d0ba 	srai	r2,r4,2
 840982c:	01400044 	movi	r5,1
 8409830:	288a983a 	sll	r5,r5,r2
 8409834:	19406f36 	bltu	r3,r5,84099f4 <_malloc_r+0x324>
 8409838:	28c4703a 	and	r2,r5,r3
 840983c:	10000a1e 	bne	r2,zero,8409868 <_malloc_r+0x198>
 8409840:	00bfff04 	movi	r2,-4
 8409844:	294b883a 	add	r5,r5,r5
 8409848:	2088703a 	and	r4,r4,r2
 840984c:	28c4703a 	and	r2,r5,r3
 8409850:	21000104 	addi	r4,r4,4
 8409854:	1000041e 	bne	r2,zero,8409868 <_malloc_r+0x198>
 8409858:	294b883a 	add	r5,r5,r5
 840985c:	28c4703a 	and	r2,r5,r3
 8409860:	21000104 	addi	r4,r4,4
 8409864:	103ffc26 	beq	r2,zero,8409858 <__alt_data_end+0xfc409858>
 8409868:	02bfff04 	movi	r10,-4
 840986c:	024003c4 	movi	r9,15
 8409870:	21800044 	addi	r6,r4,1
 8409874:	318d883a 	add	r6,r6,r6
 8409878:	318d883a 	add	r6,r6,r6
 840987c:	318d883a 	add	r6,r6,r6
 8409880:	998d883a 	add	r6,r19,r6
 8409884:	333ffe04 	addi	r12,r6,-8
 8409888:	2017883a 	mov	r11,r4
 840988c:	31800104 	addi	r6,r6,4
 8409890:	34000017 	ldw	r16,0(r6)
 8409894:	31fffd04 	addi	r7,r6,-12
 8409898:	81c0041e 	bne	r16,r7,84098ac <_malloc_r+0x1dc>
 840989c:	0000fb06 	br	8409c8c <_malloc_r+0x5bc>
 84098a0:	1801030e 	bge	r3,zero,8409cb0 <_malloc_r+0x5e0>
 84098a4:	84000317 	ldw	r16,12(r16)
 84098a8:	81c0f826 	beq	r16,r7,8409c8c <_malloc_r+0x5bc>
 84098ac:	80800117 	ldw	r2,4(r16)
 84098b0:	1284703a 	and	r2,r2,r10
 84098b4:	1447c83a 	sub	r3,r2,r17
 84098b8:	48fff90e 	bge	r9,r3,84098a0 <__alt_data_end+0xfc4098a0>
 84098bc:	80800317 	ldw	r2,12(r16)
 84098c0:	81000217 	ldw	r4,8(r16)
 84098c4:	89400054 	ori	r5,r17,1
 84098c8:	81400115 	stw	r5,4(r16)
 84098cc:	20800315 	stw	r2,12(r4)
 84098d0:	11000215 	stw	r4,8(r2)
 84098d4:	8463883a 	add	r17,r16,r17
 84098d8:	9c400515 	stw	r17,20(r19)
 84098dc:	9c400415 	stw	r17,16(r19)
 84098e0:	18800054 	ori	r2,r3,1
 84098e4:	88800115 	stw	r2,4(r17)
 84098e8:	8a000315 	stw	r8,12(r17)
 84098ec:	8a000215 	stw	r8,8(r17)
 84098f0:	88e3883a 	add	r17,r17,r3
 84098f4:	88c00015 	stw	r3,0(r17)
 84098f8:	9009883a 	mov	r4,r18
 84098fc:	840d4180 	call	840d418 <__malloc_unlock>
 8409900:	80800204 	addi	r2,r16,8
 8409904:	00001b06 	br	8409974 <_malloc_r+0x2a4>
 8409908:	04400404 	movi	r17,16
 840990c:	89402536 	bltu	r17,r5,84099a4 <_malloc_r+0x2d4>
 8409910:	840d3f40 	call	840d3f4 <__malloc_lock>
 8409914:	00800184 	movi	r2,6
 8409918:	01000084 	movi	r4,2
 840991c:	04c21134 	movhi	r19,2116
 8409920:	1085883a 	add	r2,r2,r2
 8409924:	9cea9104 	addi	r19,r19,-21948
 8409928:	1085883a 	add	r2,r2,r2
 840992c:	9885883a 	add	r2,r19,r2
 8409930:	14000117 	ldw	r16,4(r2)
 8409934:	10fffe04 	addi	r3,r2,-8
 8409938:	80c0d926 	beq	r16,r3,8409ca0 <_malloc_r+0x5d0>
 840993c:	80c00117 	ldw	r3,4(r16)
 8409940:	81000317 	ldw	r4,12(r16)
 8409944:	00bfff04 	movi	r2,-4
 8409948:	1884703a 	and	r2,r3,r2
 840994c:	81400217 	ldw	r5,8(r16)
 8409950:	8085883a 	add	r2,r16,r2
 8409954:	10c00117 	ldw	r3,4(r2)
 8409958:	29000315 	stw	r4,12(r5)
 840995c:	21400215 	stw	r5,8(r4)
 8409960:	18c00054 	ori	r3,r3,1
 8409964:	10c00115 	stw	r3,4(r2)
 8409968:	9009883a 	mov	r4,r18
 840996c:	840d4180 	call	840d418 <__malloc_unlock>
 8409970:	80800204 	addi	r2,r16,8
 8409974:	dfc00a17 	ldw	ra,40(sp)
 8409978:	df000917 	ldw	fp,36(sp)
 840997c:	ddc00817 	ldw	r23,32(sp)
 8409980:	dd800717 	ldw	r22,28(sp)
 8409984:	dd400617 	ldw	r21,24(sp)
 8409988:	dd000517 	ldw	r20,20(sp)
 840998c:	dcc00417 	ldw	r19,16(sp)
 8409990:	dc800317 	ldw	r18,12(sp)
 8409994:	dc400217 	ldw	r17,8(sp)
 8409998:	dc000117 	ldw	r16,4(sp)
 840999c:	dec00b04 	addi	sp,sp,44
 84099a0:	f800283a 	ret
 84099a4:	00800304 	movi	r2,12
 84099a8:	90800015 	stw	r2,0(r18)
 84099ac:	0005883a 	mov	r2,zero
 84099b0:	003ff006 	br	8409974 <__alt_data_end+0xfc409974>
 84099b4:	01002004 	movi	r4,128
 84099b8:	02001004 	movi	r8,64
 84099bc:	01c00fc4 	movi	r7,63
 84099c0:	003f6106 	br	8409748 <__alt_data_end+0xfc409748>
 84099c4:	4009883a 	mov	r4,r8
 84099c8:	003f7506 	br	84097a0 <__alt_data_end+0xfc4097a0>
 84099cc:	81000317 	ldw	r4,12(r16)
 84099d0:	003fde06 	br	840994c <__alt_data_end+0xfc40994c>
 84099d4:	81c5883a 	add	r2,r16,r7
 84099d8:	11400117 	ldw	r5,4(r2)
 84099dc:	9009883a 	mov	r4,r18
 84099e0:	29400054 	ori	r5,r5,1
 84099e4:	11400115 	stw	r5,4(r2)
 84099e8:	840d4180 	call	840d418 <__malloc_unlock>
 84099ec:	80800204 	addi	r2,r16,8
 84099f0:	003fe006 	br	8409974 <__alt_data_end+0xfc409974>
 84099f4:	9c000217 	ldw	r16,8(r19)
 84099f8:	00bfff04 	movi	r2,-4
 84099fc:	85800117 	ldw	r22,4(r16)
 8409a00:	b0ac703a 	and	r22,r22,r2
 8409a04:	b4400336 	bltu	r22,r17,8409a14 <_malloc_r+0x344>
 8409a08:	b445c83a 	sub	r2,r22,r17
 8409a0c:	00c003c4 	movi	r3,15
 8409a10:	18805d16 	blt	r3,r2,8409b88 <_malloc_r+0x4b8>
 8409a14:	05c21134 	movhi	r23,2116
 8409a18:	00821134 	movhi	r2,2116
 8409a1c:	10bca204 	addi	r2,r2,-3448
 8409a20:	bdf01804 	addi	r23,r23,-16288
 8409a24:	15400017 	ldw	r21,0(r2)
 8409a28:	b8c00017 	ldw	r3,0(r23)
 8409a2c:	00bfffc4 	movi	r2,-1
 8409a30:	858d883a 	add	r6,r16,r22
 8409a34:	8d6b883a 	add	r21,r17,r21
 8409a38:	1880ea26 	beq	r3,r2,8409de4 <_malloc_r+0x714>
 8409a3c:	ad4403c4 	addi	r21,r21,4111
 8409a40:	00bc0004 	movi	r2,-4096
 8409a44:	a8aa703a 	and	r21,r21,r2
 8409a48:	a80b883a 	mov	r5,r21
 8409a4c:	9009883a 	mov	r4,r18
 8409a50:	d9800015 	stw	r6,0(sp)
 8409a54:	840a2bc0 	call	840a2bc <_sbrk_r>
 8409a58:	1029883a 	mov	r20,r2
 8409a5c:	00bfffc4 	movi	r2,-1
 8409a60:	d9800017 	ldw	r6,0(sp)
 8409a64:	a080e826 	beq	r20,r2,8409e08 <_malloc_r+0x738>
 8409a68:	a180a636 	bltu	r20,r6,8409d04 <_malloc_r+0x634>
 8409a6c:	07021134 	movhi	fp,2116
 8409a70:	e73caf04 	addi	fp,fp,-3396
 8409a74:	e0800017 	ldw	r2,0(fp)
 8409a78:	a887883a 	add	r3,r21,r2
 8409a7c:	e0c00015 	stw	r3,0(fp)
 8409a80:	3500e626 	beq	r6,r20,8409e1c <_malloc_r+0x74c>
 8409a84:	b9000017 	ldw	r4,0(r23)
 8409a88:	00bfffc4 	movi	r2,-1
 8409a8c:	2080ee26 	beq	r4,r2,8409e48 <_malloc_r+0x778>
 8409a90:	a185c83a 	sub	r2,r20,r6
 8409a94:	10c5883a 	add	r2,r2,r3
 8409a98:	e0800015 	stw	r2,0(fp)
 8409a9c:	a0c001cc 	andi	r3,r20,7
 8409aa0:	1800bc26 	beq	r3,zero,8409d94 <_malloc_r+0x6c4>
 8409aa4:	a0e9c83a 	sub	r20,r20,r3
 8409aa8:	00840204 	movi	r2,4104
 8409aac:	a5000204 	addi	r20,r20,8
 8409ab0:	10c7c83a 	sub	r3,r2,r3
 8409ab4:	a545883a 	add	r2,r20,r21
 8409ab8:	1083ffcc 	andi	r2,r2,4095
 8409abc:	18abc83a 	sub	r21,r3,r2
 8409ac0:	a80b883a 	mov	r5,r21
 8409ac4:	9009883a 	mov	r4,r18
 8409ac8:	840a2bc0 	call	840a2bc <_sbrk_r>
 8409acc:	00ffffc4 	movi	r3,-1
 8409ad0:	10c0e126 	beq	r2,r3,8409e58 <_malloc_r+0x788>
 8409ad4:	1505c83a 	sub	r2,r2,r20
 8409ad8:	1545883a 	add	r2,r2,r21
 8409adc:	10800054 	ori	r2,r2,1
 8409ae0:	e0c00017 	ldw	r3,0(fp)
 8409ae4:	9d000215 	stw	r20,8(r19)
 8409ae8:	a0800115 	stw	r2,4(r20)
 8409aec:	a8c7883a 	add	r3,r21,r3
 8409af0:	e0c00015 	stw	r3,0(fp)
 8409af4:	84c00e26 	beq	r16,r19,8409b30 <_malloc_r+0x460>
 8409af8:	018003c4 	movi	r6,15
 8409afc:	3580a72e 	bgeu	r6,r22,8409d9c <_malloc_r+0x6cc>
 8409b00:	81400117 	ldw	r5,4(r16)
 8409b04:	013ffe04 	movi	r4,-8
 8409b08:	b0bffd04 	addi	r2,r22,-12
 8409b0c:	1104703a 	and	r2,r2,r4
 8409b10:	2900004c 	andi	r4,r5,1
 8409b14:	2088b03a 	or	r4,r4,r2
 8409b18:	81000115 	stw	r4,4(r16)
 8409b1c:	01400144 	movi	r5,5
 8409b20:	8089883a 	add	r4,r16,r2
 8409b24:	21400115 	stw	r5,4(r4)
 8409b28:	21400215 	stw	r5,8(r4)
 8409b2c:	3080cd36 	bltu	r6,r2,8409e64 <_malloc_r+0x794>
 8409b30:	00821134 	movhi	r2,2116
 8409b34:	10bca104 	addi	r2,r2,-3452
 8409b38:	11000017 	ldw	r4,0(r2)
 8409b3c:	20c0012e 	bgeu	r4,r3,8409b44 <_malloc_r+0x474>
 8409b40:	10c00015 	stw	r3,0(r2)
 8409b44:	00821134 	movhi	r2,2116
 8409b48:	10bca004 	addi	r2,r2,-3456
 8409b4c:	11000017 	ldw	r4,0(r2)
 8409b50:	9c000217 	ldw	r16,8(r19)
 8409b54:	20c0012e 	bgeu	r4,r3,8409b5c <_malloc_r+0x48c>
 8409b58:	10c00015 	stw	r3,0(r2)
 8409b5c:	80c00117 	ldw	r3,4(r16)
 8409b60:	00bfff04 	movi	r2,-4
 8409b64:	1886703a 	and	r3,r3,r2
 8409b68:	1c45c83a 	sub	r2,r3,r17
 8409b6c:	1c400236 	bltu	r3,r17,8409b78 <_malloc_r+0x4a8>
 8409b70:	00c003c4 	movi	r3,15
 8409b74:	18800416 	blt	r3,r2,8409b88 <_malloc_r+0x4b8>
 8409b78:	9009883a 	mov	r4,r18
 8409b7c:	840d4180 	call	840d418 <__malloc_unlock>
 8409b80:	0005883a 	mov	r2,zero
 8409b84:	003f7b06 	br	8409974 <__alt_data_end+0xfc409974>
 8409b88:	88c00054 	ori	r3,r17,1
 8409b8c:	80c00115 	stw	r3,4(r16)
 8409b90:	8463883a 	add	r17,r16,r17
 8409b94:	10800054 	ori	r2,r2,1
 8409b98:	9c400215 	stw	r17,8(r19)
 8409b9c:	88800115 	stw	r2,4(r17)
 8409ba0:	9009883a 	mov	r4,r18
 8409ba4:	840d4180 	call	840d418 <__malloc_unlock>
 8409ba8:	80800204 	addi	r2,r16,8
 8409bac:	003f7106 	br	8409974 <__alt_data_end+0xfc409974>
 8409bb0:	00c00504 	movi	r3,20
 8409bb4:	18804a2e 	bgeu	r3,r2,8409ce0 <_malloc_r+0x610>
 8409bb8:	00c01504 	movi	r3,84
 8409bbc:	18806e36 	bltu	r3,r2,8409d78 <_malloc_r+0x6a8>
 8409bc0:	8804d33a 	srli	r2,r17,12
 8409bc4:	12001bc4 	addi	r8,r2,111
 8409bc8:	11c01b84 	addi	r7,r2,110
 8409bcc:	4209883a 	add	r4,r8,r8
 8409bd0:	003edd06 	br	8409748 <__alt_data_end+0xfc409748>
 8409bd4:	3804d27a 	srli	r2,r7,9
 8409bd8:	00c00104 	movi	r3,4
 8409bdc:	1880442e 	bgeu	r3,r2,8409cf0 <_malloc_r+0x620>
 8409be0:	00c00504 	movi	r3,20
 8409be4:	18808136 	bltu	r3,r2,8409dec <_malloc_r+0x71c>
 8409be8:	11401704 	addi	r5,r2,92
 8409bec:	10c016c4 	addi	r3,r2,91
 8409bf0:	294b883a 	add	r5,r5,r5
 8409bf4:	294b883a 	add	r5,r5,r5
 8409bf8:	294b883a 	add	r5,r5,r5
 8409bfc:	994b883a 	add	r5,r19,r5
 8409c00:	28800017 	ldw	r2,0(r5)
 8409c04:	01821134 	movhi	r6,2116
 8409c08:	297ffe04 	addi	r5,r5,-8
 8409c0c:	31aa9104 	addi	r6,r6,-21948
 8409c10:	28806526 	beq	r5,r2,8409da8 <_malloc_r+0x6d8>
 8409c14:	01bfff04 	movi	r6,-4
 8409c18:	10c00117 	ldw	r3,4(r2)
 8409c1c:	1986703a 	and	r3,r3,r6
 8409c20:	38c0022e 	bgeu	r7,r3,8409c2c <_malloc_r+0x55c>
 8409c24:	10800217 	ldw	r2,8(r2)
 8409c28:	28bffb1e 	bne	r5,r2,8409c18 <__alt_data_end+0xfc409c18>
 8409c2c:	11400317 	ldw	r5,12(r2)
 8409c30:	98c00117 	ldw	r3,4(r19)
 8409c34:	81400315 	stw	r5,12(r16)
 8409c38:	80800215 	stw	r2,8(r16)
 8409c3c:	2c000215 	stw	r16,8(r5)
 8409c40:	14000315 	stw	r16,12(r2)
 8409c44:	003ef806 	br	8409828 <__alt_data_end+0xfc409828>
 8409c48:	88c00054 	ori	r3,r17,1
 8409c4c:	80c00115 	stw	r3,4(r16)
 8409c50:	8463883a 	add	r17,r16,r17
 8409c54:	34400515 	stw	r17,20(r6)
 8409c58:	34400415 	stw	r17,16(r6)
 8409c5c:	10c00054 	ori	r3,r2,1
 8409c60:	8a000315 	stw	r8,12(r17)
 8409c64:	8a000215 	stw	r8,8(r17)
 8409c68:	88c00115 	stw	r3,4(r17)
 8409c6c:	88a3883a 	add	r17,r17,r2
 8409c70:	88800015 	stw	r2,0(r17)
 8409c74:	9009883a 	mov	r4,r18
 8409c78:	840d4180 	call	840d418 <__malloc_unlock>
 8409c7c:	80800204 	addi	r2,r16,8
 8409c80:	003f3c06 	br	8409974 <__alt_data_end+0xfc409974>
 8409c84:	30c00117 	ldw	r3,4(r6)
 8409c88:	003ee706 	br	8409828 <__alt_data_end+0xfc409828>
 8409c8c:	5ac00044 	addi	r11,r11,1
 8409c90:	588000cc 	andi	r2,r11,3
 8409c94:	31800204 	addi	r6,r6,8
 8409c98:	103efd1e 	bne	r2,zero,8409890 <__alt_data_end+0xfc409890>
 8409c9c:	00002406 	br	8409d30 <_malloc_r+0x660>
 8409ca0:	14000317 	ldw	r16,12(r2)
 8409ca4:	143f251e 	bne	r2,r16,840993c <__alt_data_end+0xfc40993c>
 8409ca8:	21000084 	addi	r4,r4,2
 8409cac:	003ebc06 	br	84097a0 <__alt_data_end+0xfc4097a0>
 8409cb0:	8085883a 	add	r2,r16,r2
 8409cb4:	10c00117 	ldw	r3,4(r2)
 8409cb8:	81000317 	ldw	r4,12(r16)
 8409cbc:	81400217 	ldw	r5,8(r16)
 8409cc0:	18c00054 	ori	r3,r3,1
 8409cc4:	10c00115 	stw	r3,4(r2)
 8409cc8:	29000315 	stw	r4,12(r5)
 8409ccc:	21400215 	stw	r5,8(r4)
 8409cd0:	9009883a 	mov	r4,r18
 8409cd4:	840d4180 	call	840d418 <__malloc_unlock>
 8409cd8:	80800204 	addi	r2,r16,8
 8409cdc:	003f2506 	br	8409974 <__alt_data_end+0xfc409974>
 8409ce0:	12001704 	addi	r8,r2,92
 8409ce4:	11c016c4 	addi	r7,r2,91
 8409ce8:	4209883a 	add	r4,r8,r8
 8409cec:	003e9606 	br	8409748 <__alt_data_end+0xfc409748>
 8409cf0:	3804d1ba 	srli	r2,r7,6
 8409cf4:	11400e44 	addi	r5,r2,57
 8409cf8:	10c00e04 	addi	r3,r2,56
 8409cfc:	294b883a 	add	r5,r5,r5
 8409d00:	003fbc06 	br	8409bf4 <__alt_data_end+0xfc409bf4>
 8409d04:	84ff5926 	beq	r16,r19,8409a6c <__alt_data_end+0xfc409a6c>
 8409d08:	00821134 	movhi	r2,2116
 8409d0c:	10aa9104 	addi	r2,r2,-21948
 8409d10:	14000217 	ldw	r16,8(r2)
 8409d14:	00bfff04 	movi	r2,-4
 8409d18:	80c00117 	ldw	r3,4(r16)
 8409d1c:	1886703a 	and	r3,r3,r2
 8409d20:	003f9106 	br	8409b68 <__alt_data_end+0xfc409b68>
 8409d24:	60800217 	ldw	r2,8(r12)
 8409d28:	213fffc4 	addi	r4,r4,-1
 8409d2c:	1300651e 	bne	r2,r12,8409ec4 <_malloc_r+0x7f4>
 8409d30:	208000cc 	andi	r2,r4,3
 8409d34:	633ffe04 	addi	r12,r12,-8
 8409d38:	103ffa1e 	bne	r2,zero,8409d24 <__alt_data_end+0xfc409d24>
 8409d3c:	98800117 	ldw	r2,4(r19)
 8409d40:	0146303a 	nor	r3,zero,r5
 8409d44:	1884703a 	and	r2,r3,r2
 8409d48:	98800115 	stw	r2,4(r19)
 8409d4c:	294b883a 	add	r5,r5,r5
 8409d50:	117f2836 	bltu	r2,r5,84099f4 <__alt_data_end+0xfc4099f4>
 8409d54:	283f2726 	beq	r5,zero,84099f4 <__alt_data_end+0xfc4099f4>
 8409d58:	2886703a 	and	r3,r5,r2
 8409d5c:	5809883a 	mov	r4,r11
 8409d60:	183ec31e 	bne	r3,zero,8409870 <__alt_data_end+0xfc409870>
 8409d64:	294b883a 	add	r5,r5,r5
 8409d68:	2886703a 	and	r3,r5,r2
 8409d6c:	21000104 	addi	r4,r4,4
 8409d70:	183ffc26 	beq	r3,zero,8409d64 <__alt_data_end+0xfc409d64>
 8409d74:	003ebe06 	br	8409870 <__alt_data_end+0xfc409870>
 8409d78:	00c05504 	movi	r3,340
 8409d7c:	18801236 	bltu	r3,r2,8409dc8 <_malloc_r+0x6f8>
 8409d80:	8804d3fa 	srli	r2,r17,15
 8409d84:	12001e04 	addi	r8,r2,120
 8409d88:	11c01dc4 	addi	r7,r2,119
 8409d8c:	4209883a 	add	r4,r8,r8
 8409d90:	003e6d06 	br	8409748 <__alt_data_end+0xfc409748>
 8409d94:	00c40004 	movi	r3,4096
 8409d98:	003f4606 	br	8409ab4 <__alt_data_end+0xfc409ab4>
 8409d9c:	00800044 	movi	r2,1
 8409da0:	a0800115 	stw	r2,4(r20)
 8409da4:	003f7406 	br	8409b78 <__alt_data_end+0xfc409b78>
 8409da8:	1805d0ba 	srai	r2,r3,2
 8409dac:	01c00044 	movi	r7,1
 8409db0:	30c00117 	ldw	r3,4(r6)
 8409db4:	388e983a 	sll	r7,r7,r2
 8409db8:	2805883a 	mov	r2,r5
 8409dbc:	38c6b03a 	or	r3,r7,r3
 8409dc0:	30c00115 	stw	r3,4(r6)
 8409dc4:	003f9b06 	br	8409c34 <__alt_data_end+0xfc409c34>
 8409dc8:	00c15504 	movi	r3,1364
 8409dcc:	18801a36 	bltu	r3,r2,8409e38 <_malloc_r+0x768>
 8409dd0:	8804d4ba 	srli	r2,r17,18
 8409dd4:	12001f44 	addi	r8,r2,125
 8409dd8:	11c01f04 	addi	r7,r2,124
 8409ddc:	4209883a 	add	r4,r8,r8
 8409de0:	003e5906 	br	8409748 <__alt_data_end+0xfc409748>
 8409de4:	ad400404 	addi	r21,r21,16
 8409de8:	003f1706 	br	8409a48 <__alt_data_end+0xfc409a48>
 8409dec:	00c01504 	movi	r3,84
 8409df0:	18802336 	bltu	r3,r2,8409e80 <_malloc_r+0x7b0>
 8409df4:	3804d33a 	srli	r2,r7,12
 8409df8:	11401bc4 	addi	r5,r2,111
 8409dfc:	10c01b84 	addi	r3,r2,110
 8409e00:	294b883a 	add	r5,r5,r5
 8409e04:	003f7b06 	br	8409bf4 <__alt_data_end+0xfc409bf4>
 8409e08:	9c000217 	ldw	r16,8(r19)
 8409e0c:	00bfff04 	movi	r2,-4
 8409e10:	80c00117 	ldw	r3,4(r16)
 8409e14:	1886703a 	and	r3,r3,r2
 8409e18:	003f5306 	br	8409b68 <__alt_data_end+0xfc409b68>
 8409e1c:	3083ffcc 	andi	r2,r6,4095
 8409e20:	103f181e 	bne	r2,zero,8409a84 <__alt_data_end+0xfc409a84>
 8409e24:	99000217 	ldw	r4,8(r19)
 8409e28:	b545883a 	add	r2,r22,r21
 8409e2c:	10800054 	ori	r2,r2,1
 8409e30:	20800115 	stw	r2,4(r4)
 8409e34:	003f3e06 	br	8409b30 <__alt_data_end+0xfc409b30>
 8409e38:	01003f84 	movi	r4,254
 8409e3c:	02001fc4 	movi	r8,127
 8409e40:	01c01f84 	movi	r7,126
 8409e44:	003e4006 	br	8409748 <__alt_data_end+0xfc409748>
 8409e48:	00821134 	movhi	r2,2116
 8409e4c:	10b01804 	addi	r2,r2,-16288
 8409e50:	15000015 	stw	r20,0(r2)
 8409e54:	003f1106 	br	8409a9c <__alt_data_end+0xfc409a9c>
 8409e58:	00800044 	movi	r2,1
 8409e5c:	002b883a 	mov	r21,zero
 8409e60:	003f1f06 	br	8409ae0 <__alt_data_end+0xfc409ae0>
 8409e64:	81400204 	addi	r5,r16,8
 8409e68:	9009883a 	mov	r4,r18
 8409e6c:	840aa280 	call	840aa28 <_free_r>
 8409e70:	00821134 	movhi	r2,2116
 8409e74:	10bcaf04 	addi	r2,r2,-3396
 8409e78:	10c00017 	ldw	r3,0(r2)
 8409e7c:	003f2c06 	br	8409b30 <__alt_data_end+0xfc409b30>
 8409e80:	00c05504 	movi	r3,340
 8409e84:	18800536 	bltu	r3,r2,8409e9c <_malloc_r+0x7cc>
 8409e88:	3804d3fa 	srli	r2,r7,15
 8409e8c:	11401e04 	addi	r5,r2,120
 8409e90:	10c01dc4 	addi	r3,r2,119
 8409e94:	294b883a 	add	r5,r5,r5
 8409e98:	003f5606 	br	8409bf4 <__alt_data_end+0xfc409bf4>
 8409e9c:	00c15504 	movi	r3,1364
 8409ea0:	18800536 	bltu	r3,r2,8409eb8 <_malloc_r+0x7e8>
 8409ea4:	3804d4ba 	srli	r2,r7,18
 8409ea8:	11401f44 	addi	r5,r2,125
 8409eac:	10c01f04 	addi	r3,r2,124
 8409eb0:	294b883a 	add	r5,r5,r5
 8409eb4:	003f4f06 	br	8409bf4 <__alt_data_end+0xfc409bf4>
 8409eb8:	01403f84 	movi	r5,254
 8409ebc:	00c01f84 	movi	r3,126
 8409ec0:	003f4c06 	br	8409bf4 <__alt_data_end+0xfc409bf4>
 8409ec4:	98800117 	ldw	r2,4(r19)
 8409ec8:	003fa006 	br	8409d4c <__alt_data_end+0xfc409d4c>
 8409ecc:	8808d0fa 	srli	r4,r17,3
 8409ed0:	20800044 	addi	r2,r4,1
 8409ed4:	1085883a 	add	r2,r2,r2
 8409ed8:	003e9006 	br	840991c <__alt_data_end+0xfc40991c>

08409edc <memcpy>:
 8409edc:	defffd04 	addi	sp,sp,-12
 8409ee0:	dfc00215 	stw	ra,8(sp)
 8409ee4:	dc400115 	stw	r17,4(sp)
 8409ee8:	dc000015 	stw	r16,0(sp)
 8409eec:	00c003c4 	movi	r3,15
 8409ef0:	2005883a 	mov	r2,r4
 8409ef4:	1980452e 	bgeu	r3,r6,840a00c <memcpy+0x130>
 8409ef8:	2906b03a 	or	r3,r5,r4
 8409efc:	18c000cc 	andi	r3,r3,3
 8409f00:	1800441e 	bne	r3,zero,840a014 <memcpy+0x138>
 8409f04:	347ffc04 	addi	r17,r6,-16
 8409f08:	8822d13a 	srli	r17,r17,4
 8409f0c:	28c00104 	addi	r3,r5,4
 8409f10:	23400104 	addi	r13,r4,4
 8409f14:	8820913a 	slli	r16,r17,4
 8409f18:	2b000204 	addi	r12,r5,8
 8409f1c:	22c00204 	addi	r11,r4,8
 8409f20:	84000504 	addi	r16,r16,20
 8409f24:	2a800304 	addi	r10,r5,12
 8409f28:	22400304 	addi	r9,r4,12
 8409f2c:	2c21883a 	add	r16,r5,r16
 8409f30:	2811883a 	mov	r8,r5
 8409f34:	200f883a 	mov	r7,r4
 8409f38:	41000017 	ldw	r4,0(r8)
 8409f3c:	1fc00017 	ldw	ra,0(r3)
 8409f40:	63c00017 	ldw	r15,0(r12)
 8409f44:	39000015 	stw	r4,0(r7)
 8409f48:	53800017 	ldw	r14,0(r10)
 8409f4c:	6fc00015 	stw	ra,0(r13)
 8409f50:	5bc00015 	stw	r15,0(r11)
 8409f54:	4b800015 	stw	r14,0(r9)
 8409f58:	18c00404 	addi	r3,r3,16
 8409f5c:	39c00404 	addi	r7,r7,16
 8409f60:	42000404 	addi	r8,r8,16
 8409f64:	6b400404 	addi	r13,r13,16
 8409f68:	63000404 	addi	r12,r12,16
 8409f6c:	5ac00404 	addi	r11,r11,16
 8409f70:	52800404 	addi	r10,r10,16
 8409f74:	4a400404 	addi	r9,r9,16
 8409f78:	1c3fef1e 	bne	r3,r16,8409f38 <__alt_data_end+0xfc409f38>
 8409f7c:	89c00044 	addi	r7,r17,1
 8409f80:	380e913a 	slli	r7,r7,4
 8409f84:	310003cc 	andi	r4,r6,15
 8409f88:	02c000c4 	movi	r11,3
 8409f8c:	11c7883a 	add	r3,r2,r7
 8409f90:	29cb883a 	add	r5,r5,r7
 8409f94:	5900212e 	bgeu	r11,r4,840a01c <memcpy+0x140>
 8409f98:	1813883a 	mov	r9,r3
 8409f9c:	2811883a 	mov	r8,r5
 8409fa0:	200f883a 	mov	r7,r4
 8409fa4:	42800017 	ldw	r10,0(r8)
 8409fa8:	4a400104 	addi	r9,r9,4
 8409fac:	39ffff04 	addi	r7,r7,-4
 8409fb0:	4abfff15 	stw	r10,-4(r9)
 8409fb4:	42000104 	addi	r8,r8,4
 8409fb8:	59fffa36 	bltu	r11,r7,8409fa4 <__alt_data_end+0xfc409fa4>
 8409fbc:	213fff04 	addi	r4,r4,-4
 8409fc0:	2008d0ba 	srli	r4,r4,2
 8409fc4:	318000cc 	andi	r6,r6,3
 8409fc8:	21000044 	addi	r4,r4,1
 8409fcc:	2109883a 	add	r4,r4,r4
 8409fd0:	2109883a 	add	r4,r4,r4
 8409fd4:	1907883a 	add	r3,r3,r4
 8409fd8:	290b883a 	add	r5,r5,r4
 8409fdc:	30000626 	beq	r6,zero,8409ff8 <memcpy+0x11c>
 8409fe0:	198d883a 	add	r6,r3,r6
 8409fe4:	29c00003 	ldbu	r7,0(r5)
 8409fe8:	18c00044 	addi	r3,r3,1
 8409fec:	29400044 	addi	r5,r5,1
 8409ff0:	19ffffc5 	stb	r7,-1(r3)
 8409ff4:	19bffb1e 	bne	r3,r6,8409fe4 <__alt_data_end+0xfc409fe4>
 8409ff8:	dfc00217 	ldw	ra,8(sp)
 8409ffc:	dc400117 	ldw	r17,4(sp)
 840a000:	dc000017 	ldw	r16,0(sp)
 840a004:	dec00304 	addi	sp,sp,12
 840a008:	f800283a 	ret
 840a00c:	2007883a 	mov	r3,r4
 840a010:	003ff206 	br	8409fdc <__alt_data_end+0xfc409fdc>
 840a014:	2007883a 	mov	r3,r4
 840a018:	003ff106 	br	8409fe0 <__alt_data_end+0xfc409fe0>
 840a01c:	200d883a 	mov	r6,r4
 840a020:	003fee06 	br	8409fdc <__alt_data_end+0xfc409fdc>

0840a024 <memset>:
 840a024:	20c000cc 	andi	r3,r4,3
 840a028:	2005883a 	mov	r2,r4
 840a02c:	18004426 	beq	r3,zero,840a140 <memset+0x11c>
 840a030:	31ffffc4 	addi	r7,r6,-1
 840a034:	30004026 	beq	r6,zero,840a138 <memset+0x114>
 840a038:	2813883a 	mov	r9,r5
 840a03c:	200d883a 	mov	r6,r4
 840a040:	2007883a 	mov	r3,r4
 840a044:	00000406 	br	840a058 <memset+0x34>
 840a048:	3a3fffc4 	addi	r8,r7,-1
 840a04c:	31800044 	addi	r6,r6,1
 840a050:	38003926 	beq	r7,zero,840a138 <memset+0x114>
 840a054:	400f883a 	mov	r7,r8
 840a058:	18c00044 	addi	r3,r3,1
 840a05c:	32400005 	stb	r9,0(r6)
 840a060:	1a0000cc 	andi	r8,r3,3
 840a064:	403ff81e 	bne	r8,zero,840a048 <__alt_data_end+0xfc40a048>
 840a068:	010000c4 	movi	r4,3
 840a06c:	21c02d2e 	bgeu	r4,r7,840a124 <memset+0x100>
 840a070:	29003fcc 	andi	r4,r5,255
 840a074:	200c923a 	slli	r6,r4,8
 840a078:	3108b03a 	or	r4,r6,r4
 840a07c:	200c943a 	slli	r6,r4,16
 840a080:	218cb03a 	or	r6,r4,r6
 840a084:	010003c4 	movi	r4,15
 840a088:	21c0182e 	bgeu	r4,r7,840a0ec <memset+0xc8>
 840a08c:	3b3ffc04 	addi	r12,r7,-16
 840a090:	6018d13a 	srli	r12,r12,4
 840a094:	1a000104 	addi	r8,r3,4
 840a098:	1ac00204 	addi	r11,r3,8
 840a09c:	6008913a 	slli	r4,r12,4
 840a0a0:	1a800304 	addi	r10,r3,12
 840a0a4:	1813883a 	mov	r9,r3
 840a0a8:	21000504 	addi	r4,r4,20
 840a0ac:	1909883a 	add	r4,r3,r4
 840a0b0:	49800015 	stw	r6,0(r9)
 840a0b4:	41800015 	stw	r6,0(r8)
 840a0b8:	59800015 	stw	r6,0(r11)
 840a0bc:	51800015 	stw	r6,0(r10)
 840a0c0:	42000404 	addi	r8,r8,16
 840a0c4:	4a400404 	addi	r9,r9,16
 840a0c8:	5ac00404 	addi	r11,r11,16
 840a0cc:	52800404 	addi	r10,r10,16
 840a0d0:	413ff71e 	bne	r8,r4,840a0b0 <__alt_data_end+0xfc40a0b0>
 840a0d4:	63000044 	addi	r12,r12,1
 840a0d8:	6018913a 	slli	r12,r12,4
 840a0dc:	39c003cc 	andi	r7,r7,15
 840a0e0:	010000c4 	movi	r4,3
 840a0e4:	1b07883a 	add	r3,r3,r12
 840a0e8:	21c00e2e 	bgeu	r4,r7,840a124 <memset+0x100>
 840a0ec:	1813883a 	mov	r9,r3
 840a0f0:	3811883a 	mov	r8,r7
 840a0f4:	010000c4 	movi	r4,3
 840a0f8:	49800015 	stw	r6,0(r9)
 840a0fc:	423fff04 	addi	r8,r8,-4
 840a100:	4a400104 	addi	r9,r9,4
 840a104:	223ffc36 	bltu	r4,r8,840a0f8 <__alt_data_end+0xfc40a0f8>
 840a108:	393fff04 	addi	r4,r7,-4
 840a10c:	2008d0ba 	srli	r4,r4,2
 840a110:	39c000cc 	andi	r7,r7,3
 840a114:	21000044 	addi	r4,r4,1
 840a118:	2109883a 	add	r4,r4,r4
 840a11c:	2109883a 	add	r4,r4,r4
 840a120:	1907883a 	add	r3,r3,r4
 840a124:	38000526 	beq	r7,zero,840a13c <memset+0x118>
 840a128:	19cf883a 	add	r7,r3,r7
 840a12c:	19400005 	stb	r5,0(r3)
 840a130:	18c00044 	addi	r3,r3,1
 840a134:	38fffd1e 	bne	r7,r3,840a12c <__alt_data_end+0xfc40a12c>
 840a138:	f800283a 	ret
 840a13c:	f800283a 	ret
 840a140:	2007883a 	mov	r3,r4
 840a144:	300f883a 	mov	r7,r6
 840a148:	003fc706 	br	840a068 <__alt_data_end+0xfc40a068>

0840a14c <_putchar_r>:
 840a14c:	21800217 	ldw	r6,8(r4)
 840a150:	840b6181 	jmpi	840b618 <_putc_r>

0840a154 <putchar>:
 840a154:	00821134 	movhi	r2,2116
 840a158:	10b01704 	addi	r2,r2,-16292
 840a15c:	200b883a 	mov	r5,r4
 840a160:	11000017 	ldw	r4,0(r2)
 840a164:	21800217 	ldw	r6,8(r4)
 840a168:	840b6181 	jmpi	840b618 <_putc_r>

0840a16c <_puts_r>:
 840a16c:	defff604 	addi	sp,sp,-40
 840a170:	dc000715 	stw	r16,28(sp)
 840a174:	2021883a 	mov	r16,r4
 840a178:	2809883a 	mov	r4,r5
 840a17c:	dc400815 	stw	r17,32(sp)
 840a180:	dfc00915 	stw	ra,36(sp)
 840a184:	2823883a 	mov	r17,r5
 840a188:	840a47c0 	call	840a47c <strlen>
 840a18c:	10c00044 	addi	r3,r2,1
 840a190:	d8800115 	stw	r2,4(sp)
 840a194:	00821134 	movhi	r2,2116
 840a198:	10a39a04 	addi	r2,r2,-29080
 840a19c:	d8800215 	stw	r2,8(sp)
 840a1a0:	00800044 	movi	r2,1
 840a1a4:	d8800315 	stw	r2,12(sp)
 840a1a8:	00800084 	movi	r2,2
 840a1ac:	dc400015 	stw	r17,0(sp)
 840a1b0:	d8c00615 	stw	r3,24(sp)
 840a1b4:	dec00415 	stw	sp,16(sp)
 840a1b8:	d8800515 	stw	r2,20(sp)
 840a1bc:	80000226 	beq	r16,zero,840a1c8 <_puts_r+0x5c>
 840a1c0:	80800e17 	ldw	r2,56(r16)
 840a1c4:	10001426 	beq	r2,zero,840a218 <_puts_r+0xac>
 840a1c8:	81400217 	ldw	r5,8(r16)
 840a1cc:	2880030b 	ldhu	r2,12(r5)
 840a1d0:	10c8000c 	andi	r3,r2,8192
 840a1d4:	1800061e 	bne	r3,zero,840a1f0 <_puts_r+0x84>
 840a1d8:	29001917 	ldw	r4,100(r5)
 840a1dc:	00f7ffc4 	movi	r3,-8193
 840a1e0:	10880014 	ori	r2,r2,8192
 840a1e4:	20c6703a 	and	r3,r4,r3
 840a1e8:	2880030d 	sth	r2,12(r5)
 840a1ec:	28c01915 	stw	r3,100(r5)
 840a1f0:	d9800404 	addi	r6,sp,16
 840a1f4:	8009883a 	mov	r4,r16
 840a1f8:	840ad380 	call	840ad38 <__sfvwrite_r>
 840a1fc:	1000091e 	bne	r2,zero,840a224 <_puts_r+0xb8>
 840a200:	00800284 	movi	r2,10
 840a204:	dfc00917 	ldw	ra,36(sp)
 840a208:	dc400817 	ldw	r17,32(sp)
 840a20c:	dc000717 	ldw	r16,28(sp)
 840a210:	dec00a04 	addi	sp,sp,40
 840a214:	f800283a 	ret
 840a218:	8009883a 	mov	r4,r16
 840a21c:	840a8b40 	call	840a8b4 <__sinit>
 840a220:	003fe906 	br	840a1c8 <__alt_data_end+0xfc40a1c8>
 840a224:	00bfffc4 	movi	r2,-1
 840a228:	003ff606 	br	840a204 <__alt_data_end+0xfc40a204>

0840a22c <puts>:
 840a22c:	00821134 	movhi	r2,2116
 840a230:	10b01704 	addi	r2,r2,-16292
 840a234:	200b883a 	mov	r5,r4
 840a238:	11000017 	ldw	r4,0(r2)
 840a23c:	840a16c1 	jmpi	840a16c <_puts_r>

0840a240 <srand>:
 840a240:	00821134 	movhi	r2,2116
 840a244:	10b01704 	addi	r2,r2,-16292
 840a248:	10800017 	ldw	r2,0(r2)
 840a24c:	11002915 	stw	r4,164(r2)
 840a250:	10002a15 	stw	zero,168(r2)
 840a254:	f800283a 	ret

0840a258 <rand>:
 840a258:	00821134 	movhi	r2,2116
 840a25c:	defffe04 	addi	sp,sp,-8
 840a260:	10b01704 	addi	r2,r2,-16292
 840a264:	dc000015 	stw	r16,0(sp)
 840a268:	14000017 	ldw	r16,0(r2)
 840a26c:	dfc00115 	stw	ra,4(sp)
 840a270:	01932574 	movhi	r6,19605
 840a274:	81002917 	ldw	r4,164(r16)
 840a278:	81402a17 	ldw	r5,168(r16)
 840a27c:	01d614b4 	movhi	r7,22610
 840a280:	319fcb44 	addi	r6,r6,32557
 840a284:	39fd0b44 	addi	r7,r7,-3027
 840a288:	840c8580 	call	840c858 <__muldi3>
 840a28c:	11000044 	addi	r4,r2,1
 840a290:	2085803a 	cmpltu	r2,r4,r2
 840a294:	10c7883a 	add	r3,r2,r3
 840a298:	00a00034 	movhi	r2,32768
 840a29c:	10bfffc4 	addi	r2,r2,-1
 840a2a0:	1884703a 	and	r2,r3,r2
 840a2a4:	81002915 	stw	r4,164(r16)
 840a2a8:	80c02a15 	stw	r3,168(r16)
 840a2ac:	dfc00117 	ldw	ra,4(sp)
 840a2b0:	dc000017 	ldw	r16,0(sp)
 840a2b4:	dec00204 	addi	sp,sp,8
 840a2b8:	f800283a 	ret

0840a2bc <_sbrk_r>:
 840a2bc:	defffd04 	addi	sp,sp,-12
 840a2c0:	dc000015 	stw	r16,0(sp)
 840a2c4:	04021134 	movhi	r16,2116
 840a2c8:	dc400115 	stw	r17,4(sp)
 840a2cc:	843ca304 	addi	r16,r16,-3444
 840a2d0:	2023883a 	mov	r17,r4
 840a2d4:	2809883a 	mov	r4,r5
 840a2d8:	dfc00215 	stw	ra,8(sp)
 840a2dc:	80000015 	stw	zero,0(r16)
 840a2e0:	840d5d80 	call	840d5d8 <sbrk>
 840a2e4:	00ffffc4 	movi	r3,-1
 840a2e8:	10c00526 	beq	r2,r3,840a300 <_sbrk_r+0x44>
 840a2ec:	dfc00217 	ldw	ra,8(sp)
 840a2f0:	dc400117 	ldw	r17,4(sp)
 840a2f4:	dc000017 	ldw	r16,0(sp)
 840a2f8:	dec00304 	addi	sp,sp,12
 840a2fc:	f800283a 	ret
 840a300:	80c00017 	ldw	r3,0(r16)
 840a304:	183ff926 	beq	r3,zero,840a2ec <__alt_data_end+0xfc40a2ec>
 840a308:	88c00015 	stw	r3,0(r17)
 840a30c:	003ff706 	br	840a2ec <__alt_data_end+0xfc40a2ec>

0840a310 <strcmp>:
 840a310:	2144b03a 	or	r2,r4,r5
 840a314:	108000cc 	andi	r2,r2,3
 840a318:	1000171e 	bne	r2,zero,840a378 <strcmp+0x68>
 840a31c:	20800017 	ldw	r2,0(r4)
 840a320:	28c00017 	ldw	r3,0(r5)
 840a324:	10c0141e 	bne	r2,r3,840a378 <strcmp+0x68>
 840a328:	027fbff4 	movhi	r9,65279
 840a32c:	4a7fbfc4 	addi	r9,r9,-257
 840a330:	0086303a 	nor	r3,zero,r2
 840a334:	02202074 	movhi	r8,32897
 840a338:	1245883a 	add	r2,r2,r9
 840a33c:	42202004 	addi	r8,r8,-32640
 840a340:	10c4703a 	and	r2,r2,r3
 840a344:	1204703a 	and	r2,r2,r8
 840a348:	10000226 	beq	r2,zero,840a354 <strcmp+0x44>
 840a34c:	00002306 	br	840a3dc <strcmp+0xcc>
 840a350:	1000221e 	bne	r2,zero,840a3dc <strcmp+0xcc>
 840a354:	21000104 	addi	r4,r4,4
 840a358:	20c00017 	ldw	r3,0(r4)
 840a35c:	29400104 	addi	r5,r5,4
 840a360:	29800017 	ldw	r6,0(r5)
 840a364:	1a4f883a 	add	r7,r3,r9
 840a368:	00c4303a 	nor	r2,zero,r3
 840a36c:	3884703a 	and	r2,r7,r2
 840a370:	1204703a 	and	r2,r2,r8
 840a374:	19bff626 	beq	r3,r6,840a350 <__alt_data_end+0xfc40a350>
 840a378:	20800003 	ldbu	r2,0(r4)
 840a37c:	10c03fcc 	andi	r3,r2,255
 840a380:	18c0201c 	xori	r3,r3,128
 840a384:	18ffe004 	addi	r3,r3,-128
 840a388:	18000c26 	beq	r3,zero,840a3bc <strcmp+0xac>
 840a38c:	29800007 	ldb	r6,0(r5)
 840a390:	19800326 	beq	r3,r6,840a3a0 <strcmp+0x90>
 840a394:	00001306 	br	840a3e4 <strcmp+0xd4>
 840a398:	29800007 	ldb	r6,0(r5)
 840a39c:	11800b1e 	bne	r2,r6,840a3cc <strcmp+0xbc>
 840a3a0:	21000044 	addi	r4,r4,1
 840a3a4:	20c00003 	ldbu	r3,0(r4)
 840a3a8:	29400044 	addi	r5,r5,1
 840a3ac:	18803fcc 	andi	r2,r3,255
 840a3b0:	1080201c 	xori	r2,r2,128
 840a3b4:	10bfe004 	addi	r2,r2,-128
 840a3b8:	103ff71e 	bne	r2,zero,840a398 <__alt_data_end+0xfc40a398>
 840a3bc:	0007883a 	mov	r3,zero
 840a3c0:	28800003 	ldbu	r2,0(r5)
 840a3c4:	1885c83a 	sub	r2,r3,r2
 840a3c8:	f800283a 	ret
 840a3cc:	28800003 	ldbu	r2,0(r5)
 840a3d0:	18c03fcc 	andi	r3,r3,255
 840a3d4:	1885c83a 	sub	r2,r3,r2
 840a3d8:	f800283a 	ret
 840a3dc:	0005883a 	mov	r2,zero
 840a3e0:	f800283a 	ret
 840a3e4:	10c03fcc 	andi	r3,r2,255
 840a3e8:	003ff506 	br	840a3c0 <__alt_data_end+0xfc40a3c0>

0840a3ec <strcpy>:
 840a3ec:	2906b03a 	or	r3,r5,r4
 840a3f0:	18c000cc 	andi	r3,r3,3
 840a3f4:	2005883a 	mov	r2,r4
 840a3f8:	1800161e 	bne	r3,zero,840a454 <strcpy+0x68>
 840a3fc:	29c00017 	ldw	r7,0(r5)
 840a400:	02ffbff4 	movhi	r11,65279
 840a404:	5affbfc4 	addi	r11,r11,-257
 840a408:	02a02074 	movhi	r10,32897
 840a40c:	01c6303a 	nor	r3,zero,r7
 840a410:	3ac9883a 	add	r4,r7,r11
 840a414:	52a02004 	addi	r10,r10,-32640
 840a418:	20c6703a 	and	r3,r4,r3
 840a41c:	1a86703a 	and	r3,r3,r10
 840a420:	18000c1e 	bne	r3,zero,840a454 <strcpy+0x68>
 840a424:	1011883a 	mov	r8,r2
 840a428:	41c00015 	stw	r7,0(r8)
 840a42c:	29400104 	addi	r5,r5,4
 840a430:	29c00017 	ldw	r7,0(r5)
 840a434:	41800104 	addi	r6,r8,4
 840a438:	3011883a 	mov	r8,r6
 840a43c:	3ad3883a 	add	r9,r7,r11
 840a440:	01c6303a 	nor	r3,zero,r7
 840a444:	48c6703a 	and	r3,r9,r3
 840a448:	1a86703a 	and	r3,r3,r10
 840a44c:	183ff626 	beq	r3,zero,840a428 <__alt_data_end+0xfc40a428>
 840a450:	00000106 	br	840a458 <strcpy+0x6c>
 840a454:	100d883a 	mov	r6,r2
 840a458:	28c00003 	ldbu	r3,0(r5)
 840a45c:	31800044 	addi	r6,r6,1
 840a460:	29400044 	addi	r5,r5,1
 840a464:	30ffffc5 	stb	r3,-1(r6)
 840a468:	18c03fcc 	andi	r3,r3,255
 840a46c:	18c0201c 	xori	r3,r3,128
 840a470:	18ffe004 	addi	r3,r3,-128
 840a474:	183ff81e 	bne	r3,zero,840a458 <__alt_data_end+0xfc40a458>
 840a478:	f800283a 	ret

0840a47c <strlen>:
 840a47c:	208000cc 	andi	r2,r4,3
 840a480:	10002026 	beq	r2,zero,840a504 <strlen+0x88>
 840a484:	20800007 	ldb	r2,0(r4)
 840a488:	10002026 	beq	r2,zero,840a50c <strlen+0x90>
 840a48c:	2005883a 	mov	r2,r4
 840a490:	00000206 	br	840a49c <strlen+0x20>
 840a494:	10c00007 	ldb	r3,0(r2)
 840a498:	18001826 	beq	r3,zero,840a4fc <strlen+0x80>
 840a49c:	10800044 	addi	r2,r2,1
 840a4a0:	10c000cc 	andi	r3,r2,3
 840a4a4:	183ffb1e 	bne	r3,zero,840a494 <__alt_data_end+0xfc40a494>
 840a4a8:	10c00017 	ldw	r3,0(r2)
 840a4ac:	01ffbff4 	movhi	r7,65279
 840a4b0:	39ffbfc4 	addi	r7,r7,-257
 840a4b4:	00ca303a 	nor	r5,zero,r3
 840a4b8:	01a02074 	movhi	r6,32897
 840a4bc:	19c7883a 	add	r3,r3,r7
 840a4c0:	31a02004 	addi	r6,r6,-32640
 840a4c4:	1946703a 	and	r3,r3,r5
 840a4c8:	1986703a 	and	r3,r3,r6
 840a4cc:	1800091e 	bne	r3,zero,840a4f4 <strlen+0x78>
 840a4d0:	10800104 	addi	r2,r2,4
 840a4d4:	10c00017 	ldw	r3,0(r2)
 840a4d8:	19cb883a 	add	r5,r3,r7
 840a4dc:	00c6303a 	nor	r3,zero,r3
 840a4e0:	28c6703a 	and	r3,r5,r3
 840a4e4:	1986703a 	and	r3,r3,r6
 840a4e8:	183ff926 	beq	r3,zero,840a4d0 <__alt_data_end+0xfc40a4d0>
 840a4ec:	00000106 	br	840a4f4 <strlen+0x78>
 840a4f0:	10800044 	addi	r2,r2,1
 840a4f4:	10c00007 	ldb	r3,0(r2)
 840a4f8:	183ffd1e 	bne	r3,zero,840a4f0 <__alt_data_end+0xfc40a4f0>
 840a4fc:	1105c83a 	sub	r2,r2,r4
 840a500:	f800283a 	ret
 840a504:	2005883a 	mov	r2,r4
 840a508:	003fe706 	br	840a4a8 <__alt_data_end+0xfc40a4a8>
 840a50c:	0005883a 	mov	r2,zero
 840a510:	f800283a 	ret

0840a514 <time>:
 840a514:	00821134 	movhi	r2,2116
 840a518:	defffc04 	addi	sp,sp,-16
 840a51c:	10b01704 	addi	r2,r2,-16292
 840a520:	dc000215 	stw	r16,8(sp)
 840a524:	2021883a 	mov	r16,r4
 840a528:	11000017 	ldw	r4,0(r2)
 840a52c:	000d883a 	mov	r6,zero
 840a530:	d80b883a 	mov	r5,sp
 840a534:	dfc00315 	stw	ra,12(sp)
 840a538:	840b37c0 	call	840b37c <_gettimeofday_r>
 840a53c:	10000716 	blt	r2,zero,840a55c <time+0x48>
 840a540:	d8800017 	ldw	r2,0(sp)
 840a544:	80000126 	beq	r16,zero,840a54c <time+0x38>
 840a548:	80800015 	stw	r2,0(r16)
 840a54c:	dfc00317 	ldw	ra,12(sp)
 840a550:	dc000217 	ldw	r16,8(sp)
 840a554:	dec00404 	addi	sp,sp,16
 840a558:	f800283a 	ret
 840a55c:	00bfffc4 	movi	r2,-1
 840a560:	003ffa06 	br	840a54c <__alt_data_end+0xfc40a54c>

0840a564 <__fp_unlock>:
 840a564:	0005883a 	mov	r2,zero
 840a568:	f800283a 	ret

0840a56c <_cleanup_r>:
 840a56c:	01421074 	movhi	r5,2113
 840a570:	29706004 	addi	r5,r5,-16000
 840a574:	840b2b81 	jmpi	840b2b8 <_fwalk_reent>

0840a578 <__sinit.part.1>:
 840a578:	defff704 	addi	sp,sp,-36
 840a57c:	00c21074 	movhi	r3,2113
 840a580:	dfc00815 	stw	ra,32(sp)
 840a584:	ddc00715 	stw	r23,28(sp)
 840a588:	dd800615 	stw	r22,24(sp)
 840a58c:	dd400515 	stw	r21,20(sp)
 840a590:	dd000415 	stw	r20,16(sp)
 840a594:	dcc00315 	stw	r19,12(sp)
 840a598:	dc800215 	stw	r18,8(sp)
 840a59c:	dc400115 	stw	r17,4(sp)
 840a5a0:	dc000015 	stw	r16,0(sp)
 840a5a4:	18e95b04 	addi	r3,r3,-23188
 840a5a8:	24000117 	ldw	r16,4(r4)
 840a5ac:	20c00f15 	stw	r3,60(r4)
 840a5b0:	2080bb04 	addi	r2,r4,748
 840a5b4:	00c000c4 	movi	r3,3
 840a5b8:	20c0b915 	stw	r3,740(r4)
 840a5bc:	2080ba15 	stw	r2,744(r4)
 840a5c0:	2000b815 	stw	zero,736(r4)
 840a5c4:	05c00204 	movi	r23,8
 840a5c8:	00800104 	movi	r2,4
 840a5cc:	2025883a 	mov	r18,r4
 840a5d0:	b80d883a 	mov	r6,r23
 840a5d4:	81001704 	addi	r4,r16,92
 840a5d8:	000b883a 	mov	r5,zero
 840a5dc:	80000015 	stw	zero,0(r16)
 840a5e0:	80000115 	stw	zero,4(r16)
 840a5e4:	80000215 	stw	zero,8(r16)
 840a5e8:	8080030d 	sth	r2,12(r16)
 840a5ec:	80001915 	stw	zero,100(r16)
 840a5f0:	8000038d 	sth	zero,14(r16)
 840a5f4:	80000415 	stw	zero,16(r16)
 840a5f8:	80000515 	stw	zero,20(r16)
 840a5fc:	80000615 	stw	zero,24(r16)
 840a600:	840a0240 	call	840a024 <memset>
 840a604:	05821074 	movhi	r22,2113
 840a608:	94400217 	ldw	r17,8(r18)
 840a60c:	05421074 	movhi	r21,2113
 840a610:	05021074 	movhi	r20,2113
 840a614:	04c21074 	movhi	r19,2113
 840a618:	b5af3904 	addi	r22,r22,-17180
 840a61c:	ad6f5004 	addi	r21,r21,-17088
 840a620:	a52f6f04 	addi	r20,r20,-16964
 840a624:	9cef8604 	addi	r19,r19,-16872
 840a628:	85800815 	stw	r22,32(r16)
 840a62c:	85400915 	stw	r21,36(r16)
 840a630:	85000a15 	stw	r20,40(r16)
 840a634:	84c00b15 	stw	r19,44(r16)
 840a638:	84000715 	stw	r16,28(r16)
 840a63c:	00800284 	movi	r2,10
 840a640:	8880030d 	sth	r2,12(r17)
 840a644:	00800044 	movi	r2,1
 840a648:	b80d883a 	mov	r6,r23
 840a64c:	89001704 	addi	r4,r17,92
 840a650:	000b883a 	mov	r5,zero
 840a654:	88000015 	stw	zero,0(r17)
 840a658:	88000115 	stw	zero,4(r17)
 840a65c:	88000215 	stw	zero,8(r17)
 840a660:	88001915 	stw	zero,100(r17)
 840a664:	8880038d 	sth	r2,14(r17)
 840a668:	88000415 	stw	zero,16(r17)
 840a66c:	88000515 	stw	zero,20(r17)
 840a670:	88000615 	stw	zero,24(r17)
 840a674:	840a0240 	call	840a024 <memset>
 840a678:	94000317 	ldw	r16,12(r18)
 840a67c:	00800484 	movi	r2,18
 840a680:	8c400715 	stw	r17,28(r17)
 840a684:	8d800815 	stw	r22,32(r17)
 840a688:	8d400915 	stw	r21,36(r17)
 840a68c:	8d000a15 	stw	r20,40(r17)
 840a690:	8cc00b15 	stw	r19,44(r17)
 840a694:	8080030d 	sth	r2,12(r16)
 840a698:	00800084 	movi	r2,2
 840a69c:	80000015 	stw	zero,0(r16)
 840a6a0:	80000115 	stw	zero,4(r16)
 840a6a4:	80000215 	stw	zero,8(r16)
 840a6a8:	80001915 	stw	zero,100(r16)
 840a6ac:	8080038d 	sth	r2,14(r16)
 840a6b0:	80000415 	stw	zero,16(r16)
 840a6b4:	80000515 	stw	zero,20(r16)
 840a6b8:	80000615 	stw	zero,24(r16)
 840a6bc:	b80d883a 	mov	r6,r23
 840a6c0:	000b883a 	mov	r5,zero
 840a6c4:	81001704 	addi	r4,r16,92
 840a6c8:	840a0240 	call	840a024 <memset>
 840a6cc:	00800044 	movi	r2,1
 840a6d0:	84000715 	stw	r16,28(r16)
 840a6d4:	85800815 	stw	r22,32(r16)
 840a6d8:	85400915 	stw	r21,36(r16)
 840a6dc:	85000a15 	stw	r20,40(r16)
 840a6e0:	84c00b15 	stw	r19,44(r16)
 840a6e4:	90800e15 	stw	r2,56(r18)
 840a6e8:	dfc00817 	ldw	ra,32(sp)
 840a6ec:	ddc00717 	ldw	r23,28(sp)
 840a6f0:	dd800617 	ldw	r22,24(sp)
 840a6f4:	dd400517 	ldw	r21,20(sp)
 840a6f8:	dd000417 	ldw	r20,16(sp)
 840a6fc:	dcc00317 	ldw	r19,12(sp)
 840a700:	dc800217 	ldw	r18,8(sp)
 840a704:	dc400117 	ldw	r17,4(sp)
 840a708:	dc000017 	ldw	r16,0(sp)
 840a70c:	dec00904 	addi	sp,sp,36
 840a710:	f800283a 	ret

0840a714 <__fp_lock>:
 840a714:	0005883a 	mov	r2,zero
 840a718:	f800283a 	ret

0840a71c <__sfmoreglue>:
 840a71c:	defffc04 	addi	sp,sp,-16
 840a720:	dc400115 	stw	r17,4(sp)
 840a724:	2c7fffc4 	addi	r17,r5,-1
 840a728:	8c401a24 	muli	r17,r17,104
 840a72c:	dc800215 	stw	r18,8(sp)
 840a730:	2825883a 	mov	r18,r5
 840a734:	89401d04 	addi	r5,r17,116
 840a738:	dc000015 	stw	r16,0(sp)
 840a73c:	dfc00315 	stw	ra,12(sp)
 840a740:	84096d00 	call	84096d0 <_malloc_r>
 840a744:	1021883a 	mov	r16,r2
 840a748:	10000726 	beq	r2,zero,840a768 <__sfmoreglue+0x4c>
 840a74c:	11000304 	addi	r4,r2,12
 840a750:	10000015 	stw	zero,0(r2)
 840a754:	14800115 	stw	r18,4(r2)
 840a758:	11000215 	stw	r4,8(r2)
 840a75c:	89801a04 	addi	r6,r17,104
 840a760:	000b883a 	mov	r5,zero
 840a764:	840a0240 	call	840a024 <memset>
 840a768:	8005883a 	mov	r2,r16
 840a76c:	dfc00317 	ldw	ra,12(sp)
 840a770:	dc800217 	ldw	r18,8(sp)
 840a774:	dc400117 	ldw	r17,4(sp)
 840a778:	dc000017 	ldw	r16,0(sp)
 840a77c:	dec00404 	addi	sp,sp,16
 840a780:	f800283a 	ret

0840a784 <__sfp>:
 840a784:	defffb04 	addi	sp,sp,-20
 840a788:	dc000015 	stw	r16,0(sp)
 840a78c:	04021134 	movhi	r16,2116
 840a790:	84301604 	addi	r16,r16,-16296
 840a794:	dcc00315 	stw	r19,12(sp)
 840a798:	2027883a 	mov	r19,r4
 840a79c:	81000017 	ldw	r4,0(r16)
 840a7a0:	dfc00415 	stw	ra,16(sp)
 840a7a4:	dc800215 	stw	r18,8(sp)
 840a7a8:	20800e17 	ldw	r2,56(r4)
 840a7ac:	dc400115 	stw	r17,4(sp)
 840a7b0:	1000021e 	bne	r2,zero,840a7bc <__sfp+0x38>
 840a7b4:	840a5780 	call	840a578 <__sinit.part.1>
 840a7b8:	81000017 	ldw	r4,0(r16)
 840a7bc:	2480b804 	addi	r18,r4,736
 840a7c0:	047fffc4 	movi	r17,-1
 840a7c4:	91000117 	ldw	r4,4(r18)
 840a7c8:	94000217 	ldw	r16,8(r18)
 840a7cc:	213fffc4 	addi	r4,r4,-1
 840a7d0:	20000a16 	blt	r4,zero,840a7fc <__sfp+0x78>
 840a7d4:	8080030f 	ldh	r2,12(r16)
 840a7d8:	10000c26 	beq	r2,zero,840a80c <__sfp+0x88>
 840a7dc:	80c01d04 	addi	r3,r16,116
 840a7e0:	00000206 	br	840a7ec <__sfp+0x68>
 840a7e4:	18bfe60f 	ldh	r2,-104(r3)
 840a7e8:	10000826 	beq	r2,zero,840a80c <__sfp+0x88>
 840a7ec:	213fffc4 	addi	r4,r4,-1
 840a7f0:	1c3ffd04 	addi	r16,r3,-12
 840a7f4:	18c01a04 	addi	r3,r3,104
 840a7f8:	247ffa1e 	bne	r4,r17,840a7e4 <__alt_data_end+0xfc40a7e4>
 840a7fc:	90800017 	ldw	r2,0(r18)
 840a800:	10001d26 	beq	r2,zero,840a878 <__sfp+0xf4>
 840a804:	1025883a 	mov	r18,r2
 840a808:	003fee06 	br	840a7c4 <__alt_data_end+0xfc40a7c4>
 840a80c:	00bfffc4 	movi	r2,-1
 840a810:	8080038d 	sth	r2,14(r16)
 840a814:	00800044 	movi	r2,1
 840a818:	8080030d 	sth	r2,12(r16)
 840a81c:	80001915 	stw	zero,100(r16)
 840a820:	80000015 	stw	zero,0(r16)
 840a824:	80000215 	stw	zero,8(r16)
 840a828:	80000115 	stw	zero,4(r16)
 840a82c:	80000415 	stw	zero,16(r16)
 840a830:	80000515 	stw	zero,20(r16)
 840a834:	80000615 	stw	zero,24(r16)
 840a838:	01800204 	movi	r6,8
 840a83c:	000b883a 	mov	r5,zero
 840a840:	81001704 	addi	r4,r16,92
 840a844:	840a0240 	call	840a024 <memset>
 840a848:	8005883a 	mov	r2,r16
 840a84c:	80000c15 	stw	zero,48(r16)
 840a850:	80000d15 	stw	zero,52(r16)
 840a854:	80001115 	stw	zero,68(r16)
 840a858:	80001215 	stw	zero,72(r16)
 840a85c:	dfc00417 	ldw	ra,16(sp)
 840a860:	dcc00317 	ldw	r19,12(sp)
 840a864:	dc800217 	ldw	r18,8(sp)
 840a868:	dc400117 	ldw	r17,4(sp)
 840a86c:	dc000017 	ldw	r16,0(sp)
 840a870:	dec00504 	addi	sp,sp,20
 840a874:	f800283a 	ret
 840a878:	01400104 	movi	r5,4
 840a87c:	9809883a 	mov	r4,r19
 840a880:	840a71c0 	call	840a71c <__sfmoreglue>
 840a884:	90800015 	stw	r2,0(r18)
 840a888:	103fde1e 	bne	r2,zero,840a804 <__alt_data_end+0xfc40a804>
 840a88c:	00800304 	movi	r2,12
 840a890:	98800015 	stw	r2,0(r19)
 840a894:	0005883a 	mov	r2,zero
 840a898:	003ff006 	br	840a85c <__alt_data_end+0xfc40a85c>

0840a89c <_cleanup>:
 840a89c:	00821134 	movhi	r2,2116
 840a8a0:	10b01604 	addi	r2,r2,-16296
 840a8a4:	11000017 	ldw	r4,0(r2)
 840a8a8:	01421074 	movhi	r5,2113
 840a8ac:	29706004 	addi	r5,r5,-16000
 840a8b0:	840b2b81 	jmpi	840b2b8 <_fwalk_reent>

0840a8b4 <__sinit>:
 840a8b4:	20800e17 	ldw	r2,56(r4)
 840a8b8:	10000126 	beq	r2,zero,840a8c0 <__sinit+0xc>
 840a8bc:	f800283a 	ret
 840a8c0:	840a5781 	jmpi	840a578 <__sinit.part.1>

0840a8c4 <__sfp_lock_acquire>:
 840a8c4:	f800283a 	ret

0840a8c8 <__sfp_lock_release>:
 840a8c8:	f800283a 	ret

0840a8cc <__sinit_lock_acquire>:
 840a8cc:	f800283a 	ret

0840a8d0 <__sinit_lock_release>:
 840a8d0:	f800283a 	ret

0840a8d4 <__fp_lock_all>:
 840a8d4:	00821134 	movhi	r2,2116
 840a8d8:	10b01704 	addi	r2,r2,-16292
 840a8dc:	11000017 	ldw	r4,0(r2)
 840a8e0:	01421074 	movhi	r5,2113
 840a8e4:	2969c504 	addi	r5,r5,-22764
 840a8e8:	840b1f41 	jmpi	840b1f4 <_fwalk>

0840a8ec <__fp_unlock_all>:
 840a8ec:	00821134 	movhi	r2,2116
 840a8f0:	10b01704 	addi	r2,r2,-16292
 840a8f4:	11000017 	ldw	r4,0(r2)
 840a8f8:	01421074 	movhi	r5,2113
 840a8fc:	29695904 	addi	r5,r5,-23196
 840a900:	840b1f41 	jmpi	840b1f4 <_fwalk>

0840a904 <_malloc_trim_r>:
 840a904:	defffb04 	addi	sp,sp,-20
 840a908:	dcc00315 	stw	r19,12(sp)
 840a90c:	04c21134 	movhi	r19,2116
 840a910:	dc800215 	stw	r18,8(sp)
 840a914:	dc400115 	stw	r17,4(sp)
 840a918:	dc000015 	stw	r16,0(sp)
 840a91c:	dfc00415 	stw	ra,16(sp)
 840a920:	2821883a 	mov	r16,r5
 840a924:	9cea9104 	addi	r19,r19,-21948
 840a928:	2025883a 	mov	r18,r4
 840a92c:	840d3f40 	call	840d3f4 <__malloc_lock>
 840a930:	98800217 	ldw	r2,8(r19)
 840a934:	14400117 	ldw	r17,4(r2)
 840a938:	00bfff04 	movi	r2,-4
 840a93c:	88a2703a 	and	r17,r17,r2
 840a940:	8c21c83a 	sub	r16,r17,r16
 840a944:	8403fbc4 	addi	r16,r16,4079
 840a948:	8020d33a 	srli	r16,r16,12
 840a94c:	0083ffc4 	movi	r2,4095
 840a950:	843fffc4 	addi	r16,r16,-1
 840a954:	8020933a 	slli	r16,r16,12
 840a958:	1400060e 	bge	r2,r16,840a974 <_malloc_trim_r+0x70>
 840a95c:	000b883a 	mov	r5,zero
 840a960:	9009883a 	mov	r4,r18
 840a964:	840a2bc0 	call	840a2bc <_sbrk_r>
 840a968:	98c00217 	ldw	r3,8(r19)
 840a96c:	1c47883a 	add	r3,r3,r17
 840a970:	10c00a26 	beq	r2,r3,840a99c <_malloc_trim_r+0x98>
 840a974:	9009883a 	mov	r4,r18
 840a978:	840d4180 	call	840d418 <__malloc_unlock>
 840a97c:	0005883a 	mov	r2,zero
 840a980:	dfc00417 	ldw	ra,16(sp)
 840a984:	dcc00317 	ldw	r19,12(sp)
 840a988:	dc800217 	ldw	r18,8(sp)
 840a98c:	dc400117 	ldw	r17,4(sp)
 840a990:	dc000017 	ldw	r16,0(sp)
 840a994:	dec00504 	addi	sp,sp,20
 840a998:	f800283a 	ret
 840a99c:	040bc83a 	sub	r5,zero,r16
 840a9a0:	9009883a 	mov	r4,r18
 840a9a4:	840a2bc0 	call	840a2bc <_sbrk_r>
 840a9a8:	00ffffc4 	movi	r3,-1
 840a9ac:	10c00d26 	beq	r2,r3,840a9e4 <_malloc_trim_r+0xe0>
 840a9b0:	00c21134 	movhi	r3,2116
 840a9b4:	18fcaf04 	addi	r3,r3,-3396
 840a9b8:	18800017 	ldw	r2,0(r3)
 840a9bc:	99000217 	ldw	r4,8(r19)
 840a9c0:	8c23c83a 	sub	r17,r17,r16
 840a9c4:	8c400054 	ori	r17,r17,1
 840a9c8:	1421c83a 	sub	r16,r2,r16
 840a9cc:	24400115 	stw	r17,4(r4)
 840a9d0:	9009883a 	mov	r4,r18
 840a9d4:	1c000015 	stw	r16,0(r3)
 840a9d8:	840d4180 	call	840d418 <__malloc_unlock>
 840a9dc:	00800044 	movi	r2,1
 840a9e0:	003fe706 	br	840a980 <__alt_data_end+0xfc40a980>
 840a9e4:	000b883a 	mov	r5,zero
 840a9e8:	9009883a 	mov	r4,r18
 840a9ec:	840a2bc0 	call	840a2bc <_sbrk_r>
 840a9f0:	99000217 	ldw	r4,8(r19)
 840a9f4:	014003c4 	movi	r5,15
 840a9f8:	1107c83a 	sub	r3,r2,r4
 840a9fc:	28ffdd0e 	bge	r5,r3,840a974 <__alt_data_end+0xfc40a974>
 840aa00:	01421134 	movhi	r5,2116
 840aa04:	29701804 	addi	r5,r5,-16288
 840aa08:	29400017 	ldw	r5,0(r5)
 840aa0c:	18c00054 	ori	r3,r3,1
 840aa10:	20c00115 	stw	r3,4(r4)
 840aa14:	00c21134 	movhi	r3,2116
 840aa18:	1145c83a 	sub	r2,r2,r5
 840aa1c:	18fcaf04 	addi	r3,r3,-3396
 840aa20:	18800015 	stw	r2,0(r3)
 840aa24:	003fd306 	br	840a974 <__alt_data_end+0xfc40a974>

0840aa28 <_free_r>:
 840aa28:	28004126 	beq	r5,zero,840ab30 <_free_r+0x108>
 840aa2c:	defffd04 	addi	sp,sp,-12
 840aa30:	dc400115 	stw	r17,4(sp)
 840aa34:	dc000015 	stw	r16,0(sp)
 840aa38:	2023883a 	mov	r17,r4
 840aa3c:	2821883a 	mov	r16,r5
 840aa40:	dfc00215 	stw	ra,8(sp)
 840aa44:	840d3f40 	call	840d3f4 <__malloc_lock>
 840aa48:	81ffff17 	ldw	r7,-4(r16)
 840aa4c:	00bfff84 	movi	r2,-2
 840aa50:	01021134 	movhi	r4,2116
 840aa54:	81bffe04 	addi	r6,r16,-8
 840aa58:	3884703a 	and	r2,r7,r2
 840aa5c:	212a9104 	addi	r4,r4,-21948
 840aa60:	308b883a 	add	r5,r6,r2
 840aa64:	2a400117 	ldw	r9,4(r5)
 840aa68:	22000217 	ldw	r8,8(r4)
 840aa6c:	00ffff04 	movi	r3,-4
 840aa70:	48c6703a 	and	r3,r9,r3
 840aa74:	2a005726 	beq	r5,r8,840abd4 <_free_r+0x1ac>
 840aa78:	28c00115 	stw	r3,4(r5)
 840aa7c:	39c0004c 	andi	r7,r7,1
 840aa80:	3800091e 	bne	r7,zero,840aaa8 <_free_r+0x80>
 840aa84:	823ffe17 	ldw	r8,-8(r16)
 840aa88:	22400204 	addi	r9,r4,8
 840aa8c:	320dc83a 	sub	r6,r6,r8
 840aa90:	31c00217 	ldw	r7,8(r6)
 840aa94:	1205883a 	add	r2,r2,r8
 840aa98:	3a406526 	beq	r7,r9,840ac30 <_free_r+0x208>
 840aa9c:	32000317 	ldw	r8,12(r6)
 840aaa0:	3a000315 	stw	r8,12(r7)
 840aaa4:	41c00215 	stw	r7,8(r8)
 840aaa8:	28cf883a 	add	r7,r5,r3
 840aaac:	39c00117 	ldw	r7,4(r7)
 840aab0:	39c0004c 	andi	r7,r7,1
 840aab4:	38003a26 	beq	r7,zero,840aba0 <_free_r+0x178>
 840aab8:	10c00054 	ori	r3,r2,1
 840aabc:	30c00115 	stw	r3,4(r6)
 840aac0:	3087883a 	add	r3,r6,r2
 840aac4:	18800015 	stw	r2,0(r3)
 840aac8:	00c07fc4 	movi	r3,511
 840aacc:	18801936 	bltu	r3,r2,840ab34 <_free_r+0x10c>
 840aad0:	1004d0fa 	srli	r2,r2,3
 840aad4:	01c00044 	movi	r7,1
 840aad8:	21400117 	ldw	r5,4(r4)
 840aadc:	10c00044 	addi	r3,r2,1
 840aae0:	18c7883a 	add	r3,r3,r3
 840aae4:	1005d0ba 	srai	r2,r2,2
 840aae8:	18c7883a 	add	r3,r3,r3
 840aaec:	18c7883a 	add	r3,r3,r3
 840aaf0:	1907883a 	add	r3,r3,r4
 840aaf4:	3884983a 	sll	r2,r7,r2
 840aaf8:	19c00017 	ldw	r7,0(r3)
 840aafc:	1a3ffe04 	addi	r8,r3,-8
 840ab00:	1144b03a 	or	r2,r2,r5
 840ab04:	32000315 	stw	r8,12(r6)
 840ab08:	31c00215 	stw	r7,8(r6)
 840ab0c:	20800115 	stw	r2,4(r4)
 840ab10:	19800015 	stw	r6,0(r3)
 840ab14:	39800315 	stw	r6,12(r7)
 840ab18:	8809883a 	mov	r4,r17
 840ab1c:	dfc00217 	ldw	ra,8(sp)
 840ab20:	dc400117 	ldw	r17,4(sp)
 840ab24:	dc000017 	ldw	r16,0(sp)
 840ab28:	dec00304 	addi	sp,sp,12
 840ab2c:	840d4181 	jmpi	840d418 <__malloc_unlock>
 840ab30:	f800283a 	ret
 840ab34:	100ad27a 	srli	r5,r2,9
 840ab38:	00c00104 	movi	r3,4
 840ab3c:	19404a36 	bltu	r3,r5,840ac68 <_free_r+0x240>
 840ab40:	100ad1ba 	srli	r5,r2,6
 840ab44:	28c00e44 	addi	r3,r5,57
 840ab48:	18c7883a 	add	r3,r3,r3
 840ab4c:	29400e04 	addi	r5,r5,56
 840ab50:	18c7883a 	add	r3,r3,r3
 840ab54:	18c7883a 	add	r3,r3,r3
 840ab58:	1909883a 	add	r4,r3,r4
 840ab5c:	20c00017 	ldw	r3,0(r4)
 840ab60:	01c21134 	movhi	r7,2116
 840ab64:	213ffe04 	addi	r4,r4,-8
 840ab68:	39ea9104 	addi	r7,r7,-21948
 840ab6c:	20c04426 	beq	r4,r3,840ac80 <_free_r+0x258>
 840ab70:	01ffff04 	movi	r7,-4
 840ab74:	19400117 	ldw	r5,4(r3)
 840ab78:	29ca703a 	and	r5,r5,r7
 840ab7c:	1140022e 	bgeu	r2,r5,840ab88 <_free_r+0x160>
 840ab80:	18c00217 	ldw	r3,8(r3)
 840ab84:	20fffb1e 	bne	r4,r3,840ab74 <__alt_data_end+0xfc40ab74>
 840ab88:	19000317 	ldw	r4,12(r3)
 840ab8c:	31000315 	stw	r4,12(r6)
 840ab90:	30c00215 	stw	r3,8(r6)
 840ab94:	21800215 	stw	r6,8(r4)
 840ab98:	19800315 	stw	r6,12(r3)
 840ab9c:	003fde06 	br	840ab18 <__alt_data_end+0xfc40ab18>
 840aba0:	29c00217 	ldw	r7,8(r5)
 840aba4:	10c5883a 	add	r2,r2,r3
 840aba8:	00c21134 	movhi	r3,2116
 840abac:	18ea9304 	addi	r3,r3,-21940
 840abb0:	38c03b26 	beq	r7,r3,840aca0 <_free_r+0x278>
 840abb4:	2a000317 	ldw	r8,12(r5)
 840abb8:	11400054 	ori	r5,r2,1
 840abbc:	3087883a 	add	r3,r6,r2
 840abc0:	3a000315 	stw	r8,12(r7)
 840abc4:	41c00215 	stw	r7,8(r8)
 840abc8:	31400115 	stw	r5,4(r6)
 840abcc:	18800015 	stw	r2,0(r3)
 840abd0:	003fbd06 	br	840aac8 <__alt_data_end+0xfc40aac8>
 840abd4:	39c0004c 	andi	r7,r7,1
 840abd8:	10c5883a 	add	r2,r2,r3
 840abdc:	3800071e 	bne	r7,zero,840abfc <_free_r+0x1d4>
 840abe0:	81fffe17 	ldw	r7,-8(r16)
 840abe4:	31cdc83a 	sub	r6,r6,r7
 840abe8:	30c00317 	ldw	r3,12(r6)
 840abec:	31400217 	ldw	r5,8(r6)
 840abf0:	11c5883a 	add	r2,r2,r7
 840abf4:	28c00315 	stw	r3,12(r5)
 840abf8:	19400215 	stw	r5,8(r3)
 840abfc:	10c00054 	ori	r3,r2,1
 840ac00:	30c00115 	stw	r3,4(r6)
 840ac04:	00c21134 	movhi	r3,2116
 840ac08:	18f01904 	addi	r3,r3,-16284
 840ac0c:	18c00017 	ldw	r3,0(r3)
 840ac10:	21800215 	stw	r6,8(r4)
 840ac14:	10ffc036 	bltu	r2,r3,840ab18 <__alt_data_end+0xfc40ab18>
 840ac18:	00821134 	movhi	r2,2116
 840ac1c:	10bca204 	addi	r2,r2,-3448
 840ac20:	11400017 	ldw	r5,0(r2)
 840ac24:	8809883a 	mov	r4,r17
 840ac28:	840a9040 	call	840a904 <_malloc_trim_r>
 840ac2c:	003fba06 	br	840ab18 <__alt_data_end+0xfc40ab18>
 840ac30:	28c9883a 	add	r4,r5,r3
 840ac34:	21000117 	ldw	r4,4(r4)
 840ac38:	2100004c 	andi	r4,r4,1
 840ac3c:	2000391e 	bne	r4,zero,840ad24 <_free_r+0x2fc>
 840ac40:	29c00217 	ldw	r7,8(r5)
 840ac44:	29000317 	ldw	r4,12(r5)
 840ac48:	1885883a 	add	r2,r3,r2
 840ac4c:	10c00054 	ori	r3,r2,1
 840ac50:	39000315 	stw	r4,12(r7)
 840ac54:	21c00215 	stw	r7,8(r4)
 840ac58:	30c00115 	stw	r3,4(r6)
 840ac5c:	308d883a 	add	r6,r6,r2
 840ac60:	30800015 	stw	r2,0(r6)
 840ac64:	003fac06 	br	840ab18 <__alt_data_end+0xfc40ab18>
 840ac68:	00c00504 	movi	r3,20
 840ac6c:	19401536 	bltu	r3,r5,840acc4 <_free_r+0x29c>
 840ac70:	28c01704 	addi	r3,r5,92
 840ac74:	18c7883a 	add	r3,r3,r3
 840ac78:	294016c4 	addi	r5,r5,91
 840ac7c:	003fb406 	br	840ab50 <__alt_data_end+0xfc40ab50>
 840ac80:	280bd0ba 	srai	r5,r5,2
 840ac84:	00c00044 	movi	r3,1
 840ac88:	38800117 	ldw	r2,4(r7)
 840ac8c:	194a983a 	sll	r5,r3,r5
 840ac90:	2007883a 	mov	r3,r4
 840ac94:	2884b03a 	or	r2,r5,r2
 840ac98:	38800115 	stw	r2,4(r7)
 840ac9c:	003fbb06 	br	840ab8c <__alt_data_end+0xfc40ab8c>
 840aca0:	21800515 	stw	r6,20(r4)
 840aca4:	21800415 	stw	r6,16(r4)
 840aca8:	10c00054 	ori	r3,r2,1
 840acac:	31c00315 	stw	r7,12(r6)
 840acb0:	31c00215 	stw	r7,8(r6)
 840acb4:	30c00115 	stw	r3,4(r6)
 840acb8:	308d883a 	add	r6,r6,r2
 840acbc:	30800015 	stw	r2,0(r6)
 840acc0:	003f9506 	br	840ab18 <__alt_data_end+0xfc40ab18>
 840acc4:	00c01504 	movi	r3,84
 840acc8:	19400536 	bltu	r3,r5,840ace0 <_free_r+0x2b8>
 840accc:	100ad33a 	srli	r5,r2,12
 840acd0:	28c01bc4 	addi	r3,r5,111
 840acd4:	18c7883a 	add	r3,r3,r3
 840acd8:	29401b84 	addi	r5,r5,110
 840acdc:	003f9c06 	br	840ab50 <__alt_data_end+0xfc40ab50>
 840ace0:	00c05504 	movi	r3,340
 840ace4:	19400536 	bltu	r3,r5,840acfc <_free_r+0x2d4>
 840ace8:	100ad3fa 	srli	r5,r2,15
 840acec:	28c01e04 	addi	r3,r5,120
 840acf0:	18c7883a 	add	r3,r3,r3
 840acf4:	29401dc4 	addi	r5,r5,119
 840acf8:	003f9506 	br	840ab50 <__alt_data_end+0xfc40ab50>
 840acfc:	00c15504 	movi	r3,1364
 840ad00:	19400536 	bltu	r3,r5,840ad18 <_free_r+0x2f0>
 840ad04:	100ad4ba 	srli	r5,r2,18
 840ad08:	28c01f44 	addi	r3,r5,125
 840ad0c:	18c7883a 	add	r3,r3,r3
 840ad10:	29401f04 	addi	r5,r5,124
 840ad14:	003f8e06 	br	840ab50 <__alt_data_end+0xfc40ab50>
 840ad18:	00c03f84 	movi	r3,254
 840ad1c:	01401f84 	movi	r5,126
 840ad20:	003f8b06 	br	840ab50 <__alt_data_end+0xfc40ab50>
 840ad24:	10c00054 	ori	r3,r2,1
 840ad28:	30c00115 	stw	r3,4(r6)
 840ad2c:	308d883a 	add	r6,r6,r2
 840ad30:	30800015 	stw	r2,0(r6)
 840ad34:	003f7806 	br	840ab18 <__alt_data_end+0xfc40ab18>

0840ad38 <__sfvwrite_r>:
 840ad38:	30800217 	ldw	r2,8(r6)
 840ad3c:	10006726 	beq	r2,zero,840aedc <__sfvwrite_r+0x1a4>
 840ad40:	28c0030b 	ldhu	r3,12(r5)
 840ad44:	defff404 	addi	sp,sp,-48
 840ad48:	dd400715 	stw	r21,28(sp)
 840ad4c:	dd000615 	stw	r20,24(sp)
 840ad50:	dc000215 	stw	r16,8(sp)
 840ad54:	dfc00b15 	stw	ra,44(sp)
 840ad58:	df000a15 	stw	fp,40(sp)
 840ad5c:	ddc00915 	stw	r23,36(sp)
 840ad60:	dd800815 	stw	r22,32(sp)
 840ad64:	dcc00515 	stw	r19,20(sp)
 840ad68:	dc800415 	stw	r18,16(sp)
 840ad6c:	dc400315 	stw	r17,12(sp)
 840ad70:	1880020c 	andi	r2,r3,8
 840ad74:	2821883a 	mov	r16,r5
 840ad78:	202b883a 	mov	r21,r4
 840ad7c:	3029883a 	mov	r20,r6
 840ad80:	10002726 	beq	r2,zero,840ae20 <__sfvwrite_r+0xe8>
 840ad84:	28800417 	ldw	r2,16(r5)
 840ad88:	10002526 	beq	r2,zero,840ae20 <__sfvwrite_r+0xe8>
 840ad8c:	1880008c 	andi	r2,r3,2
 840ad90:	a4400017 	ldw	r17,0(r20)
 840ad94:	10002a26 	beq	r2,zero,840ae40 <__sfvwrite_r+0x108>
 840ad98:	05a00034 	movhi	r22,32768
 840ad9c:	0027883a 	mov	r19,zero
 840ada0:	0025883a 	mov	r18,zero
 840ada4:	b5bf0004 	addi	r22,r22,-1024
 840ada8:	980d883a 	mov	r6,r19
 840adac:	a809883a 	mov	r4,r21
 840adb0:	90004626 	beq	r18,zero,840aecc <__sfvwrite_r+0x194>
 840adb4:	900f883a 	mov	r7,r18
 840adb8:	b480022e 	bgeu	r22,r18,840adc4 <__sfvwrite_r+0x8c>
 840adbc:	01e00034 	movhi	r7,32768
 840adc0:	39ff0004 	addi	r7,r7,-1024
 840adc4:	80800917 	ldw	r2,36(r16)
 840adc8:	81400717 	ldw	r5,28(r16)
 840adcc:	103ee83a 	callr	r2
 840add0:	0080570e 	bge	zero,r2,840af30 <__sfvwrite_r+0x1f8>
 840add4:	a0c00217 	ldw	r3,8(r20)
 840add8:	98a7883a 	add	r19,r19,r2
 840addc:	90a5c83a 	sub	r18,r18,r2
 840ade0:	1885c83a 	sub	r2,r3,r2
 840ade4:	a0800215 	stw	r2,8(r20)
 840ade8:	103fef1e 	bne	r2,zero,840ada8 <__alt_data_end+0xfc40ada8>
 840adec:	0005883a 	mov	r2,zero
 840adf0:	dfc00b17 	ldw	ra,44(sp)
 840adf4:	df000a17 	ldw	fp,40(sp)
 840adf8:	ddc00917 	ldw	r23,36(sp)
 840adfc:	dd800817 	ldw	r22,32(sp)
 840ae00:	dd400717 	ldw	r21,28(sp)
 840ae04:	dd000617 	ldw	r20,24(sp)
 840ae08:	dcc00517 	ldw	r19,20(sp)
 840ae0c:	dc800417 	ldw	r18,16(sp)
 840ae10:	dc400317 	ldw	r17,12(sp)
 840ae14:	dc000217 	ldw	r16,8(sp)
 840ae18:	dec00c04 	addi	sp,sp,48
 840ae1c:	f800283a 	ret
 840ae20:	800b883a 	mov	r5,r16
 840ae24:	a809883a 	mov	r4,r21
 840ae28:	840bfd80 	call	840bfd8 <__swsetup_r>
 840ae2c:	1000eb1e 	bne	r2,zero,840b1dc <__sfvwrite_r+0x4a4>
 840ae30:	80c0030b 	ldhu	r3,12(r16)
 840ae34:	a4400017 	ldw	r17,0(r20)
 840ae38:	1880008c 	andi	r2,r3,2
 840ae3c:	103fd61e 	bne	r2,zero,840ad98 <__alt_data_end+0xfc40ad98>
 840ae40:	1880004c 	andi	r2,r3,1
 840ae44:	10003f1e 	bne	r2,zero,840af44 <__sfvwrite_r+0x20c>
 840ae48:	0039883a 	mov	fp,zero
 840ae4c:	0025883a 	mov	r18,zero
 840ae50:	90001a26 	beq	r18,zero,840aebc <__sfvwrite_r+0x184>
 840ae54:	1880800c 	andi	r2,r3,512
 840ae58:	84c00217 	ldw	r19,8(r16)
 840ae5c:	10002126 	beq	r2,zero,840aee4 <__sfvwrite_r+0x1ac>
 840ae60:	982f883a 	mov	r23,r19
 840ae64:	94c09336 	bltu	r18,r19,840b0b4 <__sfvwrite_r+0x37c>
 840ae68:	1881200c 	andi	r2,r3,1152
 840ae6c:	10009e1e 	bne	r2,zero,840b0e8 <__sfvwrite_r+0x3b0>
 840ae70:	81000017 	ldw	r4,0(r16)
 840ae74:	b80d883a 	mov	r6,r23
 840ae78:	e00b883a 	mov	r5,fp
 840ae7c:	840b4bc0 	call	840b4bc <memmove>
 840ae80:	80c00217 	ldw	r3,8(r16)
 840ae84:	81000017 	ldw	r4,0(r16)
 840ae88:	9005883a 	mov	r2,r18
 840ae8c:	1ce7c83a 	sub	r19,r3,r19
 840ae90:	25cf883a 	add	r7,r4,r23
 840ae94:	84c00215 	stw	r19,8(r16)
 840ae98:	81c00015 	stw	r7,0(r16)
 840ae9c:	a0c00217 	ldw	r3,8(r20)
 840aea0:	e0b9883a 	add	fp,fp,r2
 840aea4:	90a5c83a 	sub	r18,r18,r2
 840aea8:	18a7c83a 	sub	r19,r3,r2
 840aeac:	a4c00215 	stw	r19,8(r20)
 840aeb0:	983fce26 	beq	r19,zero,840adec <__alt_data_end+0xfc40adec>
 840aeb4:	80c0030b 	ldhu	r3,12(r16)
 840aeb8:	903fe61e 	bne	r18,zero,840ae54 <__alt_data_end+0xfc40ae54>
 840aebc:	8f000017 	ldw	fp,0(r17)
 840aec0:	8c800117 	ldw	r18,4(r17)
 840aec4:	8c400204 	addi	r17,r17,8
 840aec8:	003fe106 	br	840ae50 <__alt_data_end+0xfc40ae50>
 840aecc:	8cc00017 	ldw	r19,0(r17)
 840aed0:	8c800117 	ldw	r18,4(r17)
 840aed4:	8c400204 	addi	r17,r17,8
 840aed8:	003fb306 	br	840ada8 <__alt_data_end+0xfc40ada8>
 840aedc:	0005883a 	mov	r2,zero
 840aee0:	f800283a 	ret
 840aee4:	81000017 	ldw	r4,0(r16)
 840aee8:	80800417 	ldw	r2,16(r16)
 840aeec:	11005736 	bltu	r2,r4,840b04c <__sfvwrite_r+0x314>
 840aef0:	85c00517 	ldw	r23,20(r16)
 840aef4:	95c05536 	bltu	r18,r23,840b04c <__sfvwrite_r+0x314>
 840aef8:	00a00034 	movhi	r2,32768
 840aefc:	10bfffc4 	addi	r2,r2,-1
 840af00:	9009883a 	mov	r4,r18
 840af04:	1480012e 	bgeu	r2,r18,840af0c <__sfvwrite_r+0x1d4>
 840af08:	1009883a 	mov	r4,r2
 840af0c:	b80b883a 	mov	r5,r23
 840af10:	8406fac0 	call	8406fac <__divsi3>
 840af14:	15cf383a 	mul	r7,r2,r23
 840af18:	81400717 	ldw	r5,28(r16)
 840af1c:	80800917 	ldw	r2,36(r16)
 840af20:	e00d883a 	mov	r6,fp
 840af24:	a809883a 	mov	r4,r21
 840af28:	103ee83a 	callr	r2
 840af2c:	00bfdb16 	blt	zero,r2,840ae9c <__alt_data_end+0xfc40ae9c>
 840af30:	8080030b 	ldhu	r2,12(r16)
 840af34:	10801014 	ori	r2,r2,64
 840af38:	8080030d 	sth	r2,12(r16)
 840af3c:	00bfffc4 	movi	r2,-1
 840af40:	003fab06 	br	840adf0 <__alt_data_end+0xfc40adf0>
 840af44:	0027883a 	mov	r19,zero
 840af48:	0011883a 	mov	r8,zero
 840af4c:	0039883a 	mov	fp,zero
 840af50:	0025883a 	mov	r18,zero
 840af54:	90001f26 	beq	r18,zero,840afd4 <__sfvwrite_r+0x29c>
 840af58:	40005a26 	beq	r8,zero,840b0c4 <__sfvwrite_r+0x38c>
 840af5c:	982d883a 	mov	r22,r19
 840af60:	94c0012e 	bgeu	r18,r19,840af68 <__sfvwrite_r+0x230>
 840af64:	902d883a 	mov	r22,r18
 840af68:	81000017 	ldw	r4,0(r16)
 840af6c:	80800417 	ldw	r2,16(r16)
 840af70:	b02f883a 	mov	r23,r22
 840af74:	81c00517 	ldw	r7,20(r16)
 840af78:	1100032e 	bgeu	r2,r4,840af88 <__sfvwrite_r+0x250>
 840af7c:	80c00217 	ldw	r3,8(r16)
 840af80:	38c7883a 	add	r3,r7,r3
 840af84:	1d801816 	blt	r3,r22,840afe8 <__sfvwrite_r+0x2b0>
 840af88:	b1c03e16 	blt	r22,r7,840b084 <__sfvwrite_r+0x34c>
 840af8c:	80800917 	ldw	r2,36(r16)
 840af90:	81400717 	ldw	r5,28(r16)
 840af94:	e00d883a 	mov	r6,fp
 840af98:	da000115 	stw	r8,4(sp)
 840af9c:	a809883a 	mov	r4,r21
 840afa0:	103ee83a 	callr	r2
 840afa4:	102f883a 	mov	r23,r2
 840afa8:	da000117 	ldw	r8,4(sp)
 840afac:	00bfe00e 	bge	zero,r2,840af30 <__alt_data_end+0xfc40af30>
 840afb0:	9de7c83a 	sub	r19,r19,r23
 840afb4:	98001f26 	beq	r19,zero,840b034 <__sfvwrite_r+0x2fc>
 840afb8:	a0800217 	ldw	r2,8(r20)
 840afbc:	e5f9883a 	add	fp,fp,r23
 840afc0:	95e5c83a 	sub	r18,r18,r23
 840afc4:	15efc83a 	sub	r23,r2,r23
 840afc8:	a5c00215 	stw	r23,8(r20)
 840afcc:	b83f8726 	beq	r23,zero,840adec <__alt_data_end+0xfc40adec>
 840afd0:	903fe11e 	bne	r18,zero,840af58 <__alt_data_end+0xfc40af58>
 840afd4:	8f000017 	ldw	fp,0(r17)
 840afd8:	8c800117 	ldw	r18,4(r17)
 840afdc:	0011883a 	mov	r8,zero
 840afe0:	8c400204 	addi	r17,r17,8
 840afe4:	003fdb06 	br	840af54 <__alt_data_end+0xfc40af54>
 840afe8:	180d883a 	mov	r6,r3
 840afec:	e00b883a 	mov	r5,fp
 840aff0:	da000115 	stw	r8,4(sp)
 840aff4:	d8c00015 	stw	r3,0(sp)
 840aff8:	840b4bc0 	call	840b4bc <memmove>
 840affc:	d8c00017 	ldw	r3,0(sp)
 840b000:	80800017 	ldw	r2,0(r16)
 840b004:	800b883a 	mov	r5,r16
 840b008:	a809883a 	mov	r4,r21
 840b00c:	10c5883a 	add	r2,r2,r3
 840b010:	80800015 	stw	r2,0(r16)
 840b014:	d8c00015 	stw	r3,0(sp)
 840b018:	840c4a00 	call	840c4a0 <_fflush_r>
 840b01c:	d8c00017 	ldw	r3,0(sp)
 840b020:	da000117 	ldw	r8,4(sp)
 840b024:	103fc21e 	bne	r2,zero,840af30 <__alt_data_end+0xfc40af30>
 840b028:	182f883a 	mov	r23,r3
 840b02c:	9de7c83a 	sub	r19,r19,r23
 840b030:	983fe11e 	bne	r19,zero,840afb8 <__alt_data_end+0xfc40afb8>
 840b034:	800b883a 	mov	r5,r16
 840b038:	a809883a 	mov	r4,r21
 840b03c:	840c4a00 	call	840c4a0 <_fflush_r>
 840b040:	103fbb1e 	bne	r2,zero,840af30 <__alt_data_end+0xfc40af30>
 840b044:	0011883a 	mov	r8,zero
 840b048:	003fdb06 	br	840afb8 <__alt_data_end+0xfc40afb8>
 840b04c:	94c0012e 	bgeu	r18,r19,840b054 <__sfvwrite_r+0x31c>
 840b050:	9027883a 	mov	r19,r18
 840b054:	980d883a 	mov	r6,r19
 840b058:	e00b883a 	mov	r5,fp
 840b05c:	840b4bc0 	call	840b4bc <memmove>
 840b060:	80800217 	ldw	r2,8(r16)
 840b064:	80c00017 	ldw	r3,0(r16)
 840b068:	14c5c83a 	sub	r2,r2,r19
 840b06c:	1cc7883a 	add	r3,r3,r19
 840b070:	80800215 	stw	r2,8(r16)
 840b074:	80c00015 	stw	r3,0(r16)
 840b078:	10004326 	beq	r2,zero,840b188 <__sfvwrite_r+0x450>
 840b07c:	9805883a 	mov	r2,r19
 840b080:	003f8606 	br	840ae9c <__alt_data_end+0xfc40ae9c>
 840b084:	b00d883a 	mov	r6,r22
 840b088:	e00b883a 	mov	r5,fp
 840b08c:	da000115 	stw	r8,4(sp)
 840b090:	840b4bc0 	call	840b4bc <memmove>
 840b094:	80800217 	ldw	r2,8(r16)
 840b098:	80c00017 	ldw	r3,0(r16)
 840b09c:	da000117 	ldw	r8,4(sp)
 840b0a0:	1585c83a 	sub	r2,r2,r22
 840b0a4:	1dad883a 	add	r22,r3,r22
 840b0a8:	80800215 	stw	r2,8(r16)
 840b0ac:	85800015 	stw	r22,0(r16)
 840b0b0:	003fbf06 	br	840afb0 <__alt_data_end+0xfc40afb0>
 840b0b4:	81000017 	ldw	r4,0(r16)
 840b0b8:	9027883a 	mov	r19,r18
 840b0bc:	902f883a 	mov	r23,r18
 840b0c0:	003f6c06 	br	840ae74 <__alt_data_end+0xfc40ae74>
 840b0c4:	900d883a 	mov	r6,r18
 840b0c8:	01400284 	movi	r5,10
 840b0cc:	e009883a 	mov	r4,fp
 840b0d0:	840b3d80 	call	840b3d8 <memchr>
 840b0d4:	10003e26 	beq	r2,zero,840b1d0 <__sfvwrite_r+0x498>
 840b0d8:	10800044 	addi	r2,r2,1
 840b0dc:	1727c83a 	sub	r19,r2,fp
 840b0e0:	02000044 	movi	r8,1
 840b0e4:	003f9d06 	br	840af5c <__alt_data_end+0xfc40af5c>
 840b0e8:	80800517 	ldw	r2,20(r16)
 840b0ec:	81400417 	ldw	r5,16(r16)
 840b0f0:	81c00017 	ldw	r7,0(r16)
 840b0f4:	10a7883a 	add	r19,r2,r2
 840b0f8:	9885883a 	add	r2,r19,r2
 840b0fc:	1026d7fa 	srli	r19,r2,31
 840b100:	396dc83a 	sub	r22,r7,r5
 840b104:	b1000044 	addi	r4,r22,1
 840b108:	9885883a 	add	r2,r19,r2
 840b10c:	1027d07a 	srai	r19,r2,1
 840b110:	2485883a 	add	r2,r4,r18
 840b114:	980d883a 	mov	r6,r19
 840b118:	9880022e 	bgeu	r19,r2,840b124 <__sfvwrite_r+0x3ec>
 840b11c:	1027883a 	mov	r19,r2
 840b120:	100d883a 	mov	r6,r2
 840b124:	18c1000c 	andi	r3,r3,1024
 840b128:	18001c26 	beq	r3,zero,840b19c <__sfvwrite_r+0x464>
 840b12c:	300b883a 	mov	r5,r6
 840b130:	a809883a 	mov	r4,r21
 840b134:	84096d00 	call	84096d0 <_malloc_r>
 840b138:	102f883a 	mov	r23,r2
 840b13c:	10002926 	beq	r2,zero,840b1e4 <__sfvwrite_r+0x4ac>
 840b140:	81400417 	ldw	r5,16(r16)
 840b144:	b00d883a 	mov	r6,r22
 840b148:	1009883a 	mov	r4,r2
 840b14c:	8409edc0 	call	8409edc <memcpy>
 840b150:	8080030b 	ldhu	r2,12(r16)
 840b154:	00fedfc4 	movi	r3,-1153
 840b158:	10c4703a 	and	r2,r2,r3
 840b15c:	10802014 	ori	r2,r2,128
 840b160:	8080030d 	sth	r2,12(r16)
 840b164:	bd89883a 	add	r4,r23,r22
 840b168:	9d8fc83a 	sub	r7,r19,r22
 840b16c:	85c00415 	stw	r23,16(r16)
 840b170:	84c00515 	stw	r19,20(r16)
 840b174:	81000015 	stw	r4,0(r16)
 840b178:	9027883a 	mov	r19,r18
 840b17c:	81c00215 	stw	r7,8(r16)
 840b180:	902f883a 	mov	r23,r18
 840b184:	003f3b06 	br	840ae74 <__alt_data_end+0xfc40ae74>
 840b188:	800b883a 	mov	r5,r16
 840b18c:	a809883a 	mov	r4,r21
 840b190:	840c4a00 	call	840c4a0 <_fflush_r>
 840b194:	103fb926 	beq	r2,zero,840b07c <__alt_data_end+0xfc40b07c>
 840b198:	003f6506 	br	840af30 <__alt_data_end+0xfc40af30>
 840b19c:	a809883a 	mov	r4,r21
 840b1a0:	840b7800 	call	840b780 <_realloc_r>
 840b1a4:	102f883a 	mov	r23,r2
 840b1a8:	103fee1e 	bne	r2,zero,840b164 <__alt_data_end+0xfc40b164>
 840b1ac:	81400417 	ldw	r5,16(r16)
 840b1b0:	a809883a 	mov	r4,r21
 840b1b4:	840aa280 	call	840aa28 <_free_r>
 840b1b8:	8080030b 	ldhu	r2,12(r16)
 840b1bc:	00ffdfc4 	movi	r3,-129
 840b1c0:	1884703a 	and	r2,r3,r2
 840b1c4:	00c00304 	movi	r3,12
 840b1c8:	a8c00015 	stw	r3,0(r21)
 840b1cc:	003f5906 	br	840af34 <__alt_data_end+0xfc40af34>
 840b1d0:	94c00044 	addi	r19,r18,1
 840b1d4:	02000044 	movi	r8,1
 840b1d8:	003f6006 	br	840af5c <__alt_data_end+0xfc40af5c>
 840b1dc:	00bfffc4 	movi	r2,-1
 840b1e0:	003f0306 	br	840adf0 <__alt_data_end+0xfc40adf0>
 840b1e4:	00800304 	movi	r2,12
 840b1e8:	a8800015 	stw	r2,0(r21)
 840b1ec:	8080030b 	ldhu	r2,12(r16)
 840b1f0:	003f5006 	br	840af34 <__alt_data_end+0xfc40af34>

0840b1f4 <_fwalk>:
 840b1f4:	defff704 	addi	sp,sp,-36
 840b1f8:	dd000415 	stw	r20,16(sp)
 840b1fc:	dfc00815 	stw	ra,32(sp)
 840b200:	ddc00715 	stw	r23,28(sp)
 840b204:	dd800615 	stw	r22,24(sp)
 840b208:	dd400515 	stw	r21,20(sp)
 840b20c:	dcc00315 	stw	r19,12(sp)
 840b210:	dc800215 	stw	r18,8(sp)
 840b214:	dc400115 	stw	r17,4(sp)
 840b218:	dc000015 	stw	r16,0(sp)
 840b21c:	2500b804 	addi	r20,r4,736
 840b220:	a0002326 	beq	r20,zero,840b2b0 <_fwalk+0xbc>
 840b224:	282b883a 	mov	r21,r5
 840b228:	002f883a 	mov	r23,zero
 840b22c:	05800044 	movi	r22,1
 840b230:	04ffffc4 	movi	r19,-1
 840b234:	a4400117 	ldw	r17,4(r20)
 840b238:	a4800217 	ldw	r18,8(r20)
 840b23c:	8c7fffc4 	addi	r17,r17,-1
 840b240:	88000d16 	blt	r17,zero,840b278 <_fwalk+0x84>
 840b244:	94000304 	addi	r16,r18,12
 840b248:	94800384 	addi	r18,r18,14
 840b24c:	8080000b 	ldhu	r2,0(r16)
 840b250:	8c7fffc4 	addi	r17,r17,-1
 840b254:	813ffd04 	addi	r4,r16,-12
 840b258:	b080042e 	bgeu	r22,r2,840b26c <_fwalk+0x78>
 840b25c:	9080000f 	ldh	r2,0(r18)
 840b260:	14c00226 	beq	r2,r19,840b26c <_fwalk+0x78>
 840b264:	a83ee83a 	callr	r21
 840b268:	b8aeb03a 	or	r23,r23,r2
 840b26c:	84001a04 	addi	r16,r16,104
 840b270:	94801a04 	addi	r18,r18,104
 840b274:	8cfff51e 	bne	r17,r19,840b24c <__alt_data_end+0xfc40b24c>
 840b278:	a5000017 	ldw	r20,0(r20)
 840b27c:	a03fed1e 	bne	r20,zero,840b234 <__alt_data_end+0xfc40b234>
 840b280:	b805883a 	mov	r2,r23
 840b284:	dfc00817 	ldw	ra,32(sp)
 840b288:	ddc00717 	ldw	r23,28(sp)
 840b28c:	dd800617 	ldw	r22,24(sp)
 840b290:	dd400517 	ldw	r21,20(sp)
 840b294:	dd000417 	ldw	r20,16(sp)
 840b298:	dcc00317 	ldw	r19,12(sp)
 840b29c:	dc800217 	ldw	r18,8(sp)
 840b2a0:	dc400117 	ldw	r17,4(sp)
 840b2a4:	dc000017 	ldw	r16,0(sp)
 840b2a8:	dec00904 	addi	sp,sp,36
 840b2ac:	f800283a 	ret
 840b2b0:	002f883a 	mov	r23,zero
 840b2b4:	003ff206 	br	840b280 <__alt_data_end+0xfc40b280>

0840b2b8 <_fwalk_reent>:
 840b2b8:	defff704 	addi	sp,sp,-36
 840b2bc:	dd000415 	stw	r20,16(sp)
 840b2c0:	dfc00815 	stw	ra,32(sp)
 840b2c4:	ddc00715 	stw	r23,28(sp)
 840b2c8:	dd800615 	stw	r22,24(sp)
 840b2cc:	dd400515 	stw	r21,20(sp)
 840b2d0:	dcc00315 	stw	r19,12(sp)
 840b2d4:	dc800215 	stw	r18,8(sp)
 840b2d8:	dc400115 	stw	r17,4(sp)
 840b2dc:	dc000015 	stw	r16,0(sp)
 840b2e0:	2500b804 	addi	r20,r4,736
 840b2e4:	a0002326 	beq	r20,zero,840b374 <_fwalk_reent+0xbc>
 840b2e8:	282b883a 	mov	r21,r5
 840b2ec:	2027883a 	mov	r19,r4
 840b2f0:	002f883a 	mov	r23,zero
 840b2f4:	05800044 	movi	r22,1
 840b2f8:	04bfffc4 	movi	r18,-1
 840b2fc:	a4400117 	ldw	r17,4(r20)
 840b300:	a4000217 	ldw	r16,8(r20)
 840b304:	8c7fffc4 	addi	r17,r17,-1
 840b308:	88000c16 	blt	r17,zero,840b33c <_fwalk_reent+0x84>
 840b30c:	84000304 	addi	r16,r16,12
 840b310:	8080000b 	ldhu	r2,0(r16)
 840b314:	8c7fffc4 	addi	r17,r17,-1
 840b318:	817ffd04 	addi	r5,r16,-12
 840b31c:	b080052e 	bgeu	r22,r2,840b334 <_fwalk_reent+0x7c>
 840b320:	8080008f 	ldh	r2,2(r16)
 840b324:	9809883a 	mov	r4,r19
 840b328:	14800226 	beq	r2,r18,840b334 <_fwalk_reent+0x7c>
 840b32c:	a83ee83a 	callr	r21
 840b330:	b8aeb03a 	or	r23,r23,r2
 840b334:	84001a04 	addi	r16,r16,104
 840b338:	8cbff51e 	bne	r17,r18,840b310 <__alt_data_end+0xfc40b310>
 840b33c:	a5000017 	ldw	r20,0(r20)
 840b340:	a03fee1e 	bne	r20,zero,840b2fc <__alt_data_end+0xfc40b2fc>
 840b344:	b805883a 	mov	r2,r23
 840b348:	dfc00817 	ldw	ra,32(sp)
 840b34c:	ddc00717 	ldw	r23,28(sp)
 840b350:	dd800617 	ldw	r22,24(sp)
 840b354:	dd400517 	ldw	r21,20(sp)
 840b358:	dd000417 	ldw	r20,16(sp)
 840b35c:	dcc00317 	ldw	r19,12(sp)
 840b360:	dc800217 	ldw	r18,8(sp)
 840b364:	dc400117 	ldw	r17,4(sp)
 840b368:	dc000017 	ldw	r16,0(sp)
 840b36c:	dec00904 	addi	sp,sp,36
 840b370:	f800283a 	ret
 840b374:	002f883a 	mov	r23,zero
 840b378:	003ff206 	br	840b344 <__alt_data_end+0xfc40b344>

0840b37c <_gettimeofday_r>:
 840b37c:	defffd04 	addi	sp,sp,-12
 840b380:	2805883a 	mov	r2,r5
 840b384:	dc000015 	stw	r16,0(sp)
 840b388:	04021134 	movhi	r16,2116
 840b38c:	dc400115 	stw	r17,4(sp)
 840b390:	843ca304 	addi	r16,r16,-3444
 840b394:	2023883a 	mov	r17,r4
 840b398:	300b883a 	mov	r5,r6
 840b39c:	1009883a 	mov	r4,r2
 840b3a0:	dfc00215 	stw	ra,8(sp)
 840b3a4:	80000015 	stw	zero,0(r16)
 840b3a8:	840cc080 	call	840cc08 <gettimeofday>
 840b3ac:	00ffffc4 	movi	r3,-1
 840b3b0:	10c00526 	beq	r2,r3,840b3c8 <_gettimeofday_r+0x4c>
 840b3b4:	dfc00217 	ldw	ra,8(sp)
 840b3b8:	dc400117 	ldw	r17,4(sp)
 840b3bc:	dc000017 	ldw	r16,0(sp)
 840b3c0:	dec00304 	addi	sp,sp,12
 840b3c4:	f800283a 	ret
 840b3c8:	80c00017 	ldw	r3,0(r16)
 840b3cc:	183ff926 	beq	r3,zero,840b3b4 <__alt_data_end+0xfc40b3b4>
 840b3d0:	88c00015 	stw	r3,0(r17)
 840b3d4:	003ff706 	br	840b3b4 <__alt_data_end+0xfc40b3b4>

0840b3d8 <memchr>:
 840b3d8:	208000cc 	andi	r2,r4,3
 840b3dc:	280f883a 	mov	r7,r5
 840b3e0:	10003426 	beq	r2,zero,840b4b4 <memchr+0xdc>
 840b3e4:	30bfffc4 	addi	r2,r6,-1
 840b3e8:	30001a26 	beq	r6,zero,840b454 <memchr+0x7c>
 840b3ec:	20c00003 	ldbu	r3,0(r4)
 840b3f0:	29803fcc 	andi	r6,r5,255
 840b3f4:	30c0051e 	bne	r6,r3,840b40c <memchr+0x34>
 840b3f8:	00001806 	br	840b45c <memchr+0x84>
 840b3fc:	10001526 	beq	r2,zero,840b454 <memchr+0x7c>
 840b400:	20c00003 	ldbu	r3,0(r4)
 840b404:	10bfffc4 	addi	r2,r2,-1
 840b408:	30c01426 	beq	r6,r3,840b45c <memchr+0x84>
 840b40c:	21000044 	addi	r4,r4,1
 840b410:	20c000cc 	andi	r3,r4,3
 840b414:	183ff91e 	bne	r3,zero,840b3fc <__alt_data_end+0xfc40b3fc>
 840b418:	020000c4 	movi	r8,3
 840b41c:	40801136 	bltu	r8,r2,840b464 <memchr+0x8c>
 840b420:	10000c26 	beq	r2,zero,840b454 <memchr+0x7c>
 840b424:	20c00003 	ldbu	r3,0(r4)
 840b428:	29403fcc 	andi	r5,r5,255
 840b42c:	28c00b26 	beq	r5,r3,840b45c <memchr+0x84>
 840b430:	20c00044 	addi	r3,r4,1
 840b434:	39803fcc 	andi	r6,r7,255
 840b438:	2089883a 	add	r4,r4,r2
 840b43c:	00000306 	br	840b44c <memchr+0x74>
 840b440:	18c00044 	addi	r3,r3,1
 840b444:	197fffc3 	ldbu	r5,-1(r3)
 840b448:	31400526 	beq	r6,r5,840b460 <memchr+0x88>
 840b44c:	1805883a 	mov	r2,r3
 840b450:	20fffb1e 	bne	r4,r3,840b440 <__alt_data_end+0xfc40b440>
 840b454:	0005883a 	mov	r2,zero
 840b458:	f800283a 	ret
 840b45c:	2005883a 	mov	r2,r4
 840b460:	f800283a 	ret
 840b464:	28c03fcc 	andi	r3,r5,255
 840b468:	1812923a 	slli	r9,r3,8
 840b46c:	02ffbff4 	movhi	r11,65279
 840b470:	02a02074 	movhi	r10,32897
 840b474:	48d2b03a 	or	r9,r9,r3
 840b478:	4806943a 	slli	r3,r9,16
 840b47c:	5affbfc4 	addi	r11,r11,-257
 840b480:	52a02004 	addi	r10,r10,-32640
 840b484:	48d2b03a 	or	r9,r9,r3
 840b488:	20c00017 	ldw	r3,0(r4)
 840b48c:	48c6f03a 	xor	r3,r9,r3
 840b490:	1acd883a 	add	r6,r3,r11
 840b494:	00c6303a 	nor	r3,zero,r3
 840b498:	30c6703a 	and	r3,r6,r3
 840b49c:	1a86703a 	and	r3,r3,r10
 840b4a0:	183fe01e 	bne	r3,zero,840b424 <__alt_data_end+0xfc40b424>
 840b4a4:	10bfff04 	addi	r2,r2,-4
 840b4a8:	21000104 	addi	r4,r4,4
 840b4ac:	40bff636 	bltu	r8,r2,840b488 <__alt_data_end+0xfc40b488>
 840b4b0:	003fdb06 	br	840b420 <__alt_data_end+0xfc40b420>
 840b4b4:	3005883a 	mov	r2,r6
 840b4b8:	003fd706 	br	840b418 <__alt_data_end+0xfc40b418>

0840b4bc <memmove>:
 840b4bc:	2005883a 	mov	r2,r4
 840b4c0:	29000b2e 	bgeu	r5,r4,840b4f0 <memmove+0x34>
 840b4c4:	298f883a 	add	r7,r5,r6
 840b4c8:	21c0092e 	bgeu	r4,r7,840b4f0 <memmove+0x34>
 840b4cc:	2187883a 	add	r3,r4,r6
 840b4d0:	198bc83a 	sub	r5,r3,r6
 840b4d4:	30004826 	beq	r6,zero,840b5f8 <memmove+0x13c>
 840b4d8:	39ffffc4 	addi	r7,r7,-1
 840b4dc:	39000003 	ldbu	r4,0(r7)
 840b4e0:	18ffffc4 	addi	r3,r3,-1
 840b4e4:	19000005 	stb	r4,0(r3)
 840b4e8:	28fffb1e 	bne	r5,r3,840b4d8 <__alt_data_end+0xfc40b4d8>
 840b4ec:	f800283a 	ret
 840b4f0:	00c003c4 	movi	r3,15
 840b4f4:	1980412e 	bgeu	r3,r6,840b5fc <memmove+0x140>
 840b4f8:	2886b03a 	or	r3,r5,r2
 840b4fc:	18c000cc 	andi	r3,r3,3
 840b500:	1800401e 	bne	r3,zero,840b604 <memmove+0x148>
 840b504:	33fffc04 	addi	r15,r6,-16
 840b508:	781ed13a 	srli	r15,r15,4
 840b50c:	28c00104 	addi	r3,r5,4
 840b510:	13400104 	addi	r13,r2,4
 840b514:	781c913a 	slli	r14,r15,4
 840b518:	2b000204 	addi	r12,r5,8
 840b51c:	12c00204 	addi	r11,r2,8
 840b520:	73800504 	addi	r14,r14,20
 840b524:	2a800304 	addi	r10,r5,12
 840b528:	12400304 	addi	r9,r2,12
 840b52c:	2b9d883a 	add	r14,r5,r14
 840b530:	2811883a 	mov	r8,r5
 840b534:	100f883a 	mov	r7,r2
 840b538:	41000017 	ldw	r4,0(r8)
 840b53c:	39c00404 	addi	r7,r7,16
 840b540:	18c00404 	addi	r3,r3,16
 840b544:	393ffc15 	stw	r4,-16(r7)
 840b548:	193ffc17 	ldw	r4,-16(r3)
 840b54c:	6b400404 	addi	r13,r13,16
 840b550:	5ac00404 	addi	r11,r11,16
 840b554:	693ffc15 	stw	r4,-16(r13)
 840b558:	61000017 	ldw	r4,0(r12)
 840b55c:	4a400404 	addi	r9,r9,16
 840b560:	42000404 	addi	r8,r8,16
 840b564:	593ffc15 	stw	r4,-16(r11)
 840b568:	51000017 	ldw	r4,0(r10)
 840b56c:	63000404 	addi	r12,r12,16
 840b570:	52800404 	addi	r10,r10,16
 840b574:	493ffc15 	stw	r4,-16(r9)
 840b578:	1bbfef1e 	bne	r3,r14,840b538 <__alt_data_end+0xfc40b538>
 840b57c:	79000044 	addi	r4,r15,1
 840b580:	2008913a 	slli	r4,r4,4
 840b584:	328003cc 	andi	r10,r6,15
 840b588:	02c000c4 	movi	r11,3
 840b58c:	1107883a 	add	r3,r2,r4
 840b590:	290b883a 	add	r5,r5,r4
 840b594:	5a801e2e 	bgeu	r11,r10,840b610 <memmove+0x154>
 840b598:	1813883a 	mov	r9,r3
 840b59c:	2811883a 	mov	r8,r5
 840b5a0:	500f883a 	mov	r7,r10
 840b5a4:	41000017 	ldw	r4,0(r8)
 840b5a8:	4a400104 	addi	r9,r9,4
 840b5ac:	39ffff04 	addi	r7,r7,-4
 840b5b0:	493fff15 	stw	r4,-4(r9)
 840b5b4:	42000104 	addi	r8,r8,4
 840b5b8:	59fffa36 	bltu	r11,r7,840b5a4 <__alt_data_end+0xfc40b5a4>
 840b5bc:	513fff04 	addi	r4,r10,-4
 840b5c0:	2008d0ba 	srli	r4,r4,2
 840b5c4:	318000cc 	andi	r6,r6,3
 840b5c8:	21000044 	addi	r4,r4,1
 840b5cc:	2109883a 	add	r4,r4,r4
 840b5d0:	2109883a 	add	r4,r4,r4
 840b5d4:	1907883a 	add	r3,r3,r4
 840b5d8:	290b883a 	add	r5,r5,r4
 840b5dc:	30000b26 	beq	r6,zero,840b60c <memmove+0x150>
 840b5e0:	198d883a 	add	r6,r3,r6
 840b5e4:	29c00003 	ldbu	r7,0(r5)
 840b5e8:	18c00044 	addi	r3,r3,1
 840b5ec:	29400044 	addi	r5,r5,1
 840b5f0:	19ffffc5 	stb	r7,-1(r3)
 840b5f4:	19bffb1e 	bne	r3,r6,840b5e4 <__alt_data_end+0xfc40b5e4>
 840b5f8:	f800283a 	ret
 840b5fc:	1007883a 	mov	r3,r2
 840b600:	003ff606 	br	840b5dc <__alt_data_end+0xfc40b5dc>
 840b604:	1007883a 	mov	r3,r2
 840b608:	003ff506 	br	840b5e0 <__alt_data_end+0xfc40b5e0>
 840b60c:	f800283a 	ret
 840b610:	500d883a 	mov	r6,r10
 840b614:	003ff106 	br	840b5dc <__alt_data_end+0xfc40b5dc>

0840b618 <_putc_r>:
 840b618:	defffc04 	addi	sp,sp,-16
 840b61c:	dc000215 	stw	r16,8(sp)
 840b620:	dfc00315 	stw	ra,12(sp)
 840b624:	2021883a 	mov	r16,r4
 840b628:	20000226 	beq	r4,zero,840b634 <_putc_r+0x1c>
 840b62c:	20800e17 	ldw	r2,56(r4)
 840b630:	10001b26 	beq	r2,zero,840b6a0 <_putc_r+0x88>
 840b634:	30800217 	ldw	r2,8(r6)
 840b638:	10bfffc4 	addi	r2,r2,-1
 840b63c:	30800215 	stw	r2,8(r6)
 840b640:	10000a16 	blt	r2,zero,840b66c <_putc_r+0x54>
 840b644:	30800017 	ldw	r2,0(r6)
 840b648:	11400005 	stb	r5,0(r2)
 840b64c:	30800017 	ldw	r2,0(r6)
 840b650:	10c00044 	addi	r3,r2,1
 840b654:	30c00015 	stw	r3,0(r6)
 840b658:	10800003 	ldbu	r2,0(r2)
 840b65c:	dfc00317 	ldw	ra,12(sp)
 840b660:	dc000217 	ldw	r16,8(sp)
 840b664:	dec00404 	addi	sp,sp,16
 840b668:	f800283a 	ret
 840b66c:	30c00617 	ldw	r3,24(r6)
 840b670:	10c00616 	blt	r2,r3,840b68c <_putc_r+0x74>
 840b674:	30800017 	ldw	r2,0(r6)
 840b678:	00c00284 	movi	r3,10
 840b67c:	11400005 	stb	r5,0(r2)
 840b680:	30800017 	ldw	r2,0(r6)
 840b684:	11400003 	ldbu	r5,0(r2)
 840b688:	28fff11e 	bne	r5,r3,840b650 <__alt_data_end+0xfc40b650>
 840b68c:	8009883a 	mov	r4,r16
 840b690:	dfc00317 	ldw	ra,12(sp)
 840b694:	dc000217 	ldw	r16,8(sp)
 840b698:	dec00404 	addi	sp,sp,16
 840b69c:	840be201 	jmpi	840be20 <__swbuf_r>
 840b6a0:	d9400015 	stw	r5,0(sp)
 840b6a4:	d9800115 	stw	r6,4(sp)
 840b6a8:	840a8b40 	call	840a8b4 <__sinit>
 840b6ac:	d9800117 	ldw	r6,4(sp)
 840b6b0:	d9400017 	ldw	r5,0(sp)
 840b6b4:	003fdf06 	br	840b634 <__alt_data_end+0xfc40b634>

0840b6b8 <putc>:
 840b6b8:	00821134 	movhi	r2,2116
 840b6bc:	defffc04 	addi	sp,sp,-16
 840b6c0:	10b01704 	addi	r2,r2,-16292
 840b6c4:	dc000115 	stw	r16,4(sp)
 840b6c8:	14000017 	ldw	r16,0(r2)
 840b6cc:	dc400215 	stw	r17,8(sp)
 840b6d0:	dfc00315 	stw	ra,12(sp)
 840b6d4:	2023883a 	mov	r17,r4
 840b6d8:	80000226 	beq	r16,zero,840b6e4 <putc+0x2c>
 840b6dc:	80800e17 	ldw	r2,56(r16)
 840b6e0:	10001a26 	beq	r2,zero,840b74c <putc+0x94>
 840b6e4:	28800217 	ldw	r2,8(r5)
 840b6e8:	10bfffc4 	addi	r2,r2,-1
 840b6ec:	28800215 	stw	r2,8(r5)
 840b6f0:	10000b16 	blt	r2,zero,840b720 <putc+0x68>
 840b6f4:	28800017 	ldw	r2,0(r5)
 840b6f8:	14400005 	stb	r17,0(r2)
 840b6fc:	28800017 	ldw	r2,0(r5)
 840b700:	10c00044 	addi	r3,r2,1
 840b704:	28c00015 	stw	r3,0(r5)
 840b708:	10800003 	ldbu	r2,0(r2)
 840b70c:	dfc00317 	ldw	ra,12(sp)
 840b710:	dc400217 	ldw	r17,8(sp)
 840b714:	dc000117 	ldw	r16,4(sp)
 840b718:	dec00404 	addi	sp,sp,16
 840b71c:	f800283a 	ret
 840b720:	28c00617 	ldw	r3,24(r5)
 840b724:	10c00e16 	blt	r2,r3,840b760 <putc+0xa8>
 840b728:	28800017 	ldw	r2,0(r5)
 840b72c:	01000284 	movi	r4,10
 840b730:	14400005 	stb	r17,0(r2)
 840b734:	28800017 	ldw	r2,0(r5)
 840b738:	10c00003 	ldbu	r3,0(r2)
 840b73c:	193ff01e 	bne	r3,r4,840b700 <__alt_data_end+0xfc40b700>
 840b740:	280d883a 	mov	r6,r5
 840b744:	180b883a 	mov	r5,r3
 840b748:	00000706 	br	840b768 <putc+0xb0>
 840b74c:	8009883a 	mov	r4,r16
 840b750:	d9400015 	stw	r5,0(sp)
 840b754:	840a8b40 	call	840a8b4 <__sinit>
 840b758:	d9400017 	ldw	r5,0(sp)
 840b75c:	003fe106 	br	840b6e4 <__alt_data_end+0xfc40b6e4>
 840b760:	280d883a 	mov	r6,r5
 840b764:	880b883a 	mov	r5,r17
 840b768:	8009883a 	mov	r4,r16
 840b76c:	dfc00317 	ldw	ra,12(sp)
 840b770:	dc400217 	ldw	r17,8(sp)
 840b774:	dc000117 	ldw	r16,4(sp)
 840b778:	dec00404 	addi	sp,sp,16
 840b77c:	840be201 	jmpi	840be20 <__swbuf_r>

0840b780 <_realloc_r>:
 840b780:	defff604 	addi	sp,sp,-40
 840b784:	dc800215 	stw	r18,8(sp)
 840b788:	dfc00915 	stw	ra,36(sp)
 840b78c:	df000815 	stw	fp,32(sp)
 840b790:	ddc00715 	stw	r23,28(sp)
 840b794:	dd800615 	stw	r22,24(sp)
 840b798:	dd400515 	stw	r21,20(sp)
 840b79c:	dd000415 	stw	r20,16(sp)
 840b7a0:	dcc00315 	stw	r19,12(sp)
 840b7a4:	dc400115 	stw	r17,4(sp)
 840b7a8:	dc000015 	stw	r16,0(sp)
 840b7ac:	3025883a 	mov	r18,r6
 840b7b0:	2800b726 	beq	r5,zero,840ba90 <_realloc_r+0x310>
 840b7b4:	282b883a 	mov	r21,r5
 840b7b8:	2029883a 	mov	r20,r4
 840b7bc:	840d3f40 	call	840d3f4 <__malloc_lock>
 840b7c0:	a8bfff17 	ldw	r2,-4(r21)
 840b7c4:	043fff04 	movi	r16,-4
 840b7c8:	90c002c4 	addi	r3,r18,11
 840b7cc:	01000584 	movi	r4,22
 840b7d0:	acfffe04 	addi	r19,r21,-8
 840b7d4:	1420703a 	and	r16,r2,r16
 840b7d8:	20c0332e 	bgeu	r4,r3,840b8a8 <_realloc_r+0x128>
 840b7dc:	047ffe04 	movi	r17,-8
 840b7e0:	1c62703a 	and	r17,r3,r17
 840b7e4:	8807883a 	mov	r3,r17
 840b7e8:	88005816 	blt	r17,zero,840b94c <_realloc_r+0x1cc>
 840b7ec:	8c805736 	bltu	r17,r18,840b94c <_realloc_r+0x1cc>
 840b7f0:	80c0300e 	bge	r16,r3,840b8b4 <_realloc_r+0x134>
 840b7f4:	07021134 	movhi	fp,2116
 840b7f8:	e72a9104 	addi	fp,fp,-21948
 840b7fc:	e1c00217 	ldw	r7,8(fp)
 840b800:	9c09883a 	add	r4,r19,r16
 840b804:	22000117 	ldw	r8,4(r4)
 840b808:	21c06326 	beq	r4,r7,840b998 <_realloc_r+0x218>
 840b80c:	017fff84 	movi	r5,-2
 840b810:	414a703a 	and	r5,r8,r5
 840b814:	214b883a 	add	r5,r4,r5
 840b818:	29800117 	ldw	r6,4(r5)
 840b81c:	3180004c 	andi	r6,r6,1
 840b820:	30003f26 	beq	r6,zero,840b920 <_realloc_r+0x1a0>
 840b824:	1080004c 	andi	r2,r2,1
 840b828:	10008326 	beq	r2,zero,840ba38 <_realloc_r+0x2b8>
 840b82c:	900b883a 	mov	r5,r18
 840b830:	a009883a 	mov	r4,r20
 840b834:	84096d00 	call	84096d0 <_malloc_r>
 840b838:	1025883a 	mov	r18,r2
 840b83c:	10011e26 	beq	r2,zero,840bcb8 <_realloc_r+0x538>
 840b840:	a93fff17 	ldw	r4,-4(r21)
 840b844:	10fffe04 	addi	r3,r2,-8
 840b848:	00bfff84 	movi	r2,-2
 840b84c:	2084703a 	and	r2,r4,r2
 840b850:	9885883a 	add	r2,r19,r2
 840b854:	1880ee26 	beq	r3,r2,840bc10 <_realloc_r+0x490>
 840b858:	81bfff04 	addi	r6,r16,-4
 840b85c:	00800904 	movi	r2,36
 840b860:	1180b836 	bltu	r2,r6,840bb44 <_realloc_r+0x3c4>
 840b864:	00c004c4 	movi	r3,19
 840b868:	19809636 	bltu	r3,r6,840bac4 <_realloc_r+0x344>
 840b86c:	9005883a 	mov	r2,r18
 840b870:	a807883a 	mov	r3,r21
 840b874:	19000017 	ldw	r4,0(r3)
 840b878:	11000015 	stw	r4,0(r2)
 840b87c:	19000117 	ldw	r4,4(r3)
 840b880:	11000115 	stw	r4,4(r2)
 840b884:	18c00217 	ldw	r3,8(r3)
 840b888:	10c00215 	stw	r3,8(r2)
 840b88c:	a80b883a 	mov	r5,r21
 840b890:	a009883a 	mov	r4,r20
 840b894:	840aa280 	call	840aa28 <_free_r>
 840b898:	a009883a 	mov	r4,r20
 840b89c:	840d4180 	call	840d418 <__malloc_unlock>
 840b8a0:	9005883a 	mov	r2,r18
 840b8a4:	00001206 	br	840b8f0 <_realloc_r+0x170>
 840b8a8:	00c00404 	movi	r3,16
 840b8ac:	1823883a 	mov	r17,r3
 840b8b0:	003fce06 	br	840b7ec <__alt_data_end+0xfc40b7ec>
 840b8b4:	a825883a 	mov	r18,r21
 840b8b8:	8445c83a 	sub	r2,r16,r17
 840b8bc:	00c003c4 	movi	r3,15
 840b8c0:	18802636 	bltu	r3,r2,840b95c <_realloc_r+0x1dc>
 840b8c4:	99800117 	ldw	r6,4(r19)
 840b8c8:	9c07883a 	add	r3,r19,r16
 840b8cc:	3180004c 	andi	r6,r6,1
 840b8d0:	3420b03a 	or	r16,r6,r16
 840b8d4:	9c000115 	stw	r16,4(r19)
 840b8d8:	18800117 	ldw	r2,4(r3)
 840b8dc:	10800054 	ori	r2,r2,1
 840b8e0:	18800115 	stw	r2,4(r3)
 840b8e4:	a009883a 	mov	r4,r20
 840b8e8:	840d4180 	call	840d418 <__malloc_unlock>
 840b8ec:	9005883a 	mov	r2,r18
 840b8f0:	dfc00917 	ldw	ra,36(sp)
 840b8f4:	df000817 	ldw	fp,32(sp)
 840b8f8:	ddc00717 	ldw	r23,28(sp)
 840b8fc:	dd800617 	ldw	r22,24(sp)
 840b900:	dd400517 	ldw	r21,20(sp)
 840b904:	dd000417 	ldw	r20,16(sp)
 840b908:	dcc00317 	ldw	r19,12(sp)
 840b90c:	dc800217 	ldw	r18,8(sp)
 840b910:	dc400117 	ldw	r17,4(sp)
 840b914:	dc000017 	ldw	r16,0(sp)
 840b918:	dec00a04 	addi	sp,sp,40
 840b91c:	f800283a 	ret
 840b920:	017fff04 	movi	r5,-4
 840b924:	414a703a 	and	r5,r8,r5
 840b928:	814d883a 	add	r6,r16,r5
 840b92c:	30c01f16 	blt	r6,r3,840b9ac <_realloc_r+0x22c>
 840b930:	20800317 	ldw	r2,12(r4)
 840b934:	20c00217 	ldw	r3,8(r4)
 840b938:	a825883a 	mov	r18,r21
 840b93c:	3021883a 	mov	r16,r6
 840b940:	18800315 	stw	r2,12(r3)
 840b944:	10c00215 	stw	r3,8(r2)
 840b948:	003fdb06 	br	840b8b8 <__alt_data_end+0xfc40b8b8>
 840b94c:	00800304 	movi	r2,12
 840b950:	a0800015 	stw	r2,0(r20)
 840b954:	0005883a 	mov	r2,zero
 840b958:	003fe506 	br	840b8f0 <__alt_data_end+0xfc40b8f0>
 840b95c:	98c00117 	ldw	r3,4(r19)
 840b960:	9c4b883a 	add	r5,r19,r17
 840b964:	11000054 	ori	r4,r2,1
 840b968:	18c0004c 	andi	r3,r3,1
 840b96c:	1c62b03a 	or	r17,r3,r17
 840b970:	9c400115 	stw	r17,4(r19)
 840b974:	29000115 	stw	r4,4(r5)
 840b978:	2885883a 	add	r2,r5,r2
 840b97c:	10c00117 	ldw	r3,4(r2)
 840b980:	29400204 	addi	r5,r5,8
 840b984:	a009883a 	mov	r4,r20
 840b988:	18c00054 	ori	r3,r3,1
 840b98c:	10c00115 	stw	r3,4(r2)
 840b990:	840aa280 	call	840aa28 <_free_r>
 840b994:	003fd306 	br	840b8e4 <__alt_data_end+0xfc40b8e4>
 840b998:	017fff04 	movi	r5,-4
 840b99c:	414a703a 	and	r5,r8,r5
 840b9a0:	89800404 	addi	r6,r17,16
 840b9a4:	8151883a 	add	r8,r16,r5
 840b9a8:	4180590e 	bge	r8,r6,840bb10 <_realloc_r+0x390>
 840b9ac:	1080004c 	andi	r2,r2,1
 840b9b0:	103f9e1e 	bne	r2,zero,840b82c <__alt_data_end+0xfc40b82c>
 840b9b4:	adbffe17 	ldw	r22,-8(r21)
 840b9b8:	00bfff04 	movi	r2,-4
 840b9bc:	9dadc83a 	sub	r22,r19,r22
 840b9c0:	b1800117 	ldw	r6,4(r22)
 840b9c4:	3084703a 	and	r2,r6,r2
 840b9c8:	20002026 	beq	r4,zero,840ba4c <_realloc_r+0x2cc>
 840b9cc:	80af883a 	add	r23,r16,r2
 840b9d0:	b96f883a 	add	r23,r23,r5
 840b9d4:	21c05f26 	beq	r4,r7,840bb54 <_realloc_r+0x3d4>
 840b9d8:	b8c01c16 	blt	r23,r3,840ba4c <_realloc_r+0x2cc>
 840b9dc:	20800317 	ldw	r2,12(r4)
 840b9e0:	20c00217 	ldw	r3,8(r4)
 840b9e4:	81bfff04 	addi	r6,r16,-4
 840b9e8:	01000904 	movi	r4,36
 840b9ec:	18800315 	stw	r2,12(r3)
 840b9f0:	10c00215 	stw	r3,8(r2)
 840b9f4:	b0c00217 	ldw	r3,8(r22)
 840b9f8:	b0800317 	ldw	r2,12(r22)
 840b9fc:	b4800204 	addi	r18,r22,8
 840ba00:	18800315 	stw	r2,12(r3)
 840ba04:	10c00215 	stw	r3,8(r2)
 840ba08:	21801b36 	bltu	r4,r6,840ba78 <_realloc_r+0x2f8>
 840ba0c:	008004c4 	movi	r2,19
 840ba10:	1180352e 	bgeu	r2,r6,840bae8 <_realloc_r+0x368>
 840ba14:	a8800017 	ldw	r2,0(r21)
 840ba18:	b0800215 	stw	r2,8(r22)
 840ba1c:	a8800117 	ldw	r2,4(r21)
 840ba20:	b0800315 	stw	r2,12(r22)
 840ba24:	008006c4 	movi	r2,27
 840ba28:	11807f36 	bltu	r2,r6,840bc28 <_realloc_r+0x4a8>
 840ba2c:	b0800404 	addi	r2,r22,16
 840ba30:	ad400204 	addi	r21,r21,8
 840ba34:	00002d06 	br	840baec <_realloc_r+0x36c>
 840ba38:	adbffe17 	ldw	r22,-8(r21)
 840ba3c:	00bfff04 	movi	r2,-4
 840ba40:	9dadc83a 	sub	r22,r19,r22
 840ba44:	b1000117 	ldw	r4,4(r22)
 840ba48:	2084703a 	and	r2,r4,r2
 840ba4c:	b03f7726 	beq	r22,zero,840b82c <__alt_data_end+0xfc40b82c>
 840ba50:	80af883a 	add	r23,r16,r2
 840ba54:	b8ff7516 	blt	r23,r3,840b82c <__alt_data_end+0xfc40b82c>
 840ba58:	b0800317 	ldw	r2,12(r22)
 840ba5c:	b0c00217 	ldw	r3,8(r22)
 840ba60:	81bfff04 	addi	r6,r16,-4
 840ba64:	01000904 	movi	r4,36
 840ba68:	18800315 	stw	r2,12(r3)
 840ba6c:	10c00215 	stw	r3,8(r2)
 840ba70:	b4800204 	addi	r18,r22,8
 840ba74:	21bfe52e 	bgeu	r4,r6,840ba0c <__alt_data_end+0xfc40ba0c>
 840ba78:	a80b883a 	mov	r5,r21
 840ba7c:	9009883a 	mov	r4,r18
 840ba80:	840b4bc0 	call	840b4bc <memmove>
 840ba84:	b821883a 	mov	r16,r23
 840ba88:	b027883a 	mov	r19,r22
 840ba8c:	003f8a06 	br	840b8b8 <__alt_data_end+0xfc40b8b8>
 840ba90:	300b883a 	mov	r5,r6
 840ba94:	dfc00917 	ldw	ra,36(sp)
 840ba98:	df000817 	ldw	fp,32(sp)
 840ba9c:	ddc00717 	ldw	r23,28(sp)
 840baa0:	dd800617 	ldw	r22,24(sp)
 840baa4:	dd400517 	ldw	r21,20(sp)
 840baa8:	dd000417 	ldw	r20,16(sp)
 840baac:	dcc00317 	ldw	r19,12(sp)
 840bab0:	dc800217 	ldw	r18,8(sp)
 840bab4:	dc400117 	ldw	r17,4(sp)
 840bab8:	dc000017 	ldw	r16,0(sp)
 840babc:	dec00a04 	addi	sp,sp,40
 840bac0:	84096d01 	jmpi	84096d0 <_malloc_r>
 840bac4:	a8c00017 	ldw	r3,0(r21)
 840bac8:	90c00015 	stw	r3,0(r18)
 840bacc:	a8c00117 	ldw	r3,4(r21)
 840bad0:	90c00115 	stw	r3,4(r18)
 840bad4:	00c006c4 	movi	r3,27
 840bad8:	19804536 	bltu	r3,r6,840bbf0 <_realloc_r+0x470>
 840badc:	90800204 	addi	r2,r18,8
 840bae0:	a8c00204 	addi	r3,r21,8
 840bae4:	003f6306 	br	840b874 <__alt_data_end+0xfc40b874>
 840bae8:	9005883a 	mov	r2,r18
 840baec:	a8c00017 	ldw	r3,0(r21)
 840baf0:	b821883a 	mov	r16,r23
 840baf4:	b027883a 	mov	r19,r22
 840baf8:	10c00015 	stw	r3,0(r2)
 840bafc:	a8c00117 	ldw	r3,4(r21)
 840bb00:	10c00115 	stw	r3,4(r2)
 840bb04:	a8c00217 	ldw	r3,8(r21)
 840bb08:	10c00215 	stw	r3,8(r2)
 840bb0c:	003f6a06 	br	840b8b8 <__alt_data_end+0xfc40b8b8>
 840bb10:	9c67883a 	add	r19,r19,r17
 840bb14:	4445c83a 	sub	r2,r8,r17
 840bb18:	e4c00215 	stw	r19,8(fp)
 840bb1c:	10800054 	ori	r2,r2,1
 840bb20:	98800115 	stw	r2,4(r19)
 840bb24:	a8bfff17 	ldw	r2,-4(r21)
 840bb28:	a009883a 	mov	r4,r20
 840bb2c:	1080004c 	andi	r2,r2,1
 840bb30:	1462b03a 	or	r17,r2,r17
 840bb34:	ac7fff15 	stw	r17,-4(r21)
 840bb38:	840d4180 	call	840d418 <__malloc_unlock>
 840bb3c:	a805883a 	mov	r2,r21
 840bb40:	003f6b06 	br	840b8f0 <__alt_data_end+0xfc40b8f0>
 840bb44:	a80b883a 	mov	r5,r21
 840bb48:	9009883a 	mov	r4,r18
 840bb4c:	840b4bc0 	call	840b4bc <memmove>
 840bb50:	003f4e06 	br	840b88c <__alt_data_end+0xfc40b88c>
 840bb54:	89000404 	addi	r4,r17,16
 840bb58:	b93fbc16 	blt	r23,r4,840ba4c <__alt_data_end+0xfc40ba4c>
 840bb5c:	b0800317 	ldw	r2,12(r22)
 840bb60:	b0c00217 	ldw	r3,8(r22)
 840bb64:	81bfff04 	addi	r6,r16,-4
 840bb68:	01000904 	movi	r4,36
 840bb6c:	18800315 	stw	r2,12(r3)
 840bb70:	10c00215 	stw	r3,8(r2)
 840bb74:	b4800204 	addi	r18,r22,8
 840bb78:	21804336 	bltu	r4,r6,840bc88 <_realloc_r+0x508>
 840bb7c:	008004c4 	movi	r2,19
 840bb80:	11803f2e 	bgeu	r2,r6,840bc80 <_realloc_r+0x500>
 840bb84:	a8800017 	ldw	r2,0(r21)
 840bb88:	b0800215 	stw	r2,8(r22)
 840bb8c:	a8800117 	ldw	r2,4(r21)
 840bb90:	b0800315 	stw	r2,12(r22)
 840bb94:	008006c4 	movi	r2,27
 840bb98:	11803f36 	bltu	r2,r6,840bc98 <_realloc_r+0x518>
 840bb9c:	b0800404 	addi	r2,r22,16
 840bba0:	ad400204 	addi	r21,r21,8
 840bba4:	a8c00017 	ldw	r3,0(r21)
 840bba8:	10c00015 	stw	r3,0(r2)
 840bbac:	a8c00117 	ldw	r3,4(r21)
 840bbb0:	10c00115 	stw	r3,4(r2)
 840bbb4:	a8c00217 	ldw	r3,8(r21)
 840bbb8:	10c00215 	stw	r3,8(r2)
 840bbbc:	b447883a 	add	r3,r22,r17
 840bbc0:	bc45c83a 	sub	r2,r23,r17
 840bbc4:	e0c00215 	stw	r3,8(fp)
 840bbc8:	10800054 	ori	r2,r2,1
 840bbcc:	18800115 	stw	r2,4(r3)
 840bbd0:	b0800117 	ldw	r2,4(r22)
 840bbd4:	a009883a 	mov	r4,r20
 840bbd8:	1080004c 	andi	r2,r2,1
 840bbdc:	1462b03a 	or	r17,r2,r17
 840bbe0:	b4400115 	stw	r17,4(r22)
 840bbe4:	840d4180 	call	840d418 <__malloc_unlock>
 840bbe8:	9005883a 	mov	r2,r18
 840bbec:	003f4006 	br	840b8f0 <__alt_data_end+0xfc40b8f0>
 840bbf0:	a8c00217 	ldw	r3,8(r21)
 840bbf4:	90c00215 	stw	r3,8(r18)
 840bbf8:	a8c00317 	ldw	r3,12(r21)
 840bbfc:	90c00315 	stw	r3,12(r18)
 840bc00:	30801126 	beq	r6,r2,840bc48 <_realloc_r+0x4c8>
 840bc04:	90800404 	addi	r2,r18,16
 840bc08:	a8c00404 	addi	r3,r21,16
 840bc0c:	003f1906 	br	840b874 <__alt_data_end+0xfc40b874>
 840bc10:	90ffff17 	ldw	r3,-4(r18)
 840bc14:	00bfff04 	movi	r2,-4
 840bc18:	a825883a 	mov	r18,r21
 840bc1c:	1884703a 	and	r2,r3,r2
 840bc20:	80a1883a 	add	r16,r16,r2
 840bc24:	003f2406 	br	840b8b8 <__alt_data_end+0xfc40b8b8>
 840bc28:	a8800217 	ldw	r2,8(r21)
 840bc2c:	b0800415 	stw	r2,16(r22)
 840bc30:	a8800317 	ldw	r2,12(r21)
 840bc34:	b0800515 	stw	r2,20(r22)
 840bc38:	31000a26 	beq	r6,r4,840bc64 <_realloc_r+0x4e4>
 840bc3c:	b0800604 	addi	r2,r22,24
 840bc40:	ad400404 	addi	r21,r21,16
 840bc44:	003fa906 	br	840baec <__alt_data_end+0xfc40baec>
 840bc48:	a9000417 	ldw	r4,16(r21)
 840bc4c:	90800604 	addi	r2,r18,24
 840bc50:	a8c00604 	addi	r3,r21,24
 840bc54:	91000415 	stw	r4,16(r18)
 840bc58:	a9000517 	ldw	r4,20(r21)
 840bc5c:	91000515 	stw	r4,20(r18)
 840bc60:	003f0406 	br	840b874 <__alt_data_end+0xfc40b874>
 840bc64:	a8c00417 	ldw	r3,16(r21)
 840bc68:	ad400604 	addi	r21,r21,24
 840bc6c:	b0800804 	addi	r2,r22,32
 840bc70:	b0c00615 	stw	r3,24(r22)
 840bc74:	a8ffff17 	ldw	r3,-4(r21)
 840bc78:	b0c00715 	stw	r3,28(r22)
 840bc7c:	003f9b06 	br	840baec <__alt_data_end+0xfc40baec>
 840bc80:	9005883a 	mov	r2,r18
 840bc84:	003fc706 	br	840bba4 <__alt_data_end+0xfc40bba4>
 840bc88:	a80b883a 	mov	r5,r21
 840bc8c:	9009883a 	mov	r4,r18
 840bc90:	840b4bc0 	call	840b4bc <memmove>
 840bc94:	003fc906 	br	840bbbc <__alt_data_end+0xfc40bbbc>
 840bc98:	a8800217 	ldw	r2,8(r21)
 840bc9c:	b0800415 	stw	r2,16(r22)
 840bca0:	a8800317 	ldw	r2,12(r21)
 840bca4:	b0800515 	stw	r2,20(r22)
 840bca8:	31000726 	beq	r6,r4,840bcc8 <_realloc_r+0x548>
 840bcac:	b0800604 	addi	r2,r22,24
 840bcb0:	ad400404 	addi	r21,r21,16
 840bcb4:	003fbb06 	br	840bba4 <__alt_data_end+0xfc40bba4>
 840bcb8:	a009883a 	mov	r4,r20
 840bcbc:	840d4180 	call	840d418 <__malloc_unlock>
 840bcc0:	0005883a 	mov	r2,zero
 840bcc4:	003f0a06 	br	840b8f0 <__alt_data_end+0xfc40b8f0>
 840bcc8:	a8c00417 	ldw	r3,16(r21)
 840bccc:	ad400604 	addi	r21,r21,24
 840bcd0:	b0800804 	addi	r2,r22,32
 840bcd4:	b0c00615 	stw	r3,24(r22)
 840bcd8:	a8ffff17 	ldw	r3,-4(r21)
 840bcdc:	b0c00715 	stw	r3,28(r22)
 840bce0:	003fb006 	br	840bba4 <__alt_data_end+0xfc40bba4>

0840bce4 <__sread>:
 840bce4:	defffe04 	addi	sp,sp,-8
 840bce8:	dc000015 	stw	r16,0(sp)
 840bcec:	2821883a 	mov	r16,r5
 840bcf0:	2940038f 	ldh	r5,14(r5)
 840bcf4:	dfc00115 	stw	ra,4(sp)
 840bcf8:	840c7480 	call	840c748 <_read_r>
 840bcfc:	10000716 	blt	r2,zero,840bd1c <__sread+0x38>
 840bd00:	80c01417 	ldw	r3,80(r16)
 840bd04:	1887883a 	add	r3,r3,r2
 840bd08:	80c01415 	stw	r3,80(r16)
 840bd0c:	dfc00117 	ldw	ra,4(sp)
 840bd10:	dc000017 	ldw	r16,0(sp)
 840bd14:	dec00204 	addi	sp,sp,8
 840bd18:	f800283a 	ret
 840bd1c:	80c0030b 	ldhu	r3,12(r16)
 840bd20:	18fbffcc 	andi	r3,r3,61439
 840bd24:	80c0030d 	sth	r3,12(r16)
 840bd28:	dfc00117 	ldw	ra,4(sp)
 840bd2c:	dc000017 	ldw	r16,0(sp)
 840bd30:	dec00204 	addi	sp,sp,8
 840bd34:	f800283a 	ret

0840bd38 <__seofread>:
 840bd38:	0005883a 	mov	r2,zero
 840bd3c:	f800283a 	ret

0840bd40 <__swrite>:
 840bd40:	2880030b 	ldhu	r2,12(r5)
 840bd44:	defffb04 	addi	sp,sp,-20
 840bd48:	dcc00315 	stw	r19,12(sp)
 840bd4c:	dc800215 	stw	r18,8(sp)
 840bd50:	dc400115 	stw	r17,4(sp)
 840bd54:	dc000015 	stw	r16,0(sp)
 840bd58:	dfc00415 	stw	ra,16(sp)
 840bd5c:	10c0400c 	andi	r3,r2,256
 840bd60:	2821883a 	mov	r16,r5
 840bd64:	2023883a 	mov	r17,r4
 840bd68:	3025883a 	mov	r18,r6
 840bd6c:	3827883a 	mov	r19,r7
 840bd70:	18000526 	beq	r3,zero,840bd88 <__swrite+0x48>
 840bd74:	2940038f 	ldh	r5,14(r5)
 840bd78:	01c00084 	movi	r7,2
 840bd7c:	000d883a 	mov	r6,zero
 840bd80:	840c52c0 	call	840c52c <_lseek_r>
 840bd84:	8080030b 	ldhu	r2,12(r16)
 840bd88:	8140038f 	ldh	r5,14(r16)
 840bd8c:	10bbffcc 	andi	r2,r2,61439
 840bd90:	980f883a 	mov	r7,r19
 840bd94:	900d883a 	mov	r6,r18
 840bd98:	8809883a 	mov	r4,r17
 840bd9c:	8080030d 	sth	r2,12(r16)
 840bda0:	dfc00417 	ldw	ra,16(sp)
 840bda4:	dcc00317 	ldw	r19,12(sp)
 840bda8:	dc800217 	ldw	r18,8(sp)
 840bdac:	dc400117 	ldw	r17,4(sp)
 840bdb0:	dc000017 	ldw	r16,0(sp)
 840bdb4:	dec00504 	addi	sp,sp,20
 840bdb8:	840bf781 	jmpi	840bf78 <_write_r>

0840bdbc <__sseek>:
 840bdbc:	defffe04 	addi	sp,sp,-8
 840bdc0:	dc000015 	stw	r16,0(sp)
 840bdc4:	2821883a 	mov	r16,r5
 840bdc8:	2940038f 	ldh	r5,14(r5)
 840bdcc:	dfc00115 	stw	ra,4(sp)
 840bdd0:	840c52c0 	call	840c52c <_lseek_r>
 840bdd4:	00ffffc4 	movi	r3,-1
 840bdd8:	10c00826 	beq	r2,r3,840bdfc <__sseek+0x40>
 840bddc:	80c0030b 	ldhu	r3,12(r16)
 840bde0:	80801415 	stw	r2,80(r16)
 840bde4:	18c40014 	ori	r3,r3,4096
 840bde8:	80c0030d 	sth	r3,12(r16)
 840bdec:	dfc00117 	ldw	ra,4(sp)
 840bdf0:	dc000017 	ldw	r16,0(sp)
 840bdf4:	dec00204 	addi	sp,sp,8
 840bdf8:	f800283a 	ret
 840bdfc:	80c0030b 	ldhu	r3,12(r16)
 840be00:	18fbffcc 	andi	r3,r3,61439
 840be04:	80c0030d 	sth	r3,12(r16)
 840be08:	dfc00117 	ldw	ra,4(sp)
 840be0c:	dc000017 	ldw	r16,0(sp)
 840be10:	dec00204 	addi	sp,sp,8
 840be14:	f800283a 	ret

0840be18 <__sclose>:
 840be18:	2940038f 	ldh	r5,14(r5)
 840be1c:	840c12c1 	jmpi	840c12c <_close_r>

0840be20 <__swbuf_r>:
 840be20:	defffb04 	addi	sp,sp,-20
 840be24:	dcc00315 	stw	r19,12(sp)
 840be28:	dc800215 	stw	r18,8(sp)
 840be2c:	dc000015 	stw	r16,0(sp)
 840be30:	dfc00415 	stw	ra,16(sp)
 840be34:	dc400115 	stw	r17,4(sp)
 840be38:	2025883a 	mov	r18,r4
 840be3c:	2827883a 	mov	r19,r5
 840be40:	3021883a 	mov	r16,r6
 840be44:	20000226 	beq	r4,zero,840be50 <__swbuf_r+0x30>
 840be48:	20800e17 	ldw	r2,56(r4)
 840be4c:	10004226 	beq	r2,zero,840bf58 <__swbuf_r+0x138>
 840be50:	80800617 	ldw	r2,24(r16)
 840be54:	8100030b 	ldhu	r4,12(r16)
 840be58:	80800215 	stw	r2,8(r16)
 840be5c:	2080020c 	andi	r2,r4,8
 840be60:	10003626 	beq	r2,zero,840bf3c <__swbuf_r+0x11c>
 840be64:	80c00417 	ldw	r3,16(r16)
 840be68:	18003426 	beq	r3,zero,840bf3c <__swbuf_r+0x11c>
 840be6c:	2088000c 	andi	r2,r4,8192
 840be70:	9c403fcc 	andi	r17,r19,255
 840be74:	10001a26 	beq	r2,zero,840bee0 <__swbuf_r+0xc0>
 840be78:	80800017 	ldw	r2,0(r16)
 840be7c:	81000517 	ldw	r4,20(r16)
 840be80:	10c7c83a 	sub	r3,r2,r3
 840be84:	1900200e 	bge	r3,r4,840bf08 <__swbuf_r+0xe8>
 840be88:	18c00044 	addi	r3,r3,1
 840be8c:	81000217 	ldw	r4,8(r16)
 840be90:	11400044 	addi	r5,r2,1
 840be94:	81400015 	stw	r5,0(r16)
 840be98:	213fffc4 	addi	r4,r4,-1
 840be9c:	81000215 	stw	r4,8(r16)
 840bea0:	14c00005 	stb	r19,0(r2)
 840bea4:	80800517 	ldw	r2,20(r16)
 840bea8:	10c01e26 	beq	r2,r3,840bf24 <__swbuf_r+0x104>
 840beac:	8080030b 	ldhu	r2,12(r16)
 840beb0:	1080004c 	andi	r2,r2,1
 840beb4:	10000226 	beq	r2,zero,840bec0 <__swbuf_r+0xa0>
 840beb8:	00800284 	movi	r2,10
 840bebc:	88801926 	beq	r17,r2,840bf24 <__swbuf_r+0x104>
 840bec0:	8805883a 	mov	r2,r17
 840bec4:	dfc00417 	ldw	ra,16(sp)
 840bec8:	dcc00317 	ldw	r19,12(sp)
 840becc:	dc800217 	ldw	r18,8(sp)
 840bed0:	dc400117 	ldw	r17,4(sp)
 840bed4:	dc000017 	ldw	r16,0(sp)
 840bed8:	dec00504 	addi	sp,sp,20
 840bedc:	f800283a 	ret
 840bee0:	81401917 	ldw	r5,100(r16)
 840bee4:	00b7ffc4 	movi	r2,-8193
 840bee8:	21080014 	ori	r4,r4,8192
 840beec:	2884703a 	and	r2,r5,r2
 840bef0:	80801915 	stw	r2,100(r16)
 840bef4:	80800017 	ldw	r2,0(r16)
 840bef8:	8100030d 	sth	r4,12(r16)
 840befc:	81000517 	ldw	r4,20(r16)
 840bf00:	10c7c83a 	sub	r3,r2,r3
 840bf04:	193fe016 	blt	r3,r4,840be88 <__alt_data_end+0xfc40be88>
 840bf08:	800b883a 	mov	r5,r16
 840bf0c:	9009883a 	mov	r4,r18
 840bf10:	840c4a00 	call	840c4a0 <_fflush_r>
 840bf14:	1000071e 	bne	r2,zero,840bf34 <__swbuf_r+0x114>
 840bf18:	80800017 	ldw	r2,0(r16)
 840bf1c:	00c00044 	movi	r3,1
 840bf20:	003fda06 	br	840be8c <__alt_data_end+0xfc40be8c>
 840bf24:	800b883a 	mov	r5,r16
 840bf28:	9009883a 	mov	r4,r18
 840bf2c:	840c4a00 	call	840c4a0 <_fflush_r>
 840bf30:	103fe326 	beq	r2,zero,840bec0 <__alt_data_end+0xfc40bec0>
 840bf34:	00bfffc4 	movi	r2,-1
 840bf38:	003fe206 	br	840bec4 <__alt_data_end+0xfc40bec4>
 840bf3c:	800b883a 	mov	r5,r16
 840bf40:	9009883a 	mov	r4,r18
 840bf44:	840bfd80 	call	840bfd8 <__swsetup_r>
 840bf48:	103ffa1e 	bne	r2,zero,840bf34 <__alt_data_end+0xfc40bf34>
 840bf4c:	8100030b 	ldhu	r4,12(r16)
 840bf50:	80c00417 	ldw	r3,16(r16)
 840bf54:	003fc506 	br	840be6c <__alt_data_end+0xfc40be6c>
 840bf58:	840a8b40 	call	840a8b4 <__sinit>
 840bf5c:	003fbc06 	br	840be50 <__alt_data_end+0xfc40be50>

0840bf60 <__swbuf>:
 840bf60:	00821134 	movhi	r2,2116
 840bf64:	10b01704 	addi	r2,r2,-16292
 840bf68:	280d883a 	mov	r6,r5
 840bf6c:	200b883a 	mov	r5,r4
 840bf70:	11000017 	ldw	r4,0(r2)
 840bf74:	840be201 	jmpi	840be20 <__swbuf_r>

0840bf78 <_write_r>:
 840bf78:	defffd04 	addi	sp,sp,-12
 840bf7c:	2805883a 	mov	r2,r5
 840bf80:	dc000015 	stw	r16,0(sp)
 840bf84:	04021134 	movhi	r16,2116
 840bf88:	dc400115 	stw	r17,4(sp)
 840bf8c:	300b883a 	mov	r5,r6
 840bf90:	843ca304 	addi	r16,r16,-3444
 840bf94:	2023883a 	mov	r17,r4
 840bf98:	380d883a 	mov	r6,r7
 840bf9c:	1009883a 	mov	r4,r2
 840bfa0:	dfc00215 	stw	ra,8(sp)
 840bfa4:	80000015 	stw	zero,0(r16)
 840bfa8:	840d8980 	call	840d898 <write>
 840bfac:	00ffffc4 	movi	r3,-1
 840bfb0:	10c00526 	beq	r2,r3,840bfc8 <_write_r+0x50>
 840bfb4:	dfc00217 	ldw	ra,8(sp)
 840bfb8:	dc400117 	ldw	r17,4(sp)
 840bfbc:	dc000017 	ldw	r16,0(sp)
 840bfc0:	dec00304 	addi	sp,sp,12
 840bfc4:	f800283a 	ret
 840bfc8:	80c00017 	ldw	r3,0(r16)
 840bfcc:	183ff926 	beq	r3,zero,840bfb4 <__alt_data_end+0xfc40bfb4>
 840bfd0:	88c00015 	stw	r3,0(r17)
 840bfd4:	003ff706 	br	840bfb4 <__alt_data_end+0xfc40bfb4>

0840bfd8 <__swsetup_r>:
 840bfd8:	00821134 	movhi	r2,2116
 840bfdc:	defffd04 	addi	sp,sp,-12
 840bfe0:	10b01704 	addi	r2,r2,-16292
 840bfe4:	dc400115 	stw	r17,4(sp)
 840bfe8:	2023883a 	mov	r17,r4
 840bfec:	11000017 	ldw	r4,0(r2)
 840bff0:	dc000015 	stw	r16,0(sp)
 840bff4:	dfc00215 	stw	ra,8(sp)
 840bff8:	2821883a 	mov	r16,r5
 840bffc:	20000226 	beq	r4,zero,840c008 <__swsetup_r+0x30>
 840c000:	20800e17 	ldw	r2,56(r4)
 840c004:	10003126 	beq	r2,zero,840c0cc <__swsetup_r+0xf4>
 840c008:	8080030b 	ldhu	r2,12(r16)
 840c00c:	10c0020c 	andi	r3,r2,8
 840c010:	1009883a 	mov	r4,r2
 840c014:	18000f26 	beq	r3,zero,840c054 <__swsetup_r+0x7c>
 840c018:	80c00417 	ldw	r3,16(r16)
 840c01c:	18001526 	beq	r3,zero,840c074 <__swsetup_r+0x9c>
 840c020:	1100004c 	andi	r4,r2,1
 840c024:	20001c1e 	bne	r4,zero,840c098 <__swsetup_r+0xc0>
 840c028:	1080008c 	andi	r2,r2,2
 840c02c:	1000291e 	bne	r2,zero,840c0d4 <__swsetup_r+0xfc>
 840c030:	80800517 	ldw	r2,20(r16)
 840c034:	80800215 	stw	r2,8(r16)
 840c038:	18001c26 	beq	r3,zero,840c0ac <__swsetup_r+0xd4>
 840c03c:	0005883a 	mov	r2,zero
 840c040:	dfc00217 	ldw	ra,8(sp)
 840c044:	dc400117 	ldw	r17,4(sp)
 840c048:	dc000017 	ldw	r16,0(sp)
 840c04c:	dec00304 	addi	sp,sp,12
 840c050:	f800283a 	ret
 840c054:	2080040c 	andi	r2,r4,16
 840c058:	10002e26 	beq	r2,zero,840c114 <__swsetup_r+0x13c>
 840c05c:	2080010c 	andi	r2,r4,4
 840c060:	10001e1e 	bne	r2,zero,840c0dc <__swsetup_r+0x104>
 840c064:	80c00417 	ldw	r3,16(r16)
 840c068:	20800214 	ori	r2,r4,8
 840c06c:	8080030d 	sth	r2,12(r16)
 840c070:	183feb1e 	bne	r3,zero,840c020 <__alt_data_end+0xfc40c020>
 840c074:	1100a00c 	andi	r4,r2,640
 840c078:	01408004 	movi	r5,512
 840c07c:	217fe826 	beq	r4,r5,840c020 <__alt_data_end+0xfc40c020>
 840c080:	800b883a 	mov	r5,r16
 840c084:	8809883a 	mov	r4,r17
 840c088:	840c58c0 	call	840c58c <__smakebuf_r>
 840c08c:	8080030b 	ldhu	r2,12(r16)
 840c090:	80c00417 	ldw	r3,16(r16)
 840c094:	003fe206 	br	840c020 <__alt_data_end+0xfc40c020>
 840c098:	80800517 	ldw	r2,20(r16)
 840c09c:	80000215 	stw	zero,8(r16)
 840c0a0:	0085c83a 	sub	r2,zero,r2
 840c0a4:	80800615 	stw	r2,24(r16)
 840c0a8:	183fe41e 	bne	r3,zero,840c03c <__alt_data_end+0xfc40c03c>
 840c0ac:	80c0030b 	ldhu	r3,12(r16)
 840c0b0:	0005883a 	mov	r2,zero
 840c0b4:	1900200c 	andi	r4,r3,128
 840c0b8:	203fe126 	beq	r4,zero,840c040 <__alt_data_end+0xfc40c040>
 840c0bc:	18c01014 	ori	r3,r3,64
 840c0c0:	80c0030d 	sth	r3,12(r16)
 840c0c4:	00bfffc4 	movi	r2,-1
 840c0c8:	003fdd06 	br	840c040 <__alt_data_end+0xfc40c040>
 840c0cc:	840a8b40 	call	840a8b4 <__sinit>
 840c0d0:	003fcd06 	br	840c008 <__alt_data_end+0xfc40c008>
 840c0d4:	0005883a 	mov	r2,zero
 840c0d8:	003fd606 	br	840c034 <__alt_data_end+0xfc40c034>
 840c0dc:	81400c17 	ldw	r5,48(r16)
 840c0e0:	28000626 	beq	r5,zero,840c0fc <__swsetup_r+0x124>
 840c0e4:	80801004 	addi	r2,r16,64
 840c0e8:	28800326 	beq	r5,r2,840c0f8 <__swsetup_r+0x120>
 840c0ec:	8809883a 	mov	r4,r17
 840c0f0:	840aa280 	call	840aa28 <_free_r>
 840c0f4:	8100030b 	ldhu	r4,12(r16)
 840c0f8:	80000c15 	stw	zero,48(r16)
 840c0fc:	80c00417 	ldw	r3,16(r16)
 840c100:	00bff6c4 	movi	r2,-37
 840c104:	1108703a 	and	r4,r2,r4
 840c108:	80000115 	stw	zero,4(r16)
 840c10c:	80c00015 	stw	r3,0(r16)
 840c110:	003fd506 	br	840c068 <__alt_data_end+0xfc40c068>
 840c114:	00800244 	movi	r2,9
 840c118:	88800015 	stw	r2,0(r17)
 840c11c:	20801014 	ori	r2,r4,64
 840c120:	8080030d 	sth	r2,12(r16)
 840c124:	00bfffc4 	movi	r2,-1
 840c128:	003fc506 	br	840c040 <__alt_data_end+0xfc40c040>

0840c12c <_close_r>:
 840c12c:	defffd04 	addi	sp,sp,-12
 840c130:	dc000015 	stw	r16,0(sp)
 840c134:	04021134 	movhi	r16,2116
 840c138:	dc400115 	stw	r17,4(sp)
 840c13c:	843ca304 	addi	r16,r16,-3444
 840c140:	2023883a 	mov	r17,r4
 840c144:	2809883a 	mov	r4,r5
 840c148:	dfc00215 	stw	ra,8(sp)
 840c14c:	80000015 	stw	zero,0(r16)
 840c150:	840ca200 	call	840ca20 <close>
 840c154:	00ffffc4 	movi	r3,-1
 840c158:	10c00526 	beq	r2,r3,840c170 <_close_r+0x44>
 840c15c:	dfc00217 	ldw	ra,8(sp)
 840c160:	dc400117 	ldw	r17,4(sp)
 840c164:	dc000017 	ldw	r16,0(sp)
 840c168:	dec00304 	addi	sp,sp,12
 840c16c:	f800283a 	ret
 840c170:	80c00017 	ldw	r3,0(r16)
 840c174:	183ff926 	beq	r3,zero,840c15c <__alt_data_end+0xfc40c15c>
 840c178:	88c00015 	stw	r3,0(r17)
 840c17c:	003ff706 	br	840c15c <__alt_data_end+0xfc40c15c>

0840c180 <_fclose_r>:
 840c180:	28003926 	beq	r5,zero,840c268 <_fclose_r+0xe8>
 840c184:	defffc04 	addi	sp,sp,-16
 840c188:	dc400115 	stw	r17,4(sp)
 840c18c:	dc000015 	stw	r16,0(sp)
 840c190:	dfc00315 	stw	ra,12(sp)
 840c194:	dc800215 	stw	r18,8(sp)
 840c198:	2023883a 	mov	r17,r4
 840c19c:	2821883a 	mov	r16,r5
 840c1a0:	20000226 	beq	r4,zero,840c1ac <_fclose_r+0x2c>
 840c1a4:	20800e17 	ldw	r2,56(r4)
 840c1a8:	10002726 	beq	r2,zero,840c248 <_fclose_r+0xc8>
 840c1ac:	8080030f 	ldh	r2,12(r16)
 840c1b0:	1000071e 	bne	r2,zero,840c1d0 <_fclose_r+0x50>
 840c1b4:	0005883a 	mov	r2,zero
 840c1b8:	dfc00317 	ldw	ra,12(sp)
 840c1bc:	dc800217 	ldw	r18,8(sp)
 840c1c0:	dc400117 	ldw	r17,4(sp)
 840c1c4:	dc000017 	ldw	r16,0(sp)
 840c1c8:	dec00404 	addi	sp,sp,16
 840c1cc:	f800283a 	ret
 840c1d0:	800b883a 	mov	r5,r16
 840c1d4:	8809883a 	mov	r4,r17
 840c1d8:	840c2840 	call	840c284 <__sflush_r>
 840c1dc:	1025883a 	mov	r18,r2
 840c1e0:	80800b17 	ldw	r2,44(r16)
 840c1e4:	10000426 	beq	r2,zero,840c1f8 <_fclose_r+0x78>
 840c1e8:	81400717 	ldw	r5,28(r16)
 840c1ec:	8809883a 	mov	r4,r17
 840c1f0:	103ee83a 	callr	r2
 840c1f4:	10001616 	blt	r2,zero,840c250 <_fclose_r+0xd0>
 840c1f8:	8080030b 	ldhu	r2,12(r16)
 840c1fc:	1080200c 	andi	r2,r2,128
 840c200:	1000151e 	bne	r2,zero,840c258 <_fclose_r+0xd8>
 840c204:	81400c17 	ldw	r5,48(r16)
 840c208:	28000526 	beq	r5,zero,840c220 <_fclose_r+0xa0>
 840c20c:	80801004 	addi	r2,r16,64
 840c210:	28800226 	beq	r5,r2,840c21c <_fclose_r+0x9c>
 840c214:	8809883a 	mov	r4,r17
 840c218:	840aa280 	call	840aa28 <_free_r>
 840c21c:	80000c15 	stw	zero,48(r16)
 840c220:	81401117 	ldw	r5,68(r16)
 840c224:	28000326 	beq	r5,zero,840c234 <_fclose_r+0xb4>
 840c228:	8809883a 	mov	r4,r17
 840c22c:	840aa280 	call	840aa28 <_free_r>
 840c230:	80001115 	stw	zero,68(r16)
 840c234:	840a8c40 	call	840a8c4 <__sfp_lock_acquire>
 840c238:	8000030d 	sth	zero,12(r16)
 840c23c:	840a8c80 	call	840a8c8 <__sfp_lock_release>
 840c240:	9005883a 	mov	r2,r18
 840c244:	003fdc06 	br	840c1b8 <__alt_data_end+0xfc40c1b8>
 840c248:	840a8b40 	call	840a8b4 <__sinit>
 840c24c:	003fd706 	br	840c1ac <__alt_data_end+0xfc40c1ac>
 840c250:	04bfffc4 	movi	r18,-1
 840c254:	003fe806 	br	840c1f8 <__alt_data_end+0xfc40c1f8>
 840c258:	81400417 	ldw	r5,16(r16)
 840c25c:	8809883a 	mov	r4,r17
 840c260:	840aa280 	call	840aa28 <_free_r>
 840c264:	003fe706 	br	840c204 <__alt_data_end+0xfc40c204>
 840c268:	0005883a 	mov	r2,zero
 840c26c:	f800283a 	ret

0840c270 <fclose>:
 840c270:	00821134 	movhi	r2,2116
 840c274:	10b01704 	addi	r2,r2,-16292
 840c278:	200b883a 	mov	r5,r4
 840c27c:	11000017 	ldw	r4,0(r2)
 840c280:	840c1801 	jmpi	840c180 <_fclose_r>

0840c284 <__sflush_r>:
 840c284:	2880030b 	ldhu	r2,12(r5)
 840c288:	defffb04 	addi	sp,sp,-20
 840c28c:	dcc00315 	stw	r19,12(sp)
 840c290:	dc400115 	stw	r17,4(sp)
 840c294:	dfc00415 	stw	ra,16(sp)
 840c298:	dc800215 	stw	r18,8(sp)
 840c29c:	dc000015 	stw	r16,0(sp)
 840c2a0:	10c0020c 	andi	r3,r2,8
 840c2a4:	2823883a 	mov	r17,r5
 840c2a8:	2027883a 	mov	r19,r4
 840c2ac:	1800311e 	bne	r3,zero,840c374 <__sflush_r+0xf0>
 840c2b0:	28c00117 	ldw	r3,4(r5)
 840c2b4:	10820014 	ori	r2,r2,2048
 840c2b8:	2880030d 	sth	r2,12(r5)
 840c2bc:	00c04b0e 	bge	zero,r3,840c3ec <__sflush_r+0x168>
 840c2c0:	8a000a17 	ldw	r8,40(r17)
 840c2c4:	40002326 	beq	r8,zero,840c354 <__sflush_r+0xd0>
 840c2c8:	9c000017 	ldw	r16,0(r19)
 840c2cc:	10c4000c 	andi	r3,r2,4096
 840c2d0:	98000015 	stw	zero,0(r19)
 840c2d4:	18004826 	beq	r3,zero,840c3f8 <__sflush_r+0x174>
 840c2d8:	89801417 	ldw	r6,80(r17)
 840c2dc:	10c0010c 	andi	r3,r2,4
 840c2e0:	18000626 	beq	r3,zero,840c2fc <__sflush_r+0x78>
 840c2e4:	88c00117 	ldw	r3,4(r17)
 840c2e8:	88800c17 	ldw	r2,48(r17)
 840c2ec:	30cdc83a 	sub	r6,r6,r3
 840c2f0:	10000226 	beq	r2,zero,840c2fc <__sflush_r+0x78>
 840c2f4:	88800f17 	ldw	r2,60(r17)
 840c2f8:	308dc83a 	sub	r6,r6,r2
 840c2fc:	89400717 	ldw	r5,28(r17)
 840c300:	000f883a 	mov	r7,zero
 840c304:	9809883a 	mov	r4,r19
 840c308:	403ee83a 	callr	r8
 840c30c:	00ffffc4 	movi	r3,-1
 840c310:	10c04426 	beq	r2,r3,840c424 <__sflush_r+0x1a0>
 840c314:	88c0030b 	ldhu	r3,12(r17)
 840c318:	89000417 	ldw	r4,16(r17)
 840c31c:	88000115 	stw	zero,4(r17)
 840c320:	197dffcc 	andi	r5,r3,63487
 840c324:	8940030d 	sth	r5,12(r17)
 840c328:	89000015 	stw	r4,0(r17)
 840c32c:	18c4000c 	andi	r3,r3,4096
 840c330:	18002c1e 	bne	r3,zero,840c3e4 <__sflush_r+0x160>
 840c334:	89400c17 	ldw	r5,48(r17)
 840c338:	9c000015 	stw	r16,0(r19)
 840c33c:	28000526 	beq	r5,zero,840c354 <__sflush_r+0xd0>
 840c340:	88801004 	addi	r2,r17,64
 840c344:	28800226 	beq	r5,r2,840c350 <__sflush_r+0xcc>
 840c348:	9809883a 	mov	r4,r19
 840c34c:	840aa280 	call	840aa28 <_free_r>
 840c350:	88000c15 	stw	zero,48(r17)
 840c354:	0005883a 	mov	r2,zero
 840c358:	dfc00417 	ldw	ra,16(sp)
 840c35c:	dcc00317 	ldw	r19,12(sp)
 840c360:	dc800217 	ldw	r18,8(sp)
 840c364:	dc400117 	ldw	r17,4(sp)
 840c368:	dc000017 	ldw	r16,0(sp)
 840c36c:	dec00504 	addi	sp,sp,20
 840c370:	f800283a 	ret
 840c374:	2c800417 	ldw	r18,16(r5)
 840c378:	903ff626 	beq	r18,zero,840c354 <__alt_data_end+0xfc40c354>
 840c37c:	2c000017 	ldw	r16,0(r5)
 840c380:	108000cc 	andi	r2,r2,3
 840c384:	2c800015 	stw	r18,0(r5)
 840c388:	84a1c83a 	sub	r16,r16,r18
 840c38c:	1000131e 	bne	r2,zero,840c3dc <__sflush_r+0x158>
 840c390:	28800517 	ldw	r2,20(r5)
 840c394:	88800215 	stw	r2,8(r17)
 840c398:	04000316 	blt	zero,r16,840c3a8 <__sflush_r+0x124>
 840c39c:	003fed06 	br	840c354 <__alt_data_end+0xfc40c354>
 840c3a0:	90a5883a 	add	r18,r18,r2
 840c3a4:	043feb0e 	bge	zero,r16,840c354 <__alt_data_end+0xfc40c354>
 840c3a8:	88800917 	ldw	r2,36(r17)
 840c3ac:	89400717 	ldw	r5,28(r17)
 840c3b0:	800f883a 	mov	r7,r16
 840c3b4:	900d883a 	mov	r6,r18
 840c3b8:	9809883a 	mov	r4,r19
 840c3bc:	103ee83a 	callr	r2
 840c3c0:	80a1c83a 	sub	r16,r16,r2
 840c3c4:	00bff616 	blt	zero,r2,840c3a0 <__alt_data_end+0xfc40c3a0>
 840c3c8:	88c0030b 	ldhu	r3,12(r17)
 840c3cc:	00bfffc4 	movi	r2,-1
 840c3d0:	18c01014 	ori	r3,r3,64
 840c3d4:	88c0030d 	sth	r3,12(r17)
 840c3d8:	003fdf06 	br	840c358 <__alt_data_end+0xfc40c358>
 840c3dc:	0005883a 	mov	r2,zero
 840c3e0:	003fec06 	br	840c394 <__alt_data_end+0xfc40c394>
 840c3e4:	88801415 	stw	r2,80(r17)
 840c3e8:	003fd206 	br	840c334 <__alt_data_end+0xfc40c334>
 840c3ec:	28c00f17 	ldw	r3,60(r5)
 840c3f0:	00ffb316 	blt	zero,r3,840c2c0 <__alt_data_end+0xfc40c2c0>
 840c3f4:	003fd706 	br	840c354 <__alt_data_end+0xfc40c354>
 840c3f8:	89400717 	ldw	r5,28(r17)
 840c3fc:	000d883a 	mov	r6,zero
 840c400:	01c00044 	movi	r7,1
 840c404:	9809883a 	mov	r4,r19
 840c408:	403ee83a 	callr	r8
 840c40c:	100d883a 	mov	r6,r2
 840c410:	00bfffc4 	movi	r2,-1
 840c414:	30801426 	beq	r6,r2,840c468 <__sflush_r+0x1e4>
 840c418:	8880030b 	ldhu	r2,12(r17)
 840c41c:	8a000a17 	ldw	r8,40(r17)
 840c420:	003fae06 	br	840c2dc <__alt_data_end+0xfc40c2dc>
 840c424:	98c00017 	ldw	r3,0(r19)
 840c428:	183fba26 	beq	r3,zero,840c314 <__alt_data_end+0xfc40c314>
 840c42c:	01000744 	movi	r4,29
 840c430:	19000626 	beq	r3,r4,840c44c <__sflush_r+0x1c8>
 840c434:	01000584 	movi	r4,22
 840c438:	19000426 	beq	r3,r4,840c44c <__sflush_r+0x1c8>
 840c43c:	88c0030b 	ldhu	r3,12(r17)
 840c440:	18c01014 	ori	r3,r3,64
 840c444:	88c0030d 	sth	r3,12(r17)
 840c448:	003fc306 	br	840c358 <__alt_data_end+0xfc40c358>
 840c44c:	8880030b 	ldhu	r2,12(r17)
 840c450:	88c00417 	ldw	r3,16(r17)
 840c454:	88000115 	stw	zero,4(r17)
 840c458:	10bdffcc 	andi	r2,r2,63487
 840c45c:	8880030d 	sth	r2,12(r17)
 840c460:	88c00015 	stw	r3,0(r17)
 840c464:	003fb306 	br	840c334 <__alt_data_end+0xfc40c334>
 840c468:	98800017 	ldw	r2,0(r19)
 840c46c:	103fea26 	beq	r2,zero,840c418 <__alt_data_end+0xfc40c418>
 840c470:	00c00744 	movi	r3,29
 840c474:	10c00226 	beq	r2,r3,840c480 <__sflush_r+0x1fc>
 840c478:	00c00584 	movi	r3,22
 840c47c:	10c0031e 	bne	r2,r3,840c48c <__sflush_r+0x208>
 840c480:	9c000015 	stw	r16,0(r19)
 840c484:	0005883a 	mov	r2,zero
 840c488:	003fb306 	br	840c358 <__alt_data_end+0xfc40c358>
 840c48c:	88c0030b 	ldhu	r3,12(r17)
 840c490:	3005883a 	mov	r2,r6
 840c494:	18c01014 	ori	r3,r3,64
 840c498:	88c0030d 	sth	r3,12(r17)
 840c49c:	003fae06 	br	840c358 <__alt_data_end+0xfc40c358>

0840c4a0 <_fflush_r>:
 840c4a0:	defffd04 	addi	sp,sp,-12
 840c4a4:	dc000115 	stw	r16,4(sp)
 840c4a8:	dfc00215 	stw	ra,8(sp)
 840c4ac:	2021883a 	mov	r16,r4
 840c4b0:	20000226 	beq	r4,zero,840c4bc <_fflush_r+0x1c>
 840c4b4:	20800e17 	ldw	r2,56(r4)
 840c4b8:	10000c26 	beq	r2,zero,840c4ec <_fflush_r+0x4c>
 840c4bc:	2880030f 	ldh	r2,12(r5)
 840c4c0:	1000051e 	bne	r2,zero,840c4d8 <_fflush_r+0x38>
 840c4c4:	0005883a 	mov	r2,zero
 840c4c8:	dfc00217 	ldw	ra,8(sp)
 840c4cc:	dc000117 	ldw	r16,4(sp)
 840c4d0:	dec00304 	addi	sp,sp,12
 840c4d4:	f800283a 	ret
 840c4d8:	8009883a 	mov	r4,r16
 840c4dc:	dfc00217 	ldw	ra,8(sp)
 840c4e0:	dc000117 	ldw	r16,4(sp)
 840c4e4:	dec00304 	addi	sp,sp,12
 840c4e8:	840c2841 	jmpi	840c284 <__sflush_r>
 840c4ec:	d9400015 	stw	r5,0(sp)
 840c4f0:	840a8b40 	call	840a8b4 <__sinit>
 840c4f4:	d9400017 	ldw	r5,0(sp)
 840c4f8:	003ff006 	br	840c4bc <__alt_data_end+0xfc40c4bc>

0840c4fc <fflush>:
 840c4fc:	20000526 	beq	r4,zero,840c514 <fflush+0x18>
 840c500:	00821134 	movhi	r2,2116
 840c504:	10b01704 	addi	r2,r2,-16292
 840c508:	200b883a 	mov	r5,r4
 840c50c:	11000017 	ldw	r4,0(r2)
 840c510:	840c4a01 	jmpi	840c4a0 <_fflush_r>
 840c514:	00821134 	movhi	r2,2116
 840c518:	10b01604 	addi	r2,r2,-16296
 840c51c:	11000017 	ldw	r4,0(r2)
 840c520:	01421074 	movhi	r5,2113
 840c524:	29712804 	addi	r5,r5,-15200
 840c528:	840b2b81 	jmpi	840b2b8 <_fwalk_reent>

0840c52c <_lseek_r>:
 840c52c:	defffd04 	addi	sp,sp,-12
 840c530:	2805883a 	mov	r2,r5
 840c534:	dc000015 	stw	r16,0(sp)
 840c538:	04021134 	movhi	r16,2116
 840c53c:	dc400115 	stw	r17,4(sp)
 840c540:	300b883a 	mov	r5,r6
 840c544:	843ca304 	addi	r16,r16,-3444
 840c548:	2023883a 	mov	r17,r4
 840c54c:	380d883a 	mov	r6,r7
 840c550:	1009883a 	mov	r4,r2
 840c554:	dfc00215 	stw	ra,8(sp)
 840c558:	80000015 	stw	zero,0(r16)
 840c55c:	840d2a40 	call	840d2a4 <lseek>
 840c560:	00ffffc4 	movi	r3,-1
 840c564:	10c00526 	beq	r2,r3,840c57c <_lseek_r+0x50>
 840c568:	dfc00217 	ldw	ra,8(sp)
 840c56c:	dc400117 	ldw	r17,4(sp)
 840c570:	dc000017 	ldw	r16,0(sp)
 840c574:	dec00304 	addi	sp,sp,12
 840c578:	f800283a 	ret
 840c57c:	80c00017 	ldw	r3,0(r16)
 840c580:	183ff926 	beq	r3,zero,840c568 <__alt_data_end+0xfc40c568>
 840c584:	88c00015 	stw	r3,0(r17)
 840c588:	003ff706 	br	840c568 <__alt_data_end+0xfc40c568>

0840c58c <__smakebuf_r>:
 840c58c:	2880030b 	ldhu	r2,12(r5)
 840c590:	10c0008c 	andi	r3,r2,2
 840c594:	1800411e 	bne	r3,zero,840c69c <__smakebuf_r+0x110>
 840c598:	deffec04 	addi	sp,sp,-80
 840c59c:	dc000f15 	stw	r16,60(sp)
 840c5a0:	2821883a 	mov	r16,r5
 840c5a4:	2940038f 	ldh	r5,14(r5)
 840c5a8:	dc401015 	stw	r17,64(sp)
 840c5ac:	dfc01315 	stw	ra,76(sp)
 840c5b0:	dcc01215 	stw	r19,72(sp)
 840c5b4:	dc801115 	stw	r18,68(sp)
 840c5b8:	2023883a 	mov	r17,r4
 840c5bc:	28001c16 	blt	r5,zero,840c630 <__smakebuf_r+0xa4>
 840c5c0:	d80d883a 	mov	r6,sp
 840c5c4:	840c7a80 	call	840c7a8 <_fstat_r>
 840c5c8:	10001816 	blt	r2,zero,840c62c <__smakebuf_r+0xa0>
 840c5cc:	d8800117 	ldw	r2,4(sp)
 840c5d0:	00e00014 	movui	r3,32768
 840c5d4:	10bc000c 	andi	r2,r2,61440
 840c5d8:	14c80020 	cmpeqi	r19,r2,8192
 840c5dc:	10c03726 	beq	r2,r3,840c6bc <__smakebuf_r+0x130>
 840c5e0:	80c0030b 	ldhu	r3,12(r16)
 840c5e4:	18c20014 	ori	r3,r3,2048
 840c5e8:	80c0030d 	sth	r3,12(r16)
 840c5ec:	00c80004 	movi	r3,8192
 840c5f0:	10c0521e 	bne	r2,r3,840c73c <__smakebuf_r+0x1b0>
 840c5f4:	8140038f 	ldh	r5,14(r16)
 840c5f8:	8809883a 	mov	r4,r17
 840c5fc:	840c8040 	call	840c804 <_isatty_r>
 840c600:	10004c26 	beq	r2,zero,840c734 <__smakebuf_r+0x1a8>
 840c604:	8080030b 	ldhu	r2,12(r16)
 840c608:	80c010c4 	addi	r3,r16,67
 840c60c:	80c00015 	stw	r3,0(r16)
 840c610:	10800054 	ori	r2,r2,1
 840c614:	8080030d 	sth	r2,12(r16)
 840c618:	00800044 	movi	r2,1
 840c61c:	80c00415 	stw	r3,16(r16)
 840c620:	80800515 	stw	r2,20(r16)
 840c624:	04810004 	movi	r18,1024
 840c628:	00000706 	br	840c648 <__smakebuf_r+0xbc>
 840c62c:	8080030b 	ldhu	r2,12(r16)
 840c630:	10c0200c 	andi	r3,r2,128
 840c634:	18001f1e 	bne	r3,zero,840c6b4 <__smakebuf_r+0x128>
 840c638:	04810004 	movi	r18,1024
 840c63c:	10820014 	ori	r2,r2,2048
 840c640:	8080030d 	sth	r2,12(r16)
 840c644:	0027883a 	mov	r19,zero
 840c648:	900b883a 	mov	r5,r18
 840c64c:	8809883a 	mov	r4,r17
 840c650:	84096d00 	call	84096d0 <_malloc_r>
 840c654:	10002c26 	beq	r2,zero,840c708 <__smakebuf_r+0x17c>
 840c658:	80c0030b 	ldhu	r3,12(r16)
 840c65c:	01021074 	movhi	r4,2113
 840c660:	21295b04 	addi	r4,r4,-23188
 840c664:	89000f15 	stw	r4,60(r17)
 840c668:	18c02014 	ori	r3,r3,128
 840c66c:	80c0030d 	sth	r3,12(r16)
 840c670:	80800015 	stw	r2,0(r16)
 840c674:	80800415 	stw	r2,16(r16)
 840c678:	84800515 	stw	r18,20(r16)
 840c67c:	98001a1e 	bne	r19,zero,840c6e8 <__smakebuf_r+0x15c>
 840c680:	dfc01317 	ldw	ra,76(sp)
 840c684:	dcc01217 	ldw	r19,72(sp)
 840c688:	dc801117 	ldw	r18,68(sp)
 840c68c:	dc401017 	ldw	r17,64(sp)
 840c690:	dc000f17 	ldw	r16,60(sp)
 840c694:	dec01404 	addi	sp,sp,80
 840c698:	f800283a 	ret
 840c69c:	288010c4 	addi	r2,r5,67
 840c6a0:	28800015 	stw	r2,0(r5)
 840c6a4:	28800415 	stw	r2,16(r5)
 840c6a8:	00800044 	movi	r2,1
 840c6ac:	28800515 	stw	r2,20(r5)
 840c6b0:	f800283a 	ret
 840c6b4:	04801004 	movi	r18,64
 840c6b8:	003fe006 	br	840c63c <__alt_data_end+0xfc40c63c>
 840c6bc:	81000a17 	ldw	r4,40(r16)
 840c6c0:	00c21074 	movhi	r3,2113
 840c6c4:	18ef6f04 	addi	r3,r3,-16964
 840c6c8:	20ffc51e 	bne	r4,r3,840c5e0 <__alt_data_end+0xfc40c5e0>
 840c6cc:	8080030b 	ldhu	r2,12(r16)
 840c6d0:	04810004 	movi	r18,1024
 840c6d4:	84801315 	stw	r18,76(r16)
 840c6d8:	1484b03a 	or	r2,r2,r18
 840c6dc:	8080030d 	sth	r2,12(r16)
 840c6e0:	0027883a 	mov	r19,zero
 840c6e4:	003fd806 	br	840c648 <__alt_data_end+0xfc40c648>
 840c6e8:	8140038f 	ldh	r5,14(r16)
 840c6ec:	8809883a 	mov	r4,r17
 840c6f0:	840c8040 	call	840c804 <_isatty_r>
 840c6f4:	103fe226 	beq	r2,zero,840c680 <__alt_data_end+0xfc40c680>
 840c6f8:	8080030b 	ldhu	r2,12(r16)
 840c6fc:	10800054 	ori	r2,r2,1
 840c700:	8080030d 	sth	r2,12(r16)
 840c704:	003fde06 	br	840c680 <__alt_data_end+0xfc40c680>
 840c708:	8080030b 	ldhu	r2,12(r16)
 840c70c:	10c0800c 	andi	r3,r2,512
 840c710:	183fdb1e 	bne	r3,zero,840c680 <__alt_data_end+0xfc40c680>
 840c714:	10800094 	ori	r2,r2,2
 840c718:	80c010c4 	addi	r3,r16,67
 840c71c:	8080030d 	sth	r2,12(r16)
 840c720:	00800044 	movi	r2,1
 840c724:	80c00015 	stw	r3,0(r16)
 840c728:	80c00415 	stw	r3,16(r16)
 840c72c:	80800515 	stw	r2,20(r16)
 840c730:	003fd306 	br	840c680 <__alt_data_end+0xfc40c680>
 840c734:	04810004 	movi	r18,1024
 840c738:	003fc306 	br	840c648 <__alt_data_end+0xfc40c648>
 840c73c:	0027883a 	mov	r19,zero
 840c740:	04810004 	movi	r18,1024
 840c744:	003fc006 	br	840c648 <__alt_data_end+0xfc40c648>

0840c748 <_read_r>:
 840c748:	defffd04 	addi	sp,sp,-12
 840c74c:	2805883a 	mov	r2,r5
 840c750:	dc000015 	stw	r16,0(sp)
 840c754:	04021134 	movhi	r16,2116
 840c758:	dc400115 	stw	r17,4(sp)
 840c75c:	300b883a 	mov	r5,r6
 840c760:	843ca304 	addi	r16,r16,-3444
 840c764:	2023883a 	mov	r17,r4
 840c768:	380d883a 	mov	r6,r7
 840c76c:	1009883a 	mov	r4,r2
 840c770:	dfc00215 	stw	ra,8(sp)
 840c774:	80000015 	stw	zero,0(r16)
 840c778:	840d4780 	call	840d478 <read>
 840c77c:	00ffffc4 	movi	r3,-1
 840c780:	10c00526 	beq	r2,r3,840c798 <_read_r+0x50>
 840c784:	dfc00217 	ldw	ra,8(sp)
 840c788:	dc400117 	ldw	r17,4(sp)
 840c78c:	dc000017 	ldw	r16,0(sp)
 840c790:	dec00304 	addi	sp,sp,12
 840c794:	f800283a 	ret
 840c798:	80c00017 	ldw	r3,0(r16)
 840c79c:	183ff926 	beq	r3,zero,840c784 <__alt_data_end+0xfc40c784>
 840c7a0:	88c00015 	stw	r3,0(r17)
 840c7a4:	003ff706 	br	840c784 <__alt_data_end+0xfc40c784>

0840c7a8 <_fstat_r>:
 840c7a8:	defffd04 	addi	sp,sp,-12
 840c7ac:	2805883a 	mov	r2,r5
 840c7b0:	dc000015 	stw	r16,0(sp)
 840c7b4:	04021134 	movhi	r16,2116
 840c7b8:	dc400115 	stw	r17,4(sp)
 840c7bc:	843ca304 	addi	r16,r16,-3444
 840c7c0:	2023883a 	mov	r17,r4
 840c7c4:	300b883a 	mov	r5,r6
 840c7c8:	1009883a 	mov	r4,r2
 840c7cc:	dfc00215 	stw	ra,8(sp)
 840c7d0:	80000015 	stw	zero,0(r16)
 840c7d4:	840cb580 	call	840cb58 <fstat>
 840c7d8:	00ffffc4 	movi	r3,-1
 840c7dc:	10c00526 	beq	r2,r3,840c7f4 <_fstat_r+0x4c>
 840c7e0:	dfc00217 	ldw	ra,8(sp)
 840c7e4:	dc400117 	ldw	r17,4(sp)
 840c7e8:	dc000017 	ldw	r16,0(sp)
 840c7ec:	dec00304 	addi	sp,sp,12
 840c7f0:	f800283a 	ret
 840c7f4:	80c00017 	ldw	r3,0(r16)
 840c7f8:	183ff926 	beq	r3,zero,840c7e0 <__alt_data_end+0xfc40c7e0>
 840c7fc:	88c00015 	stw	r3,0(r17)
 840c800:	003ff706 	br	840c7e0 <__alt_data_end+0xfc40c7e0>

0840c804 <_isatty_r>:
 840c804:	defffd04 	addi	sp,sp,-12
 840c808:	dc000015 	stw	r16,0(sp)
 840c80c:	04021134 	movhi	r16,2116
 840c810:	dc400115 	stw	r17,4(sp)
 840c814:	843ca304 	addi	r16,r16,-3444
 840c818:	2023883a 	mov	r17,r4
 840c81c:	2809883a 	mov	r4,r5
 840c820:	dfc00215 	stw	ra,8(sp)
 840c824:	80000015 	stw	zero,0(r16)
 840c828:	840d0d80 	call	840d0d8 <isatty>
 840c82c:	00ffffc4 	movi	r3,-1
 840c830:	10c00526 	beq	r2,r3,840c848 <_isatty_r+0x44>
 840c834:	dfc00217 	ldw	ra,8(sp)
 840c838:	dc400117 	ldw	r17,4(sp)
 840c83c:	dc000017 	ldw	r16,0(sp)
 840c840:	dec00304 	addi	sp,sp,12
 840c844:	f800283a 	ret
 840c848:	80c00017 	ldw	r3,0(r16)
 840c84c:	183ff926 	beq	r3,zero,840c834 <__alt_data_end+0xfc40c834>
 840c850:	88c00015 	stw	r3,0(r17)
 840c854:	003ff706 	br	840c834 <__alt_data_end+0xfc40c834>

0840c858 <__muldi3>:
 840c858:	223fffcc 	andi	r8,r4,65535
 840c85c:	2006d43a 	srli	r3,r4,16
 840c860:	32bfffcc 	andi	r10,r6,65535
 840c864:	3012d43a 	srli	r9,r6,16
 840c868:	4297383a 	mul	r11,r8,r10
 840c86c:	1a95383a 	mul	r10,r3,r10
 840c870:	4251383a 	mul	r8,r8,r9
 840c874:	5804d43a 	srli	r2,r11,16
 840c878:	4291883a 	add	r8,r8,r10
 840c87c:	1205883a 	add	r2,r2,r8
 840c880:	1a51383a 	mul	r8,r3,r9
 840c884:	1280022e 	bgeu	r2,r10,840c890 <__muldi3+0x38>
 840c888:	00c00074 	movhi	r3,1
 840c88c:	40d1883a 	add	r8,r8,r3
 840c890:	1006d43a 	srli	r3,r2,16
 840c894:	21cf383a 	mul	r7,r4,r7
 840c898:	314b383a 	mul	r5,r6,r5
 840c89c:	1004943a 	slli	r2,r2,16
 840c8a0:	1a11883a 	add	r8,r3,r8
 840c8a4:	5affffcc 	andi	r11,r11,65535
 840c8a8:	3947883a 	add	r3,r7,r5
 840c8ac:	12c5883a 	add	r2,r2,r11
 840c8b0:	1a07883a 	add	r3,r3,r8
 840c8b4:	f800283a 	ret

0840c8b8 <alt_alarm_start>:
 */ 

int alt_alarm_start (alt_alarm* alarm, alt_u32 nticks,
                     alt_u32 (*callback) (void* context),
                     void* context)
{
 840c8b8:	defff504 	addi	sp,sp,-44
 840c8bc:	df000a15 	stw	fp,40(sp)
 840c8c0:	df000a04 	addi	fp,sp,40
 840c8c4:	e13ffc15 	stw	r4,-16(fp)
 840c8c8:	e17ffd15 	stw	r5,-12(fp)
 840c8cc:	e1bffe15 	stw	r6,-8(fp)
 840c8d0:	e1ffff15 	stw	r7,-4(fp)
  alt_irq_context irq_context;
  alt_u32 current_nticks = 0;
 840c8d4:	e03ff615 	stw	zero,-40(fp)
 * Obtain the system clock rate in ticks/s. 
 */

static ALT_INLINE alt_u32 ALT_ALWAYS_INLINE alt_ticks_per_second (void)
{
  return _alt_tick_rate;
 840c8d8:	d0ac9717 	ldw	r2,-19876(gp)
  
  if (alt_ticks_per_second ())
 840c8dc:	10003c26 	beq	r2,zero,840c9d0 <alt_alarm_start+0x118>
  {
    if (alarm)
 840c8e0:	e0bffc17 	ldw	r2,-16(fp)
 840c8e4:	10003826 	beq	r2,zero,840c9c8 <alt_alarm_start+0x110>
    {
      alarm->callback = callback;
 840c8e8:	e0bffc17 	ldw	r2,-16(fp)
 840c8ec:	e0fffe17 	ldw	r3,-8(fp)
 840c8f0:	10c00315 	stw	r3,12(r2)
      alarm->context  = context;
 840c8f4:	e0bffc17 	ldw	r2,-16(fp)
 840c8f8:	e0ffff17 	ldw	r3,-4(fp)
 840c8fc:	10c00515 	stw	r3,20(r2)
static ALT_INLINE alt_irq_context ALT_ALWAYS_INLINE 
       alt_irq_disable_all (void)
{
  alt_irq_context context;

  NIOS2_READ_STATUS (context);
 840c900:	0005303a 	rdctl	r2,status
 840c904:	e0bff915 	stw	r2,-28(fp)

  NIOS2_WRITE_STATUS (context & ~NIOS2_STATUS_PIE_MSK);
 840c908:	e0fff917 	ldw	r3,-28(fp)
 840c90c:	00bfff84 	movi	r2,-2
 840c910:	1884703a 	and	r2,r3,r2
 840c914:	1001703a 	wrctl	status,r2
  
  return context;
 840c918:	e0bff917 	ldw	r2,-28(fp)
 
      irq_context = alt_irq_disable_all ();
 840c91c:	e0bff815 	stw	r2,-32(fp)
 * alt_nticks() returns the elapsed number of system clock ticks since reset.
 */

static ALT_INLINE alt_u32 ALT_ALWAYS_INLINE alt_nticks (void)
{
  return _alt_nticks;
 840c920:	d0ac9817 	ldw	r2,-19872(gp)
      
      current_nticks = alt_nticks();
 840c924:	e0bff615 	stw	r2,-40(fp)
      
      alarm->time = nticks + current_nticks + 1; 
 840c928:	e0fffd17 	ldw	r3,-12(fp)
 840c92c:	e0bff617 	ldw	r2,-40(fp)
 840c930:	1885883a 	add	r2,r3,r2
 840c934:	10c00044 	addi	r3,r2,1
 840c938:	e0bffc17 	ldw	r2,-16(fp)
 840c93c:	10c00215 	stw	r3,8(r2)
      /* 
       * If the desired alarm time causes a roll-over, set the rollover
       * flag. This will prevent the subsequent tick event from causing
       * an alarm too early.
       */
      if(alarm->time < current_nticks)
 840c940:	e0bffc17 	ldw	r2,-16(fp)
 840c944:	10c00217 	ldw	r3,8(r2)
 840c948:	e0bff617 	ldw	r2,-40(fp)
 840c94c:	1880042e 	bgeu	r3,r2,840c960 <alt_alarm_start+0xa8>
      {
        alarm->rollover = 1;
 840c950:	e0bffc17 	ldw	r2,-16(fp)
 840c954:	00c00044 	movi	r3,1
 840c958:	10c00405 	stb	r3,16(r2)
 840c95c:	00000206 	br	840c968 <alt_alarm_start+0xb0>
      }
      else
      {
        alarm->rollover = 0;
 840c960:	e0bffc17 	ldw	r2,-16(fp)
 840c964:	10000405 	stb	zero,16(r2)
      }
    
      alt_llist_insert (&alt_alarm_list, &alarm->llist);
 840c968:	e0bffc17 	ldw	r2,-16(fp)
 840c96c:	d0e00d04 	addi	r3,gp,-32716
 840c970:	e0fffa15 	stw	r3,-24(fp)
 840c974:	e0bffb15 	stw	r2,-20(fp)
 */

static ALT_INLINE void ALT_ALWAYS_INLINE alt_llist_insert(alt_llist* list, 
                alt_llist* entry)
{
  entry->previous = list;
 840c978:	e0bffb17 	ldw	r2,-20(fp)
 840c97c:	e0fffa17 	ldw	r3,-24(fp)
 840c980:	10c00115 	stw	r3,4(r2)
  entry->next     = list->next;
 840c984:	e0bffa17 	ldw	r2,-24(fp)
 840c988:	10c00017 	ldw	r3,0(r2)
 840c98c:	e0bffb17 	ldw	r2,-20(fp)
 840c990:	10c00015 	stw	r3,0(r2)

  list->next->previous = entry;
 840c994:	e0bffa17 	ldw	r2,-24(fp)
 840c998:	10800017 	ldw	r2,0(r2)
 840c99c:	e0fffb17 	ldw	r3,-20(fp)
 840c9a0:	10c00115 	stw	r3,4(r2)
  list->next           = entry;
 840c9a4:	e0bffa17 	ldw	r2,-24(fp)
 840c9a8:	e0fffb17 	ldw	r3,-20(fp)
 840c9ac:	10c00015 	stw	r3,0(r2)
 840c9b0:	e0bff817 	ldw	r2,-32(fp)
 840c9b4:	e0bff715 	stw	r2,-36(fp)
  status &= ~NIOS2_STATUS_PIE_MSK;
  status |= (context & NIOS2_STATUS_PIE_MSK);
  
  NIOS2_WRITE_STATUS (status);
#else
  NIOS2_WRITE_STATUS (context);
 840c9b8:	e0bff717 	ldw	r2,-36(fp)
 840c9bc:	1001703a 	wrctl	status,r2
      alt_irq_enable_all (irq_context);

      return 0;
 840c9c0:	0005883a 	mov	r2,zero
 840c9c4:	00000306 	br	840c9d4 <alt_alarm_start+0x11c>
    }
    else
    {
      return -EINVAL;
 840c9c8:	00bffa84 	movi	r2,-22
 840c9cc:	00000106 	br	840c9d4 <alt_alarm_start+0x11c>
    }
  }
  else
  {
    return -ENOTSUP;
 840c9d0:	00bfde84 	movi	r2,-134
  }
}
 840c9d4:	e037883a 	mov	sp,fp
 840c9d8:	df000017 	ldw	fp,0(sp)
 840c9dc:	dec00104 	addi	sp,sp,4
 840c9e0:	f800283a 	ret

0840c9e4 <alt_get_errno>:
#undef errno

extern int errno;

static ALT_INLINE int* alt_get_errno(void)
{
 840c9e4:	defffe04 	addi	sp,sp,-8
 840c9e8:	dfc00115 	stw	ra,4(sp)
 840c9ec:	df000015 	stw	fp,0(sp)
 840c9f0:	d839883a 	mov	fp,sp
  return ((alt_errno) ? alt_errno() : &errno);
 840c9f4:	d0a00a17 	ldw	r2,-32728(gp)
 840c9f8:	10000326 	beq	r2,zero,840ca08 <alt_get_errno+0x24>
 840c9fc:	d0a00a17 	ldw	r2,-32728(gp)
 840ca00:	103ee83a 	callr	r2
 840ca04:	00000106 	br	840ca0c <alt_get_errno+0x28>
 840ca08:	d0ac8e04 	addi	r2,gp,-19912
}
 840ca0c:	e037883a 	mov	sp,fp
 840ca10:	dfc00117 	ldw	ra,4(sp)
 840ca14:	df000017 	ldw	fp,0(sp)
 840ca18:	dec00204 	addi	sp,sp,8
 840ca1c:	f800283a 	ret

0840ca20 <close>:
 *
 * ALT_CLOSE is mapped onto the close() system call in alt_syscall.h
 */
 
int ALT_CLOSE (int fildes)
{
 840ca20:	defffb04 	addi	sp,sp,-20
 840ca24:	dfc00415 	stw	ra,16(sp)
 840ca28:	df000315 	stw	fp,12(sp)
 840ca2c:	df000304 	addi	fp,sp,12
 840ca30:	e13fff15 	stw	r4,-4(fp)
   * A common error case is that when the file descriptor was created, the call
   * to open() failed resulting in a negative file descriptor. This is trapped
   * below so that we don't try and process an invalid file descriptor.
   */

  fd = (fildes < 0) ? NULL : &alt_fd_list[fildes];
 840ca34:	e0bfff17 	ldw	r2,-4(fp)
 840ca38:	10000616 	blt	r2,zero,840ca54 <close+0x34>
 840ca3c:	e0bfff17 	ldw	r2,-4(fp)
 840ca40:	10c00324 	muli	r3,r2,12
 840ca44:	00821134 	movhi	r2,2116
 840ca48:	10ab9d04 	addi	r2,r2,-20876
 840ca4c:	1885883a 	add	r2,r3,r2
 840ca50:	00000106 	br	840ca58 <close+0x38>
 840ca54:	0005883a 	mov	r2,zero
 840ca58:	e0bffd15 	stw	r2,-12(fp)

  if (fd)
 840ca5c:	e0bffd17 	ldw	r2,-12(fp)
 840ca60:	10001926 	beq	r2,zero,840cac8 <close+0xa8>
    /*
     * If the associated file system/device has a close function, call it so 
     * that any necessary cleanup code can run.
     */

    rval = (fd->dev->close) ? fd->dev->close(fd) : 0;
 840ca64:	e0bffd17 	ldw	r2,-12(fp)
 840ca68:	10800017 	ldw	r2,0(r2)
 840ca6c:	10800417 	ldw	r2,16(r2)
 840ca70:	10000626 	beq	r2,zero,840ca8c <close+0x6c>
 840ca74:	e0bffd17 	ldw	r2,-12(fp)
 840ca78:	10800017 	ldw	r2,0(r2)
 840ca7c:	10800417 	ldw	r2,16(r2)
 840ca80:	e13ffd17 	ldw	r4,-12(fp)
 840ca84:	103ee83a 	callr	r2
 840ca88:	00000106 	br	840ca90 <close+0x70>
 840ca8c:	0005883a 	mov	r2,zero
 840ca90:	e0bffe15 	stw	r2,-8(fp)

    /* Free the file descriptor structure and return. */

    alt_release_fd (fildes);
 840ca94:	e13fff17 	ldw	r4,-4(fp)
 840ca98:	840d5740 	call	840d574 <alt_release_fd>
    if (rval < 0)
 840ca9c:	e0bffe17 	ldw	r2,-8(fp)
 840caa0:	1000070e 	bge	r2,zero,840cac0 <close+0xa0>
    {
      ALT_ERRNO = -rval;
 840caa4:	840c9e40 	call	840c9e4 <alt_get_errno>
 840caa8:	1007883a 	mov	r3,r2
 840caac:	e0bffe17 	ldw	r2,-8(fp)
 840cab0:	0085c83a 	sub	r2,zero,r2
 840cab4:	18800015 	stw	r2,0(r3)
      return -1;
 840cab8:	00bfffc4 	movi	r2,-1
 840cabc:	00000706 	br	840cadc <close+0xbc>
    }
    return 0;
 840cac0:	0005883a 	mov	r2,zero
 840cac4:	00000506 	br	840cadc <close+0xbc>
  }
  else
  {
    ALT_ERRNO = EBADFD;
 840cac8:	840c9e40 	call	840c9e4 <alt_get_errno>
 840cacc:	1007883a 	mov	r3,r2
 840cad0:	00801444 	movi	r2,81
 840cad4:	18800015 	stw	r2,0(r3)
    return -1;
 840cad8:	00bfffc4 	movi	r2,-1
  }
}
 840cadc:	e037883a 	mov	sp,fp
 840cae0:	dfc00117 	ldw	ra,4(sp)
 840cae4:	df000017 	ldw	fp,0(sp)
 840cae8:	dec00204 	addi	sp,sp,8
 840caec:	f800283a 	ret

0840caf0 <alt_dev_null_write>:
 * by the alt_dev_null device. It simple discards all data passed to it, and
 * indicates that the data has been successfully transmitted.
 */

static int alt_dev_null_write (alt_fd* fd, const char* ptr, int len)
{
 840caf0:	defffc04 	addi	sp,sp,-16
 840caf4:	df000315 	stw	fp,12(sp)
 840caf8:	df000304 	addi	fp,sp,12
 840cafc:	e13ffd15 	stw	r4,-12(fp)
 840cb00:	e17ffe15 	stw	r5,-8(fp)
 840cb04:	e1bfff15 	stw	r6,-4(fp)
  return len;
 840cb08:	e0bfff17 	ldw	r2,-4(fp)
}
 840cb0c:	e037883a 	mov	sp,fp
 840cb10:	df000017 	ldw	fp,0(sp)
 840cb14:	dec00104 	addi	sp,sp,4
 840cb18:	f800283a 	ret

0840cb1c <alt_get_errno>:
#undef errno

extern int errno;

static ALT_INLINE int* alt_get_errno(void)
{
 840cb1c:	defffe04 	addi	sp,sp,-8
 840cb20:	dfc00115 	stw	ra,4(sp)
 840cb24:	df000015 	stw	fp,0(sp)
 840cb28:	d839883a 	mov	fp,sp
  return ((alt_errno) ? alt_errno() : &errno);
 840cb2c:	d0a00a17 	ldw	r2,-32728(gp)
 840cb30:	10000326 	beq	r2,zero,840cb40 <alt_get_errno+0x24>
 840cb34:	d0a00a17 	ldw	r2,-32728(gp)
 840cb38:	103ee83a 	callr	r2
 840cb3c:	00000106 	br	840cb44 <alt_get_errno+0x28>
 840cb40:	d0ac8e04 	addi	r2,gp,-19912
}
 840cb44:	e037883a 	mov	sp,fp
 840cb48:	dfc00117 	ldw	ra,4(sp)
 840cb4c:	df000017 	ldw	fp,0(sp)
 840cb50:	dec00204 	addi	sp,sp,8
 840cb54:	f800283a 	ret

0840cb58 <fstat>:
}

#else /* !ALT_USE_DIRECT_DRIVERS */

int ALT_FSTAT (int file, struct stat *st)
{
 840cb58:	defffb04 	addi	sp,sp,-20
 840cb5c:	dfc00415 	stw	ra,16(sp)
 840cb60:	df000315 	stw	fp,12(sp)
 840cb64:	df000304 	addi	fp,sp,12
 840cb68:	e13ffe15 	stw	r4,-8(fp)
 840cb6c:	e17fff15 	stw	r5,-4(fp)
   * A common error case is that when the file descriptor was created, the call
   * to open() failed resulting in a negative file descriptor. This is trapped
   * below so that we don't try and process an invalid file descriptor.
   */

  fd = (file < 0) ? NULL : &alt_fd_list[file];
 840cb70:	e0bffe17 	ldw	r2,-8(fp)
 840cb74:	10000616 	blt	r2,zero,840cb90 <fstat+0x38>
 840cb78:	e0bffe17 	ldw	r2,-8(fp)
 840cb7c:	10c00324 	muli	r3,r2,12
 840cb80:	00821134 	movhi	r2,2116
 840cb84:	10ab9d04 	addi	r2,r2,-20876
 840cb88:	1885883a 	add	r2,r3,r2
 840cb8c:	00000106 	br	840cb94 <fstat+0x3c>
 840cb90:	0005883a 	mov	r2,zero
 840cb94:	e0bffd15 	stw	r2,-12(fp)
  
  if (fd)
 840cb98:	e0bffd17 	ldw	r2,-12(fp)
 840cb9c:	10001026 	beq	r2,zero,840cbe0 <fstat+0x88>
  {
    /* Call the drivers fstat() function to fill out the "st" structure. */

    if (fd->dev->fstat)
 840cba0:	e0bffd17 	ldw	r2,-12(fp)
 840cba4:	10800017 	ldw	r2,0(r2)
 840cba8:	10800817 	ldw	r2,32(r2)
 840cbac:	10000726 	beq	r2,zero,840cbcc <fstat+0x74>
    {
      return fd->dev->fstat(fd, st);
 840cbb0:	e0bffd17 	ldw	r2,-12(fp)
 840cbb4:	10800017 	ldw	r2,0(r2)
 840cbb8:	10800817 	ldw	r2,32(r2)
 840cbbc:	e17fff17 	ldw	r5,-4(fp)
 840cbc0:	e13ffd17 	ldw	r4,-12(fp)
 840cbc4:	103ee83a 	callr	r2
 840cbc8:	00000a06 	br	840cbf4 <fstat+0x9c>
     * device.
     */
 
    else
    {
      st->st_mode = _IFCHR;
 840cbcc:	e0bfff17 	ldw	r2,-4(fp)
 840cbd0:	00c80004 	movi	r3,8192
 840cbd4:	10c00115 	stw	r3,4(r2)
      return 0;
 840cbd8:	0005883a 	mov	r2,zero
 840cbdc:	00000506 	br	840cbf4 <fstat+0x9c>
    }
  }
  else
  {
    ALT_ERRNO = EBADFD;
 840cbe0:	840cb1c0 	call	840cb1c <alt_get_errno>
 840cbe4:	1007883a 	mov	r3,r2
 840cbe8:	00801444 	movi	r2,81
 840cbec:	18800015 	stw	r2,0(r3)
    return -1;
 840cbf0:	00bfffc4 	movi	r2,-1
  }
}
 840cbf4:	e037883a 	mov	sp,fp
 840cbf8:	dfc00117 	ldw	ra,4(sp)
 840cbfc:	df000017 	ldw	fp,0(sp)
 840cc00:	dec00204 	addi	sp,sp,8
 840cc04:	f800283a 	ret

0840cc08 <gettimeofday>:
 */
 

#if defined (__GNUC__) && (__GNUC__ >= 4)
int ALT_GETTIMEOFDAY (struct timeval  *ptimeval, void *ptimezone_vptr)
{
 840cc08:	defff404 	addi	sp,sp,-48
 840cc0c:	dfc00b15 	stw	ra,44(sp)
 840cc10:	df000a15 	stw	fp,40(sp)
 840cc14:	dd000915 	stw	r20,36(sp)
 840cc18:	dcc00815 	stw	r19,32(sp)
 840cc1c:	dc800715 	stw	r18,28(sp)
 840cc20:	dc400615 	stw	r17,24(sp)
 840cc24:	dc000515 	stw	r16,20(sp)
 840cc28:	df000a04 	addi	fp,sp,40
 840cc2c:	e13ff915 	stw	r4,-28(fp)
 840cc30:	e17ffa15 	stw	r5,-24(fp)
  struct timezone *ptimezone = (struct timezone*)ptimezone_vptr;
 840cc34:	e0bffa17 	ldw	r2,-24(fp)
 840cc38:	e0bff615 	stw	r2,-40(fp)
 840cc3c:	d0ac9817 	ldw	r2,-19872(gp)
#else
int ALT_GETTIMEOFDAY (struct timeval  *ptimeval, struct timezone *ptimezone)
{
#endif
  
  alt_u32 nticks = alt_nticks (); 
 840cc40:	e0bff715 	stw	r2,-36(fp)
 * Obtain the system clock rate in ticks/s. 
 */

static ALT_INLINE alt_u32 ALT_ALWAYS_INLINE alt_ticks_per_second (void)
{
  return _alt_tick_rate;
 840cc44:	d0ac9717 	ldw	r2,-19876(gp)
  alt_u32 tick_rate = alt_ticks_per_second ();
 840cc48:	e0bff815 	stw	r2,-32(fp)
   * non-zero system clock rate. If the system clock is not running, an error
   * is generated and the contents of "ptimeval" and "ptimezone" are not
   * updated.
   */

  if (tick_rate)
 840cc4c:	e0bff817 	ldw	r2,-32(fp)
 840cc50:	10005f26 	beq	r2,zero,840cdd0 <gettimeofday+0x1c8>
  {
    ptimeval->tv_sec  = alt_resettime.tv_sec  + nticks/tick_rate;
 840cc54:	d0ac9117 	ldw	r2,-19900(gp)
 840cc58:	1029883a 	mov	r20,r2
 840cc5c:	e17ff817 	ldw	r5,-32(fp)
 840cc60:	e13ff717 	ldw	r4,-36(fp)
 840cc64:	84070a40 	call	84070a4 <__udivsi3>
 840cc68:	a085883a 	add	r2,r20,r2
 840cc6c:	1007883a 	mov	r3,r2
 840cc70:	e0bff917 	ldw	r2,-28(fp)
 840cc74:	10c00015 	stw	r3,0(r2)
    ptimeval->tv_usec = alt_resettime.tv_usec +
 840cc78:	d0ac9217 	ldw	r2,-19896(gp)
 840cc7c:	1029883a 	mov	r20,r2
     (alt_u32)(((alt_u64)nticks*(ALT_US/tick_rate))%ALT_US);
 840cc80:	e0bff717 	ldw	r2,-36(fp)
 840cc84:	1021883a 	mov	r16,r2
 840cc88:	0023883a 	mov	r17,zero
 840cc8c:	e17ff817 	ldw	r5,-32(fp)
 840cc90:	010003f4 	movhi	r4,15
 840cc94:	21109004 	addi	r4,r4,16960
 840cc98:	84070a40 	call	84070a4 <__udivsi3>
 840cc9c:	1025883a 	mov	r18,r2
 840cca0:	0027883a 	mov	r19,zero
 840cca4:	900d883a 	mov	r6,r18
 840cca8:	980f883a 	mov	r7,r19
 840ccac:	8009883a 	mov	r4,r16
 840ccb0:	880b883a 	mov	r5,r17
 840ccb4:	840c8580 	call	840c858 <__muldi3>
 840ccb8:	1009883a 	mov	r4,r2
 840ccbc:	180b883a 	mov	r5,r3
 840ccc0:	2005883a 	mov	r2,r4
 840ccc4:	2807883a 	mov	r3,r5
 840ccc8:	018003f4 	movhi	r6,15
 840cccc:	31909004 	addi	r6,r6,16960
 840ccd0:	000f883a 	mov	r7,zero
 840ccd4:	1009883a 	mov	r4,r2
 840ccd8:	180b883a 	mov	r5,r3
 840ccdc:	840f5b00 	call	840f5b0 <__umoddi3>
 840cce0:	1009883a 	mov	r4,r2
 840cce4:	180b883a 	mov	r5,r3
 840cce8:	2005883a 	mov	r2,r4
 840ccec:	2807883a 	mov	r3,r5
   */

  if (tick_rate)
  {
    ptimeval->tv_sec  = alt_resettime.tv_sec  + nticks/tick_rate;
    ptimeval->tv_usec = alt_resettime.tv_usec +
 840ccf0:	a085883a 	add	r2,r20,r2
 840ccf4:	1007883a 	mov	r3,r2
 840ccf8:	e0bff917 	ldw	r2,-28(fp)
 840ccfc:	10c00115 	stw	r3,4(r2)
     (alt_u32)(((alt_u64)nticks*(ALT_US/tick_rate))%ALT_US);
      
    while(ptimeval->tv_usec < 0) {
 840cd00:	00001406 	br	840cd54 <gettimeofday+0x14c>
      if (ptimeval->tv_sec <= 0)
 840cd04:	e0bff917 	ldw	r2,-28(fp)
 840cd08:	10800017 	ldw	r2,0(r2)
 840cd0c:	00800516 	blt	zero,r2,840cd24 <gettimeofday+0x11c>
      {
          ptimeval->tv_sec = 0;
 840cd10:	e0bff917 	ldw	r2,-28(fp)
 840cd14:	10000015 	stw	zero,0(r2)
          ptimeval->tv_usec = 0;
 840cd18:	e0bff917 	ldw	r2,-28(fp)
 840cd1c:	10000115 	stw	zero,4(r2)
          break;
 840cd20:	00000f06 	br	840cd60 <gettimeofday+0x158>
      }
      else
      {
          ptimeval->tv_sec--;
 840cd24:	e0bff917 	ldw	r2,-28(fp)
 840cd28:	10800017 	ldw	r2,0(r2)
 840cd2c:	10ffffc4 	addi	r3,r2,-1
 840cd30:	e0bff917 	ldw	r2,-28(fp)
 840cd34:	10c00015 	stw	r3,0(r2)
          ptimeval->tv_usec += ALT_US;
 840cd38:	e0bff917 	ldw	r2,-28(fp)
 840cd3c:	10c00117 	ldw	r3,4(r2)
 840cd40:	008003f4 	movhi	r2,15
 840cd44:	10909004 	addi	r2,r2,16960
 840cd48:	1887883a 	add	r3,r3,r2
 840cd4c:	e0bff917 	ldw	r2,-28(fp)
 840cd50:	10c00115 	stw	r3,4(r2)
  {
    ptimeval->tv_sec  = alt_resettime.tv_sec  + nticks/tick_rate;
    ptimeval->tv_usec = alt_resettime.tv_usec +
     (alt_u32)(((alt_u64)nticks*(ALT_US/tick_rate))%ALT_US);
      
    while(ptimeval->tv_usec < 0) {
 840cd54:	e0bff917 	ldw	r2,-28(fp)
 840cd58:	10800117 	ldw	r2,4(r2)
 840cd5c:	103fe916 	blt	r2,zero,840cd04 <__alt_data_end+0xfc40cd04>
          ptimeval->tv_sec--;
          ptimeval->tv_usec += ALT_US;
      }
    }
    
    while(ptimeval->tv_usec >= ALT_US) {
 840cd60:	00000c06 	br	840cd94 <gettimeofday+0x18c>
      ptimeval->tv_sec++;
 840cd64:	e0bff917 	ldw	r2,-28(fp)
 840cd68:	10800017 	ldw	r2,0(r2)
 840cd6c:	10c00044 	addi	r3,r2,1
 840cd70:	e0bff917 	ldw	r2,-28(fp)
 840cd74:	10c00015 	stw	r3,0(r2)
      ptimeval->tv_usec -= ALT_US;
 840cd78:	e0bff917 	ldw	r2,-28(fp)
 840cd7c:	10c00117 	ldw	r3,4(r2)
 840cd80:	00bffc74 	movhi	r2,65521
 840cd84:	10af7004 	addi	r2,r2,-16960
 840cd88:	1887883a 	add	r3,r3,r2
 840cd8c:	e0bff917 	ldw	r2,-28(fp)
 840cd90:	10c00115 	stw	r3,4(r2)
          ptimeval->tv_sec--;
          ptimeval->tv_usec += ALT_US;
      }
    }
    
    while(ptimeval->tv_usec >= ALT_US) {
 840cd94:	e0bff917 	ldw	r2,-28(fp)
 840cd98:	10c00117 	ldw	r3,4(r2)
 840cd9c:	008003f4 	movhi	r2,15
 840cda0:	10908fc4 	addi	r2,r2,16959
 840cda4:	10ffef16 	blt	r2,r3,840cd64 <__alt_data_end+0xfc40cd64>
      ptimeval->tv_sec++;
      ptimeval->tv_usec -= ALT_US;
    }
      
    if (ptimezone)
 840cda8:	e0bff617 	ldw	r2,-40(fp)
 840cdac:	10000626 	beq	r2,zero,840cdc8 <gettimeofday+0x1c0>
    { 
      ptimezone->tz_minuteswest = alt_timezone.tz_minuteswest;
 840cdb0:	d0ec8f17 	ldw	r3,-19908(gp)
 840cdb4:	e0bff617 	ldw	r2,-40(fp)
 840cdb8:	10c00015 	stw	r3,0(r2)
      ptimezone->tz_dsttime     = alt_timezone.tz_dsttime;
 840cdbc:	d0ec9017 	ldw	r3,-19904(gp)
 840cdc0:	e0bff617 	ldw	r2,-40(fp)
 840cdc4:	10c00115 	stw	r3,4(r2)
    }

    return 0;
 840cdc8:	0005883a 	mov	r2,zero
 840cdcc:	00000106 	br	840cdd4 <gettimeofday+0x1cc>
  }

  return -ENOTSUP;
 840cdd0:	00bfde84 	movi	r2,-134
}
 840cdd4:	e6fffb04 	addi	sp,fp,-20
 840cdd8:	dfc00617 	ldw	ra,24(sp)
 840cddc:	df000517 	ldw	fp,20(sp)
 840cde0:	dd000417 	ldw	r20,16(sp)
 840cde4:	dcc00317 	ldw	r19,12(sp)
 840cde8:	dc800217 	ldw	r18,8(sp)
 840cdec:	dc400117 	ldw	r17,4(sp)
 840cdf0:	dc000017 	ldw	r16,0(sp)
 840cdf4:	dec00704 	addi	sp,sp,28
 840cdf8:	f800283a 	ret

0840cdfc <alt_ic_isr_register>:
  * @param irq              IRQ number
  * @return                 0 if successful, else error (-1)
  */
int alt_ic_isr_register(alt_u32 ic_id, alt_u32 irq, alt_isr_func isr, 
  void *isr_context, void *flags)
{
 840cdfc:	defff904 	addi	sp,sp,-28
 840ce00:	dfc00615 	stw	ra,24(sp)
 840ce04:	df000515 	stw	fp,20(sp)
 840ce08:	df000504 	addi	fp,sp,20
 840ce0c:	e13ffc15 	stw	r4,-16(fp)
 840ce10:	e17ffd15 	stw	r5,-12(fp)
 840ce14:	e1bffe15 	stw	r6,-8(fp)
 840ce18:	e1ffff15 	stw	r7,-4(fp)
    return alt_iic_isr_register(ic_id, irq, isr, isr_context, flags);
 840ce1c:	e0800217 	ldw	r2,8(fp)
 840ce20:	d8800015 	stw	r2,0(sp)
 840ce24:	e1ffff17 	ldw	r7,-4(fp)
 840ce28:	e1bffe17 	ldw	r6,-8(fp)
 840ce2c:	e17ffd17 	ldw	r5,-12(fp)
 840ce30:	e13ffc17 	ldw	r4,-16(fp)
 840ce34:	840cfac0 	call	840cfac <alt_iic_isr_register>
}  
 840ce38:	e037883a 	mov	sp,fp
 840ce3c:	dfc00117 	ldw	ra,4(sp)
 840ce40:	df000017 	ldw	fp,0(sp)
 840ce44:	dec00204 	addi	sp,sp,8
 840ce48:	f800283a 	ret

0840ce4c <alt_ic_irq_enable>:
  * @param ic_id            Ignored.
  * @param irq              IRQ number
  * @return                 0 if successful, else error (-1)
  */
int alt_ic_irq_enable (alt_u32 ic_id, alt_u32 irq)
{
 840ce4c:	defff904 	addi	sp,sp,-28
 840ce50:	df000615 	stw	fp,24(sp)
 840ce54:	df000604 	addi	fp,sp,24
 840ce58:	e13ffe15 	stw	r4,-8(fp)
 840ce5c:	e17fff15 	stw	r5,-4(fp)
 840ce60:	e0bfff17 	ldw	r2,-4(fp)
 840ce64:	e0bffa15 	stw	r2,-24(fp)
static ALT_INLINE alt_irq_context ALT_ALWAYS_INLINE 
       alt_irq_disable_all (void)
{
  alt_irq_context context;

  NIOS2_READ_STATUS (context);
 840ce68:	0005303a 	rdctl	r2,status
 840ce6c:	e0bffb15 	stw	r2,-20(fp)

  NIOS2_WRITE_STATUS (context & ~NIOS2_STATUS_PIE_MSK);
 840ce70:	e0fffb17 	ldw	r3,-20(fp)
 840ce74:	00bfff84 	movi	r2,-2
 840ce78:	1884703a 	and	r2,r3,r2
 840ce7c:	1001703a 	wrctl	status,r2
  
  return context;
 840ce80:	e0bffb17 	ldw	r2,-20(fp)
static ALT_INLINE int ALT_ALWAYS_INLINE alt_irq_enable (alt_u32 id)
{
  alt_irq_context  status;
  extern volatile alt_u32 alt_irq_active;

  status = alt_irq_disable_all ();
 840ce84:	e0bffc15 	stw	r2,-16(fp)

  alt_irq_active |= (1 << id);
 840ce88:	00c00044 	movi	r3,1
 840ce8c:	e0bffa17 	ldw	r2,-24(fp)
 840ce90:	1884983a 	sll	r2,r3,r2
 840ce94:	1007883a 	mov	r3,r2
 840ce98:	d0ac9317 	ldw	r2,-19892(gp)
 840ce9c:	1884b03a 	or	r2,r3,r2
 840cea0:	d0ac9315 	stw	r2,-19892(gp)
  NIOS2_WRITE_IENABLE (alt_irq_active);
 840cea4:	d0ac9317 	ldw	r2,-19892(gp)
 840cea8:	100170fa 	wrctl	ienable,r2
 840ceac:	e0bffc17 	ldw	r2,-16(fp)
 840ceb0:	e0bffd15 	stw	r2,-12(fp)
  status &= ~NIOS2_STATUS_PIE_MSK;
  status |= (context & NIOS2_STATUS_PIE_MSK);
  
  NIOS2_WRITE_STATUS (status);
#else
  NIOS2_WRITE_STATUS (context);
 840ceb4:	e0bffd17 	ldw	r2,-12(fp)
 840ceb8:	1001703a 	wrctl	status,r2

  alt_irq_enable_all(status);

  return 0;
 840cebc:	0005883a 	mov	r2,zero
    return alt_irq_enable(irq);
 840cec0:	0001883a 	nop
}
 840cec4:	e037883a 	mov	sp,fp
 840cec8:	df000017 	ldw	fp,0(sp)
 840cecc:	dec00104 	addi	sp,sp,4
 840ced0:	f800283a 	ret

0840ced4 <alt_ic_irq_disable>:
  * @param ic_id            Ignored.
  * @param irq              IRQ number
  * @return                 0 if successful, else error (-1)
  */
int alt_ic_irq_disable(alt_u32 ic_id, alt_u32 irq)
{
 840ced4:	defff904 	addi	sp,sp,-28
 840ced8:	df000615 	stw	fp,24(sp)
 840cedc:	df000604 	addi	fp,sp,24
 840cee0:	e13ffe15 	stw	r4,-8(fp)
 840cee4:	e17fff15 	stw	r5,-4(fp)
 840cee8:	e0bfff17 	ldw	r2,-4(fp)
 840ceec:	e0bffa15 	stw	r2,-24(fp)
static ALT_INLINE alt_irq_context ALT_ALWAYS_INLINE 
       alt_irq_disable_all (void)
{
  alt_irq_context context;

  NIOS2_READ_STATUS (context);
 840cef0:	0005303a 	rdctl	r2,status
 840cef4:	e0bffb15 	stw	r2,-20(fp)

  NIOS2_WRITE_STATUS (context & ~NIOS2_STATUS_PIE_MSK);
 840cef8:	e0fffb17 	ldw	r3,-20(fp)
 840cefc:	00bfff84 	movi	r2,-2
 840cf00:	1884703a 	and	r2,r3,r2
 840cf04:	1001703a 	wrctl	status,r2
  
  return context;
 840cf08:	e0bffb17 	ldw	r2,-20(fp)
static ALT_INLINE int ALT_ALWAYS_INLINE alt_irq_disable (alt_u32 id)
{
  alt_irq_context  status;
  extern volatile alt_u32 alt_irq_active;

  status = alt_irq_disable_all ();
 840cf0c:	e0bffc15 	stw	r2,-16(fp)

  alt_irq_active &= ~(1 << id);
 840cf10:	00c00044 	movi	r3,1
 840cf14:	e0bffa17 	ldw	r2,-24(fp)
 840cf18:	1884983a 	sll	r2,r3,r2
 840cf1c:	0084303a 	nor	r2,zero,r2
 840cf20:	1007883a 	mov	r3,r2
 840cf24:	d0ac9317 	ldw	r2,-19892(gp)
 840cf28:	1884703a 	and	r2,r3,r2
 840cf2c:	d0ac9315 	stw	r2,-19892(gp)
  NIOS2_WRITE_IENABLE (alt_irq_active);
 840cf30:	d0ac9317 	ldw	r2,-19892(gp)
 840cf34:	100170fa 	wrctl	ienable,r2
 840cf38:	e0bffc17 	ldw	r2,-16(fp)
 840cf3c:	e0bffd15 	stw	r2,-12(fp)
  status &= ~NIOS2_STATUS_PIE_MSK;
  status |= (context & NIOS2_STATUS_PIE_MSK);
  
  NIOS2_WRITE_STATUS (status);
#else
  NIOS2_WRITE_STATUS (context);
 840cf40:	e0bffd17 	ldw	r2,-12(fp)
 840cf44:	1001703a 	wrctl	status,r2

  alt_irq_enable_all(status);

  return 0;
 840cf48:	0005883a 	mov	r2,zero
    return alt_irq_disable(irq);
 840cf4c:	0001883a 	nop
}
 840cf50:	e037883a 	mov	sp,fp
 840cf54:	df000017 	ldw	fp,0(sp)
 840cf58:	dec00104 	addi	sp,sp,4
 840cf5c:	f800283a 	ret

0840cf60 <alt_ic_irq_enabled>:
  * @param irq              IRQ number
  * @return                 Zero if corresponding interrupt is disabled and
  *                         non-zero otherwise.
  */
alt_u32 alt_ic_irq_enabled(alt_u32 ic_id, alt_u32 irq)
{
 840cf60:	defffc04 	addi	sp,sp,-16
 840cf64:	df000315 	stw	fp,12(sp)
 840cf68:	df000304 	addi	fp,sp,12
 840cf6c:	e13ffe15 	stw	r4,-8(fp)
 840cf70:	e17fff15 	stw	r5,-4(fp)
    alt_u32 irq_enabled;

    NIOS2_READ_IENABLE(irq_enabled);
 840cf74:	000530fa 	rdctl	r2,ienable
 840cf78:	e0bffd15 	stw	r2,-12(fp)

    return (irq_enabled & (1 << irq)) ? 1: 0;
 840cf7c:	00c00044 	movi	r3,1
 840cf80:	e0bfff17 	ldw	r2,-4(fp)
 840cf84:	1884983a 	sll	r2,r3,r2
 840cf88:	1007883a 	mov	r3,r2
 840cf8c:	e0bffd17 	ldw	r2,-12(fp)
 840cf90:	1884703a 	and	r2,r3,r2
 840cf94:	1004c03a 	cmpne	r2,r2,zero
 840cf98:	10803fcc 	andi	r2,r2,255
}
 840cf9c:	e037883a 	mov	sp,fp
 840cfa0:	df000017 	ldw	fp,0(sp)
 840cfa4:	dec00104 	addi	sp,sp,4
 840cfa8:	f800283a 	ret

0840cfac <alt_iic_isr_register>:
  * @param flags            
  * @return                 0 if successful, else error (-1)
  */
int alt_iic_isr_register(alt_u32 ic_id, alt_u32 irq, alt_isr_func isr, 
  void *isr_context, void *flags)
{
 840cfac:	defff504 	addi	sp,sp,-44
 840cfb0:	dfc00a15 	stw	ra,40(sp)
 840cfb4:	df000915 	stw	fp,36(sp)
 840cfb8:	df000904 	addi	fp,sp,36
 840cfbc:	e13ffc15 	stw	r4,-16(fp)
 840cfc0:	e17ffd15 	stw	r5,-12(fp)
 840cfc4:	e1bffe15 	stw	r6,-8(fp)
 840cfc8:	e1ffff15 	stw	r7,-4(fp)
  int rc = -EINVAL;  
 840cfcc:	00bffa84 	movi	r2,-22
 840cfd0:	e0bff715 	stw	r2,-36(fp)
  int id = irq;             /* IRQ interpreted as the interrupt ID. */
 840cfd4:	e0bffd17 	ldw	r2,-12(fp)
 840cfd8:	e0bff815 	stw	r2,-32(fp)
  alt_irq_context status;

  if (id < ALT_NIRQ)
 840cfdc:	e0bff817 	ldw	r2,-32(fp)
 840cfe0:	10800808 	cmpgei	r2,r2,32
 840cfe4:	1000271e 	bne	r2,zero,840d084 <alt_iic_isr_register+0xd8>
static ALT_INLINE alt_irq_context ALT_ALWAYS_INLINE 
       alt_irq_disable_all (void)
{
  alt_irq_context context;

  NIOS2_READ_STATUS (context);
 840cfe8:	0005303a 	rdctl	r2,status
 840cfec:	e0bffb15 	stw	r2,-20(fp)

  NIOS2_WRITE_STATUS (context & ~NIOS2_STATUS_PIE_MSK);
 840cff0:	e0fffb17 	ldw	r3,-20(fp)
 840cff4:	00bfff84 	movi	r2,-2
 840cff8:	1884703a 	and	r2,r3,r2
 840cffc:	1001703a 	wrctl	status,r2
  
  return context;
 840d000:	e0bffb17 	ldw	r2,-20(fp)
     * interrupts are disabled while the handler tables are updated to ensure
     * that an interrupt doesn't occur while the tables are in an inconsistant
     * state.
     */

    status = alt_irq_disable_all();
 840d004:	e0bffa15 	stw	r2,-24(fp)

    alt_irq[id].handler = isr;
 840d008:	00821134 	movhi	r2,2116
 840d00c:	10bcb904 	addi	r2,r2,-3356
 840d010:	e0fff817 	ldw	r3,-32(fp)
 840d014:	180690fa 	slli	r3,r3,3
 840d018:	10c5883a 	add	r2,r2,r3
 840d01c:	e0fffe17 	ldw	r3,-8(fp)
 840d020:	10c00015 	stw	r3,0(r2)
    alt_irq[id].context = isr_context;
 840d024:	00821134 	movhi	r2,2116
 840d028:	10bcb904 	addi	r2,r2,-3356
 840d02c:	e0fff817 	ldw	r3,-32(fp)
 840d030:	180690fa 	slli	r3,r3,3
 840d034:	10c5883a 	add	r2,r2,r3
 840d038:	10800104 	addi	r2,r2,4
 840d03c:	e0ffff17 	ldw	r3,-4(fp)
 840d040:	10c00015 	stw	r3,0(r2)

    rc = (isr) ? alt_ic_irq_enable(ic_id, id) : alt_ic_irq_disable(ic_id, id);
 840d044:	e0bffe17 	ldw	r2,-8(fp)
 840d048:	10000526 	beq	r2,zero,840d060 <alt_iic_isr_register+0xb4>
 840d04c:	e0bff817 	ldw	r2,-32(fp)
 840d050:	100b883a 	mov	r5,r2
 840d054:	e13ffc17 	ldw	r4,-16(fp)
 840d058:	840ce4c0 	call	840ce4c <alt_ic_irq_enable>
 840d05c:	00000406 	br	840d070 <alt_iic_isr_register+0xc4>
 840d060:	e0bff817 	ldw	r2,-32(fp)
 840d064:	100b883a 	mov	r5,r2
 840d068:	e13ffc17 	ldw	r4,-16(fp)
 840d06c:	840ced40 	call	840ced4 <alt_ic_irq_disable>
 840d070:	e0bff715 	stw	r2,-36(fp)
 840d074:	e0bffa17 	ldw	r2,-24(fp)
 840d078:	e0bff915 	stw	r2,-28(fp)
  status &= ~NIOS2_STATUS_PIE_MSK;
  status |= (context & NIOS2_STATUS_PIE_MSK);
  
  NIOS2_WRITE_STATUS (status);
#else
  NIOS2_WRITE_STATUS (context);
 840d07c:	e0bff917 	ldw	r2,-28(fp)
 840d080:	1001703a 	wrctl	status,r2

    alt_irq_enable_all(status);
  }

  return rc; 
 840d084:	e0bff717 	ldw	r2,-36(fp)
}
 840d088:	e037883a 	mov	sp,fp
 840d08c:	dfc00117 	ldw	ra,4(sp)
 840d090:	df000017 	ldw	fp,0(sp)
 840d094:	dec00204 	addi	sp,sp,8
 840d098:	f800283a 	ret

0840d09c <alt_get_errno>:
#undef errno

extern int errno;

static ALT_INLINE int* alt_get_errno(void)
{
 840d09c:	defffe04 	addi	sp,sp,-8
 840d0a0:	dfc00115 	stw	ra,4(sp)
 840d0a4:	df000015 	stw	fp,0(sp)
 840d0a8:	d839883a 	mov	fp,sp
  return ((alt_errno) ? alt_errno() : &errno);
 840d0ac:	d0a00a17 	ldw	r2,-32728(gp)
 840d0b0:	10000326 	beq	r2,zero,840d0c0 <alt_get_errno+0x24>
 840d0b4:	d0a00a17 	ldw	r2,-32728(gp)
 840d0b8:	103ee83a 	callr	r2
 840d0bc:	00000106 	br	840d0c4 <alt_get_errno+0x28>
 840d0c0:	d0ac8e04 	addi	r2,gp,-19912
}
 840d0c4:	e037883a 	mov	sp,fp
 840d0c8:	dfc00117 	ldw	ra,4(sp)
 840d0cc:	df000017 	ldw	fp,0(sp)
 840d0d0:	dec00204 	addi	sp,sp,8
 840d0d4:	f800283a 	ret

0840d0d8 <isatty>:
 *
 * ALT_ISATTY is mapped onto the isatty() system call in alt_syscall.h
 */
 
int ALT_ISATTY (int file)
{
 840d0d8:	deffed04 	addi	sp,sp,-76
 840d0dc:	dfc01215 	stw	ra,72(sp)
 840d0e0:	df001115 	stw	fp,68(sp)
 840d0e4:	df001104 	addi	fp,sp,68
 840d0e8:	e13fff15 	stw	r4,-4(fp)
   * A common error case is that when the file descriptor was created, the call
   * to open() failed resulting in a negative file descriptor. This is trapped
   * below so that we don't try and process an invalid file descriptor.
   */

  fd = (file < 0) ? NULL : &alt_fd_list[file];
 840d0ec:	e0bfff17 	ldw	r2,-4(fp)
 840d0f0:	10000616 	blt	r2,zero,840d10c <isatty+0x34>
 840d0f4:	e0bfff17 	ldw	r2,-4(fp)
 840d0f8:	10c00324 	muli	r3,r2,12
 840d0fc:	00821134 	movhi	r2,2116
 840d100:	10ab9d04 	addi	r2,r2,-20876
 840d104:	1885883a 	add	r2,r3,r2
 840d108:	00000106 	br	840d110 <isatty+0x38>
 840d10c:	0005883a 	mov	r2,zero
 840d110:	e0bfef15 	stw	r2,-68(fp)
  
  if (fd)
 840d114:	e0bfef17 	ldw	r2,-68(fp)
 840d118:	10000e26 	beq	r2,zero,840d154 <isatty+0x7c>
    /*
     * If a device driver does not provide an fstat() function, then it is 
     * treated as a terminal device by default.
     */

    if (!fd->dev->fstat)
 840d11c:	e0bfef17 	ldw	r2,-68(fp)
 840d120:	10800017 	ldw	r2,0(r2)
 840d124:	10800817 	ldw	r2,32(r2)
 840d128:	1000021e 	bne	r2,zero,840d134 <isatty+0x5c>
    {
      return 1;
 840d12c:	00800044 	movi	r2,1
 840d130:	00000d06 	br	840d168 <isatty+0x90>
     * this is called so that the device can identify itself.
     */ 

    else
    {
      fstat (file, &stat);
 840d134:	e0bff004 	addi	r2,fp,-64
 840d138:	100b883a 	mov	r5,r2
 840d13c:	e13fff17 	ldw	r4,-4(fp)
 840d140:	840cb580 	call	840cb58 <fstat>
      return (stat.st_mode == _IFCHR) ? 1 : 0;
 840d144:	e0bff117 	ldw	r2,-60(fp)
 840d148:	10880020 	cmpeqi	r2,r2,8192
 840d14c:	10803fcc 	andi	r2,r2,255
 840d150:	00000506 	br	840d168 <isatty+0x90>
    }
  }
  else
  {
    ALT_ERRNO = EBADFD;
 840d154:	840d09c0 	call	840d09c <alt_get_errno>
 840d158:	1007883a 	mov	r3,r2
 840d15c:	00801444 	movi	r2,81
 840d160:	18800015 	stw	r2,0(r3)
    return 0;
 840d164:	0005883a 	mov	r2,zero
  }
}
 840d168:	e037883a 	mov	sp,fp
 840d16c:	dfc00117 	ldw	ra,4(sp)
 840d170:	df000017 	ldw	fp,0(sp)
 840d174:	dec00204 	addi	sp,sp,8
 840d178:	f800283a 	ret

0840d17c <alt_load_section>:
 */

static void ALT_INLINE alt_load_section (alt_u32* from, 
                                         alt_u32* to, 
                                         alt_u32* end)
{
 840d17c:	defffc04 	addi	sp,sp,-16
 840d180:	df000315 	stw	fp,12(sp)
 840d184:	df000304 	addi	fp,sp,12
 840d188:	e13ffd15 	stw	r4,-12(fp)
 840d18c:	e17ffe15 	stw	r5,-8(fp)
 840d190:	e1bfff15 	stw	r6,-4(fp)
  if (to != from)
 840d194:	e0fffe17 	ldw	r3,-8(fp)
 840d198:	e0bffd17 	ldw	r2,-12(fp)
 840d19c:	18800c26 	beq	r3,r2,840d1d0 <alt_load_section+0x54>
  {
    while( to != end )
 840d1a0:	00000806 	br	840d1c4 <alt_load_section+0x48>
    {
      *to++ = *from++;
 840d1a4:	e0bffe17 	ldw	r2,-8(fp)
 840d1a8:	10c00104 	addi	r3,r2,4
 840d1ac:	e0fffe15 	stw	r3,-8(fp)
 840d1b0:	e0fffd17 	ldw	r3,-12(fp)
 840d1b4:	19000104 	addi	r4,r3,4
 840d1b8:	e13ffd15 	stw	r4,-12(fp)
 840d1bc:	18c00017 	ldw	r3,0(r3)
 840d1c0:	10c00015 	stw	r3,0(r2)
                                         alt_u32* to, 
                                         alt_u32* end)
{
  if (to != from)
  {
    while( to != end )
 840d1c4:	e0fffe17 	ldw	r3,-8(fp)
 840d1c8:	e0bfff17 	ldw	r2,-4(fp)
 840d1cc:	18bff51e 	bne	r3,r2,840d1a4 <__alt_data_end+0xfc40d1a4>
    {
      *to++ = *from++;
    }
  }
}
 840d1d0:	0001883a 	nop
 840d1d4:	e037883a 	mov	sp,fp
 840d1d8:	df000017 	ldw	fp,0(sp)
 840d1dc:	dec00104 	addi	sp,sp,4
 840d1e0:	f800283a 	ret

0840d1e4 <alt_load>:
 * there is no bootloader, so this application is responsible for loading to
 * RAM any sections that are required.
 */  

void alt_load (void)
{
 840d1e4:	defffe04 	addi	sp,sp,-8
 840d1e8:	dfc00115 	stw	ra,4(sp)
 840d1ec:	df000015 	stw	fp,0(sp)
 840d1f0:	d839883a 	mov	fp,sp
  /* 
   * Copy the .rwdata section. 
   */

  alt_load_section (&__flash_rwdata_start, 
 840d1f4:	01821134 	movhi	r6,2116
 840d1f8:	31b02404 	addi	r6,r6,-16240
 840d1fc:	01421134 	movhi	r5,2116
 840d200:	2963a804 	addi	r5,r5,-29024
 840d204:	01021134 	movhi	r4,2116
 840d208:	21302404 	addi	r4,r4,-16240
 840d20c:	840d17c0 	call	840d17c <alt_load_section>

  /*
   * Copy the exception handler.
   */

  alt_load_section (&__flash_exceptions_start, 
 840d210:	01821034 	movhi	r6,2112
 840d214:	31808904 	addi	r6,r6,548
 840d218:	01421034 	movhi	r5,2112
 840d21c:	29400004 	addi	r5,r5,0
 840d220:	01021034 	movhi	r4,2112
 840d224:	21000004 	addi	r4,r4,0
 840d228:	840d17c0 	call	840d17c <alt_load_section>

  /*
   * Copy the .rodata section.
   */

  alt_load_section (&__flash_rodata_start, 
 840d22c:	01821134 	movhi	r6,2116
 840d230:	31a3a804 	addi	r6,r6,-29024
 840d234:	01421074 	movhi	r5,2113
 840d238:	297ec704 	addi	r5,r5,-1252
 840d23c:	01021074 	movhi	r4,2113
 840d240:	213ec704 	addi	r4,r4,-1252
 840d244:	840d17c0 	call	840d17c <alt_load_section>
  
  /*
   * Now ensure that the caches are in synch.
   */
  
  alt_dcache_flush_all();
 840d248:	840e9140 	call	840e914 <alt_dcache_flush_all>
  alt_icache_flush_all();
 840d24c:	840eafc0 	call	840eafc <alt_icache_flush_all>
}
 840d250:	0001883a 	nop
 840d254:	e037883a 	mov	sp,fp
 840d258:	dfc00117 	ldw	ra,4(sp)
 840d25c:	df000017 	ldw	fp,0(sp)
 840d260:	dec00204 	addi	sp,sp,8
 840d264:	f800283a 	ret

0840d268 <alt_get_errno>:
#undef errno

extern int errno;

static ALT_INLINE int* alt_get_errno(void)
{
 840d268:	defffe04 	addi	sp,sp,-8
 840d26c:	dfc00115 	stw	ra,4(sp)
 840d270:	df000015 	stw	fp,0(sp)
 840d274:	d839883a 	mov	fp,sp
  return ((alt_errno) ? alt_errno() : &errno);
 840d278:	d0a00a17 	ldw	r2,-32728(gp)
 840d27c:	10000326 	beq	r2,zero,840d28c <alt_get_errno+0x24>
 840d280:	d0a00a17 	ldw	r2,-32728(gp)
 840d284:	103ee83a 	callr	r2
 840d288:	00000106 	br	840d290 <alt_get_errno+0x28>
 840d28c:	d0ac8e04 	addi	r2,gp,-19912
}
 840d290:	e037883a 	mov	sp,fp
 840d294:	dfc00117 	ldw	ra,4(sp)
 840d298:	df000017 	ldw	fp,0(sp)
 840d29c:	dec00204 	addi	sp,sp,8
 840d2a0:	f800283a 	ret

0840d2a4 <lseek>:
 * ALT_LSEEK is mapped onto the lseek() system call in alt_syscall.h
 *
 */

off_t ALT_LSEEK (int file, off_t ptr, int dir)
{
 840d2a4:	defff904 	addi	sp,sp,-28
 840d2a8:	dfc00615 	stw	ra,24(sp)
 840d2ac:	df000515 	stw	fp,20(sp)
 840d2b0:	df000504 	addi	fp,sp,20
 840d2b4:	e13ffd15 	stw	r4,-12(fp)
 840d2b8:	e17ffe15 	stw	r5,-8(fp)
 840d2bc:	e1bfff15 	stw	r6,-4(fp)
  alt_fd* fd;
  off_t   rc = 0; 
 840d2c0:	e03ffb15 	stw	zero,-20(fp)
   * A common error case is that when the file descriptor was created, the call
   * to open() failed resulting in a negative file descriptor. This is trapped
   * below so that we don't try and process an invalid file descriptor.
   */

  fd = (file < 0) ? NULL : &alt_fd_list[file];
 840d2c4:	e0bffd17 	ldw	r2,-12(fp)
 840d2c8:	10000616 	blt	r2,zero,840d2e4 <lseek+0x40>
 840d2cc:	e0bffd17 	ldw	r2,-12(fp)
 840d2d0:	10c00324 	muli	r3,r2,12
 840d2d4:	00821134 	movhi	r2,2116
 840d2d8:	10ab9d04 	addi	r2,r2,-20876
 840d2dc:	1885883a 	add	r2,r3,r2
 840d2e0:	00000106 	br	840d2e8 <lseek+0x44>
 840d2e4:	0005883a 	mov	r2,zero
 840d2e8:	e0bffc15 	stw	r2,-16(fp)
  
  if (fd) 
 840d2ec:	e0bffc17 	ldw	r2,-16(fp)
 840d2f0:	10001026 	beq	r2,zero,840d334 <lseek+0x90>
    /*
     * If the device driver provides an implementation of the lseek() function,
     * then call that to process the request.
     */
 
    if (fd->dev->lseek)
 840d2f4:	e0bffc17 	ldw	r2,-16(fp)
 840d2f8:	10800017 	ldw	r2,0(r2)
 840d2fc:	10800717 	ldw	r2,28(r2)
 840d300:	10000926 	beq	r2,zero,840d328 <lseek+0x84>
    {
      rc = fd->dev->lseek(fd, ptr, dir);
 840d304:	e0bffc17 	ldw	r2,-16(fp)
 840d308:	10800017 	ldw	r2,0(r2)
 840d30c:	10800717 	ldw	r2,28(r2)
 840d310:	e1bfff17 	ldw	r6,-4(fp)
 840d314:	e17ffe17 	ldw	r5,-8(fp)
 840d318:	e13ffc17 	ldw	r4,-16(fp)
 840d31c:	103ee83a 	callr	r2
 840d320:	e0bffb15 	stw	r2,-20(fp)
 840d324:	00000506 	br	840d33c <lseek+0x98>
     * Otherwise return an error.
     */

    else
    {
      rc = -ENOTSUP;
 840d328:	00bfde84 	movi	r2,-134
 840d32c:	e0bffb15 	stw	r2,-20(fp)
 840d330:	00000206 	br	840d33c <lseek+0x98>
    }
  }
  else  
  {
    rc = -EBADFD;
 840d334:	00bfebc4 	movi	r2,-81
 840d338:	e0bffb15 	stw	r2,-20(fp)
  }

  if (rc < 0)
 840d33c:	e0bffb17 	ldw	r2,-20(fp)
 840d340:	1000070e 	bge	r2,zero,840d360 <lseek+0xbc>
  {
    ALT_ERRNO = -rc;
 840d344:	840d2680 	call	840d268 <alt_get_errno>
 840d348:	1007883a 	mov	r3,r2
 840d34c:	e0bffb17 	ldw	r2,-20(fp)
 840d350:	0085c83a 	sub	r2,zero,r2
 840d354:	18800015 	stw	r2,0(r3)
    rc = -1;
 840d358:	00bfffc4 	movi	r2,-1
 840d35c:	e0bffb15 	stw	r2,-20(fp)
  }

  return rc;
 840d360:	e0bffb17 	ldw	r2,-20(fp)
}
 840d364:	e037883a 	mov	sp,fp
 840d368:	dfc00117 	ldw	ra,4(sp)
 840d36c:	df000017 	ldw	fp,0(sp)
 840d370:	dec00204 	addi	sp,sp,8
 840d374:	f800283a 	ret

0840d378 <alt_main>:
 * devices/filesystems/components in the system; and call the entry point for
 * the users application, i.e. main().
 */

void alt_main (void)
{
 840d378:	defffd04 	addi	sp,sp,-12
 840d37c:	dfc00215 	stw	ra,8(sp)
 840d380:	df000115 	stw	fp,4(sp)
 840d384:	df000104 	addi	fp,sp,4
#endif

  /* ALT LOG - please see HAL/sys/alt_log_printf.h for details */
  ALT_LOG_PRINT_BOOT("[alt_main.c] Entering alt_main, calling alt_irq_init.\r\n");
  /* Initialize the interrupt controller. */
  alt_irq_init (NULL);
 840d388:	0009883a 	mov	r4,zero
 840d38c:	840d9c40 	call	840d9c4 <alt_irq_init>

  /* Initialize the operating system */
  ALT_LOG_PRINT_BOOT("[alt_main.c] Done alt_irq_init, calling alt_os_init.\r\n");
  ALT_OS_INIT();
 840d390:	0001883a 	nop
  ALT_LOG_PRINT_BOOT("[alt_main.c] Done OS Init, calling alt_sem_create.\r\n");
  ALT_SEM_CREATE (&alt_fd_list_lock, 1);

  /* Initialize the device drivers/software components. */
  ALT_LOG_PRINT_BOOT("[alt_main.c] Calling alt_sys_init.\r\n");
  alt_sys_init();
 840d394:	840d9fc0 	call	840d9fc <alt_sys_init>
   * devices be present (not equal to /dev/null) and if direct drivers
   * aren't being used.
   */

    ALT_LOG_PRINT_BOOT("[alt_main.c] Redirecting IO.\r\n");
    alt_io_redirect(ALT_STDOUT, ALT_STDIN, ALT_STDERR);
 840d398:	01821134 	movhi	r6,2116
 840d39c:	31a39e04 	addi	r6,r6,-29064
 840d3a0:	01421134 	movhi	r5,2116
 840d3a4:	29639e04 	addi	r5,r5,-29064
 840d3a8:	01021134 	movhi	r4,2116
 840d3ac:	21239e04 	addi	r4,r4,-29064
 840d3b0:	840ec900 	call	840ec90 <alt_io_redirect>
  /* 
   * Call the C++ constructors 
   */

  ALT_LOG_PRINT_BOOT("[alt_main.c] Calling C++ constructors.\r\n");
  _do_ctors ();
 840d3b4:	840ea3c0 	call	840ea3c <_do_ctors>
   * redefined as _exit()). This is in the interest of reducing code footprint,
   * in that the atexit() overhead is removed when it's not needed.
   */

  ALT_LOG_PRINT_BOOT("[alt_main.c] Calling atexit.\r\n");
  atexit (_do_dtors);
 840d3b8:	01021074 	movhi	r4,2113
 840d3bc:	213aa704 	addi	r4,r4,-5476
 840d3c0:	840f2500 	call	840f250 <atexit>
  ALT_LOG_PRINT_BOOT("[alt_main.c] Calling main.\r\n");

#ifdef ALT_NO_EXIT
  main (alt_argc, alt_argv, alt_envp);
#else
  result = main (alt_argc, alt_argv, alt_envp);
 840d3c4:	d0ac9417 	ldw	r2,-19888(gp)
 840d3c8:	d0ec9517 	ldw	r3,-19884(gp)
 840d3cc:	d12c9617 	ldw	r4,-19880(gp)
 840d3d0:	200d883a 	mov	r6,r4
 840d3d4:	180b883a 	mov	r5,r3
 840d3d8:	1009883a 	mov	r4,r2
 840d3dc:	84002700 	call	8400270 <main>
 840d3e0:	e0bfff15 	stw	r2,-4(fp)
  close(STDOUT_FILENO);
 840d3e4:	01000044 	movi	r4,1
 840d3e8:	840ca200 	call	840ca20 <close>
  exit (result);
 840d3ec:	e13fff17 	ldw	r4,-4(fp)
 840d3f0:	840f2640 	call	840f264 <exit>

0840d3f4 <__malloc_lock>:
 * configuration is single threaded, so there is nothing to do here. Note that 
 * this requires that malloc is never called by an interrupt service routine.
 */

void __malloc_lock ( struct _reent *_r )
{
 840d3f4:	defffe04 	addi	sp,sp,-8
 840d3f8:	df000115 	stw	fp,4(sp)
 840d3fc:	df000104 	addi	fp,sp,4
 840d400:	e13fff15 	stw	r4,-4(fp)
}
 840d404:	0001883a 	nop
 840d408:	e037883a 	mov	sp,fp
 840d40c:	df000017 	ldw	fp,0(sp)
 840d410:	dec00104 	addi	sp,sp,4
 840d414:	f800283a 	ret

0840d418 <__malloc_unlock>:
/*
 *
 */

void __malloc_unlock ( struct _reent *_r )
{
 840d418:	defffe04 	addi	sp,sp,-8
 840d41c:	df000115 	stw	fp,4(sp)
 840d420:	df000104 	addi	fp,sp,4
 840d424:	e13fff15 	stw	r4,-4(fp)
}
 840d428:	0001883a 	nop
 840d42c:	e037883a 	mov	sp,fp
 840d430:	df000017 	ldw	fp,0(sp)
 840d434:	dec00104 	addi	sp,sp,4
 840d438:	f800283a 	ret

0840d43c <alt_get_errno>:
#undef errno

extern int errno;

static ALT_INLINE int* alt_get_errno(void)
{
 840d43c:	defffe04 	addi	sp,sp,-8
 840d440:	dfc00115 	stw	ra,4(sp)
 840d444:	df000015 	stw	fp,0(sp)
 840d448:	d839883a 	mov	fp,sp
  return ((alt_errno) ? alt_errno() : &errno);
 840d44c:	d0a00a17 	ldw	r2,-32728(gp)
 840d450:	10000326 	beq	r2,zero,840d460 <alt_get_errno+0x24>
 840d454:	d0a00a17 	ldw	r2,-32728(gp)
 840d458:	103ee83a 	callr	r2
 840d45c:	00000106 	br	840d464 <alt_get_errno+0x28>
 840d460:	d0ac8e04 	addi	r2,gp,-19912
}
 840d464:	e037883a 	mov	sp,fp
 840d468:	dfc00117 	ldw	ra,4(sp)
 840d46c:	df000017 	ldw	fp,0(sp)
 840d470:	dec00204 	addi	sp,sp,8
 840d474:	f800283a 	ret

0840d478 <read>:
}

#else /* !ALT_USE_DIRECT_DRIVERS */

int ALT_READ (int file, void *ptr, size_t len)
{
 840d478:	defff904 	addi	sp,sp,-28
 840d47c:	dfc00615 	stw	ra,24(sp)
 840d480:	df000515 	stw	fp,20(sp)
 840d484:	df000504 	addi	fp,sp,20
 840d488:	e13ffd15 	stw	r4,-12(fp)
 840d48c:	e17ffe15 	stw	r5,-8(fp)
 840d490:	e1bfff15 	stw	r6,-4(fp)
   * A common error case is that when the file descriptor was created, the call
   * to open() failed resulting in a negative file descriptor. This is trapped
   * below so that we don't try and process an invalid file descriptor.
   */

  fd = (file < 0) ? NULL : &alt_fd_list[file];
 840d494:	e0bffd17 	ldw	r2,-12(fp)
 840d498:	10000616 	blt	r2,zero,840d4b4 <read+0x3c>
 840d49c:	e0bffd17 	ldw	r2,-12(fp)
 840d4a0:	10c00324 	muli	r3,r2,12
 840d4a4:	00821134 	movhi	r2,2116
 840d4a8:	10ab9d04 	addi	r2,r2,-20876
 840d4ac:	1885883a 	add	r2,r3,r2
 840d4b0:	00000106 	br	840d4b8 <read+0x40>
 840d4b4:	0005883a 	mov	r2,zero
 840d4b8:	e0bffb15 	stw	r2,-20(fp)
  
  if (fd)
 840d4bc:	e0bffb17 	ldw	r2,-20(fp)
 840d4c0:	10002226 	beq	r2,zero,840d54c <read+0xd4>
     * If the file has not been opened with read access, or if the driver does
     * not provide an implementation of read(), generate an error. Otherwise
     * call the drivers read() function to process the request.
     */

    if (((fd->fd_flags & O_ACCMODE) != O_WRONLY) && 
 840d4c4:	e0bffb17 	ldw	r2,-20(fp)
 840d4c8:	10800217 	ldw	r2,8(r2)
 840d4cc:	108000cc 	andi	r2,r2,3
 840d4d0:	10800060 	cmpeqi	r2,r2,1
 840d4d4:	1000181e 	bne	r2,zero,840d538 <read+0xc0>
        (fd->dev->read))
 840d4d8:	e0bffb17 	ldw	r2,-20(fp)
 840d4dc:	10800017 	ldw	r2,0(r2)
 840d4e0:	10800517 	ldw	r2,20(r2)
     * If the file has not been opened with read access, or if the driver does
     * not provide an implementation of read(), generate an error. Otherwise
     * call the drivers read() function to process the request.
     */

    if (((fd->fd_flags & O_ACCMODE) != O_WRONLY) && 
 840d4e4:	10001426 	beq	r2,zero,840d538 <read+0xc0>
        (fd->dev->read))
      {
        if ((rval = fd->dev->read(fd, ptr, len)) < 0)
 840d4e8:	e0bffb17 	ldw	r2,-20(fp)
 840d4ec:	10800017 	ldw	r2,0(r2)
 840d4f0:	10800517 	ldw	r2,20(r2)
 840d4f4:	e0ffff17 	ldw	r3,-4(fp)
 840d4f8:	180d883a 	mov	r6,r3
 840d4fc:	e17ffe17 	ldw	r5,-8(fp)
 840d500:	e13ffb17 	ldw	r4,-20(fp)
 840d504:	103ee83a 	callr	r2
 840d508:	e0bffc15 	stw	r2,-16(fp)
 840d50c:	e0bffc17 	ldw	r2,-16(fp)
 840d510:	1000070e 	bge	r2,zero,840d530 <read+0xb8>
        {
          ALT_ERRNO = -rval;
 840d514:	840d43c0 	call	840d43c <alt_get_errno>
 840d518:	1007883a 	mov	r3,r2
 840d51c:	e0bffc17 	ldw	r2,-16(fp)
 840d520:	0085c83a 	sub	r2,zero,r2
 840d524:	18800015 	stw	r2,0(r3)
          return -1;
 840d528:	00bfffc4 	movi	r2,-1
 840d52c:	00000c06 	br	840d560 <read+0xe8>
        }
        return rval;
 840d530:	e0bffc17 	ldw	r2,-16(fp)
 840d534:	00000a06 	br	840d560 <read+0xe8>
      }
      else
      {
        ALT_ERRNO = EACCES;
 840d538:	840d43c0 	call	840d43c <alt_get_errno>
 840d53c:	1007883a 	mov	r3,r2
 840d540:	00800344 	movi	r2,13
 840d544:	18800015 	stw	r2,0(r3)
 840d548:	00000406 	br	840d55c <read+0xe4>
      }
    }
  else
  {
    ALT_ERRNO = EBADFD;
 840d54c:	840d43c0 	call	840d43c <alt_get_errno>
 840d550:	1007883a 	mov	r3,r2
 840d554:	00801444 	movi	r2,81
 840d558:	18800015 	stw	r2,0(r3)
  }
  return -1;
 840d55c:	00bfffc4 	movi	r2,-1
}
 840d560:	e037883a 	mov	sp,fp
 840d564:	dfc00117 	ldw	ra,4(sp)
 840d568:	df000017 	ldw	fp,0(sp)
 840d56c:	dec00204 	addi	sp,sp,8
 840d570:	f800283a 	ret

0840d574 <alt_release_fd>:
 * File descriptors correcponding to standard in, standard out and standard 
 * error cannont be released backed to the pool. They are always reserved.
 */

void alt_release_fd (int fd)
{
 840d574:	defffe04 	addi	sp,sp,-8
 840d578:	df000115 	stw	fp,4(sp)
 840d57c:	df000104 	addi	fp,sp,4
 840d580:	e13fff15 	stw	r4,-4(fp)
  if (fd > 2)
 840d584:	e0bfff17 	ldw	r2,-4(fp)
 840d588:	108000d0 	cmplti	r2,r2,3
 840d58c:	10000d1e 	bne	r2,zero,840d5c4 <alt_release_fd+0x50>
  {
    alt_fd_list[fd].fd_flags = 0;
 840d590:	00821134 	movhi	r2,2116
 840d594:	10ab9d04 	addi	r2,r2,-20876
 840d598:	e0ffff17 	ldw	r3,-4(fp)
 840d59c:	18c00324 	muli	r3,r3,12
 840d5a0:	10c5883a 	add	r2,r2,r3
 840d5a4:	10800204 	addi	r2,r2,8
 840d5a8:	10000015 	stw	zero,0(r2)
    alt_fd_list[fd].dev      = 0;
 840d5ac:	00821134 	movhi	r2,2116
 840d5b0:	10ab9d04 	addi	r2,r2,-20876
 840d5b4:	e0ffff17 	ldw	r3,-4(fp)
 840d5b8:	18c00324 	muli	r3,r3,12
 840d5bc:	10c5883a 	add	r2,r2,r3
 840d5c0:	10000015 	stw	zero,0(r2)
  }
}
 840d5c4:	0001883a 	nop
 840d5c8:	e037883a 	mov	sp,fp
 840d5cc:	df000017 	ldw	fp,0(sp)
 840d5d0:	dec00104 	addi	sp,sp,4
 840d5d4:	f800283a 	ret

0840d5d8 <sbrk>:
#endif
 
caddr_t ALT_SBRK (int incr) __attribute__ ((no_instrument_function ));

caddr_t ALT_SBRK (int incr)
{ 
 840d5d8:	defff904 	addi	sp,sp,-28
 840d5dc:	df000615 	stw	fp,24(sp)
 840d5e0:	df000604 	addi	fp,sp,24
 840d5e4:	e13fff15 	stw	r4,-4(fp)
static ALT_INLINE alt_irq_context ALT_ALWAYS_INLINE 
       alt_irq_disable_all (void)
{
  alt_irq_context context;

  NIOS2_READ_STATUS (context);
 840d5e8:	0005303a 	rdctl	r2,status
 840d5ec:	e0bffe15 	stw	r2,-8(fp)

  NIOS2_WRITE_STATUS (context & ~NIOS2_STATUS_PIE_MSK);
 840d5f0:	e0fffe17 	ldw	r3,-8(fp)
 840d5f4:	00bfff84 	movi	r2,-2
 840d5f8:	1884703a 	and	r2,r3,r2
 840d5fc:	1001703a 	wrctl	status,r2
  
  return context;
 840d600:	e0bffe17 	ldw	r2,-8(fp)
  alt_irq_context context;
  char *prev_heap_end; 

  context = alt_irq_disable_all();
 840d604:	e0bffb15 	stw	r2,-20(fp)

  /* Always return data aligned on a word boundary */
  heap_end = (char *)(((unsigned int)heap_end + 3) & ~3);
 840d608:	d0a00c17 	ldw	r2,-32720(gp)
 840d60c:	10c000c4 	addi	r3,r2,3
 840d610:	00bfff04 	movi	r2,-4
 840d614:	1884703a 	and	r2,r3,r2
 840d618:	d0a00c15 	stw	r2,-32720(gp)
  if (((heap_end + incr) - __alt_heap_start) > ALT_MAX_HEAP_BYTES) {
    alt_irq_enable_all(context);
    return (caddr_t)-1;
  }
#else
  if ((heap_end + incr) > __alt_heap_limit) {
 840d61c:	d0e00c17 	ldw	r3,-32720(gp)
 840d620:	e0bfff17 	ldw	r2,-4(fp)
 840d624:	1887883a 	add	r3,r3,r2
 840d628:	00830034 	movhi	r2,3072
 840d62c:	10800004 	addi	r2,r2,0
 840d630:	10c0062e 	bgeu	r2,r3,840d64c <sbrk+0x74>
 840d634:	e0bffb17 	ldw	r2,-20(fp)
 840d638:	e0bffa15 	stw	r2,-24(fp)
  status &= ~NIOS2_STATUS_PIE_MSK;
  status |= (context & NIOS2_STATUS_PIE_MSK);
  
  NIOS2_WRITE_STATUS (status);
#else
  NIOS2_WRITE_STATUS (context);
 840d63c:	e0bffa17 	ldw	r2,-24(fp)
 840d640:	1001703a 	wrctl	status,r2
    alt_irq_enable_all(context);
    return (caddr_t)-1;
 840d644:	00bfffc4 	movi	r2,-1
 840d648:	00000b06 	br	840d678 <sbrk+0xa0>
  }
#endif

  prev_heap_end = heap_end; 
 840d64c:	d0a00c17 	ldw	r2,-32720(gp)
 840d650:	e0bffd15 	stw	r2,-12(fp)
  heap_end += incr; 
 840d654:	d0e00c17 	ldw	r3,-32720(gp)
 840d658:	e0bfff17 	ldw	r2,-4(fp)
 840d65c:	1885883a 	add	r2,r3,r2
 840d660:	d0a00c15 	stw	r2,-32720(gp)
 840d664:	e0bffb17 	ldw	r2,-20(fp)
 840d668:	e0bffc15 	stw	r2,-16(fp)
 840d66c:	e0bffc17 	ldw	r2,-16(fp)
 840d670:	1001703a 	wrctl	status,r2

#endif

  alt_irq_enable_all(context);

  return (caddr_t) prev_heap_end; 
 840d674:	e0bffd17 	ldw	r2,-12(fp)
} 
 840d678:	e037883a 	mov	sp,fp
 840d67c:	df000017 	ldw	fp,0(sp)
 840d680:	dec00104 	addi	sp,sp,4
 840d684:	f800283a 	ret

0840d688 <alt_alarm_stop>:
 * alarms. Alternatively an alarm can unregister itself by returning zero when 
 * the alarm executes.
 */

void alt_alarm_stop (alt_alarm* alarm)
{
 840d688:	defffa04 	addi	sp,sp,-24
 840d68c:	df000515 	stw	fp,20(sp)
 840d690:	df000504 	addi	fp,sp,20
 840d694:	e13fff15 	stw	r4,-4(fp)
static ALT_INLINE alt_irq_context ALT_ALWAYS_INLINE 
       alt_irq_disable_all (void)
{
  alt_irq_context context;

  NIOS2_READ_STATUS (context);
 840d698:	0005303a 	rdctl	r2,status
 840d69c:	e0bffc15 	stw	r2,-16(fp)

  NIOS2_WRITE_STATUS (context & ~NIOS2_STATUS_PIE_MSK);
 840d6a0:	e0fffc17 	ldw	r3,-16(fp)
 840d6a4:	00bfff84 	movi	r2,-2
 840d6a8:	1884703a 	and	r2,r3,r2
 840d6ac:	1001703a 	wrctl	status,r2
  
  return context;
 840d6b0:	e0bffc17 	ldw	r2,-16(fp)
  alt_irq_context irq_context;

  irq_context = alt_irq_disable_all();
 840d6b4:	e0bffb15 	stw	r2,-20(fp)
  alt_llist_remove (&alarm->llist);
 840d6b8:	e0bfff17 	ldw	r2,-4(fp)
 840d6bc:	e0bffd15 	stw	r2,-12(fp)
 * input argument is the element to remove.
 */
     
static ALT_INLINE void ALT_ALWAYS_INLINE alt_llist_remove(alt_llist* entry)
{
  entry->next->previous = entry->previous;
 840d6c0:	e0bffd17 	ldw	r2,-12(fp)
 840d6c4:	10800017 	ldw	r2,0(r2)
 840d6c8:	e0fffd17 	ldw	r3,-12(fp)
 840d6cc:	18c00117 	ldw	r3,4(r3)
 840d6d0:	10c00115 	stw	r3,4(r2)
  entry->previous->next = entry->next;
 840d6d4:	e0bffd17 	ldw	r2,-12(fp)
 840d6d8:	10800117 	ldw	r2,4(r2)
 840d6dc:	e0fffd17 	ldw	r3,-12(fp)
 840d6e0:	18c00017 	ldw	r3,0(r3)
 840d6e4:	10c00015 	stw	r3,0(r2)
  /* 
   * Set the entry to point to itself, so that any further calls to
   * alt_llist_remove() are harmless.
   */

  entry->previous = entry;
 840d6e8:	e0bffd17 	ldw	r2,-12(fp)
 840d6ec:	e0fffd17 	ldw	r3,-12(fp)
 840d6f0:	10c00115 	stw	r3,4(r2)
  entry->next     = entry;
 840d6f4:	e0bffd17 	ldw	r2,-12(fp)
 840d6f8:	e0fffd17 	ldw	r3,-12(fp)
 840d6fc:	10c00015 	stw	r3,0(r2)
 840d700:	e0bffb17 	ldw	r2,-20(fp)
 840d704:	e0bffe15 	stw	r2,-8(fp)
  status &= ~NIOS2_STATUS_PIE_MSK;
  status |= (context & NIOS2_STATUS_PIE_MSK);
  
  NIOS2_WRITE_STATUS (status);
#else
  NIOS2_WRITE_STATUS (context);
 840d708:	e0bffe17 	ldw	r2,-8(fp)
 840d70c:	1001703a 	wrctl	status,r2
  alt_irq_enable_all (irq_context);
}
 840d710:	0001883a 	nop
 840d714:	e037883a 	mov	sp,fp
 840d718:	df000017 	ldw	fp,0(sp)
 840d71c:	dec00104 	addi	sp,sp,4
 840d720:	f800283a 	ret

0840d724 <alt_tick>:
 * 
 * alt_tick() is expected to run at interrupt level.
 */

void alt_tick (void)
{
 840d724:	defffb04 	addi	sp,sp,-20
 840d728:	dfc00415 	stw	ra,16(sp)
 840d72c:	df000315 	stw	fp,12(sp)
 840d730:	df000304 	addi	fp,sp,12
  alt_alarm* next;
  alt_alarm* alarm = (alt_alarm*) alt_alarm_list.next;
 840d734:	d0a00d17 	ldw	r2,-32716(gp)
 840d738:	e0bffd15 	stw	r2,-12(fp)

  alt_u32    next_callback;

  /* update the tick counter */

  _alt_nticks++;
 840d73c:	d0ac9817 	ldw	r2,-19872(gp)
 840d740:	10800044 	addi	r2,r2,1
 840d744:	d0ac9815 	stw	r2,-19872(gp)

  /* process the registered callbacks */

  while (alarm != (alt_alarm*) &alt_alarm_list)
 840d748:	00002e06 	br	840d804 <alt_tick+0xe0>
  {
    next = (alt_alarm*) alarm->llist.next;
 840d74c:	e0bffd17 	ldw	r2,-12(fp)
 840d750:	10800017 	ldw	r2,0(r2)
 840d754:	e0bffe15 	stw	r2,-8(fp)
    /* 
     * Upon the tick-counter rolling over it is safe to clear the 
     * roll-over flag; once the flag is cleared this (or subsequnt)
     * tick events are enabled to generate an alarm event. 
     */
    if ((alarm->rollover) && (_alt_nticks == 0))
 840d758:	e0bffd17 	ldw	r2,-12(fp)
 840d75c:	10800403 	ldbu	r2,16(r2)
 840d760:	10803fcc 	andi	r2,r2,255
 840d764:	10000426 	beq	r2,zero,840d778 <alt_tick+0x54>
 840d768:	d0ac9817 	ldw	r2,-19872(gp)
 840d76c:	1000021e 	bne	r2,zero,840d778 <alt_tick+0x54>
    {
      alarm->rollover = 0;
 840d770:	e0bffd17 	ldw	r2,-12(fp)
 840d774:	10000405 	stb	zero,16(r2)
    }
    
    /* if the alarm period has expired, make the callback */    
    if ((alarm->time <= _alt_nticks) && (alarm->rollover == 0))
 840d778:	e0bffd17 	ldw	r2,-12(fp)
 840d77c:	10800217 	ldw	r2,8(r2)
 840d780:	d0ec9817 	ldw	r3,-19872(gp)
 840d784:	18801d36 	bltu	r3,r2,840d7fc <alt_tick+0xd8>
 840d788:	e0bffd17 	ldw	r2,-12(fp)
 840d78c:	10800403 	ldbu	r2,16(r2)
 840d790:	10803fcc 	andi	r2,r2,255
 840d794:	1000191e 	bne	r2,zero,840d7fc <alt_tick+0xd8>
    {
      next_callback = alarm->callback (alarm->context);
 840d798:	e0bffd17 	ldw	r2,-12(fp)
 840d79c:	10800317 	ldw	r2,12(r2)
 840d7a0:	e0fffd17 	ldw	r3,-12(fp)
 840d7a4:	18c00517 	ldw	r3,20(r3)
 840d7a8:	1809883a 	mov	r4,r3
 840d7ac:	103ee83a 	callr	r2
 840d7b0:	e0bfff15 	stw	r2,-4(fp)

      /* deactivate the alarm if the return value is zero */

      if (next_callback == 0)
 840d7b4:	e0bfff17 	ldw	r2,-4(fp)
 840d7b8:	1000031e 	bne	r2,zero,840d7c8 <alt_tick+0xa4>
      {
        alt_alarm_stop (alarm);
 840d7bc:	e13ffd17 	ldw	r4,-12(fp)
 840d7c0:	840d6880 	call	840d688 <alt_alarm_stop>
 840d7c4:	00000d06 	br	840d7fc <alt_tick+0xd8>
      }
      else
      {
        alarm->time += next_callback;
 840d7c8:	e0bffd17 	ldw	r2,-12(fp)
 840d7cc:	10c00217 	ldw	r3,8(r2)
 840d7d0:	e0bfff17 	ldw	r2,-4(fp)
 840d7d4:	1887883a 	add	r3,r3,r2
 840d7d8:	e0bffd17 	ldw	r2,-12(fp)
 840d7dc:	10c00215 	stw	r3,8(r2)
        /* 
         * If the desired alarm time causes a roll-over, set the rollover
         * flag. This will prevent the subsequent tick event from causing
         * an alarm too early.
         */
        if(alarm->time < _alt_nticks)
 840d7e0:	e0bffd17 	ldw	r2,-12(fp)
 840d7e4:	10c00217 	ldw	r3,8(r2)
 840d7e8:	d0ac9817 	ldw	r2,-19872(gp)
 840d7ec:	1880032e 	bgeu	r3,r2,840d7fc <alt_tick+0xd8>
        {
          alarm->rollover = 1;
 840d7f0:	e0bffd17 	ldw	r2,-12(fp)
 840d7f4:	00c00044 	movi	r3,1
 840d7f8:	10c00405 	stb	r3,16(r2)
        }
      }
    }
    alarm = next;
 840d7fc:	e0bffe17 	ldw	r2,-8(fp)
 840d800:	e0bffd15 	stw	r2,-12(fp)

  _alt_nticks++;

  /* process the registered callbacks */

  while (alarm != (alt_alarm*) &alt_alarm_list)
 840d804:	e0fffd17 	ldw	r3,-12(fp)
 840d808:	d0a00d04 	addi	r2,gp,-32716
 840d80c:	18bfcf1e 	bne	r3,r2,840d74c <__alt_data_end+0xfc40d74c>

  /* 
   * Update the operating system specific timer facilities.
   */

  ALT_OS_TIME_TICK();
 840d810:	0001883a 	nop
}
 840d814:	0001883a 	nop
 840d818:	e037883a 	mov	sp,fp
 840d81c:	dfc00117 	ldw	ra,4(sp)
 840d820:	df000017 	ldw	fp,0(sp)
 840d824:	dec00204 	addi	sp,sp,8
 840d828:	f800283a 	ret

0840d82c <usleep>:
#if defined (__GNUC__) && __GNUC__ >= 4
int ALT_USLEEP (useconds_t us)
#else
unsigned int ALT_USLEEP (unsigned int us)
#endif
{
 840d82c:	defffd04 	addi	sp,sp,-12
 840d830:	dfc00215 	stw	ra,8(sp)
 840d834:	df000115 	stw	fp,4(sp)
 840d838:	df000104 	addi	fp,sp,4
 840d83c:	e13fff15 	stw	r4,-4(fp)
  return alt_busy_sleep(us);
 840d840:	e13fff17 	ldw	r4,-4(fp)
 840d844:	840e7bc0 	call	840e7bc <alt_busy_sleep>
}
 840d848:	e037883a 	mov	sp,fp
 840d84c:	dfc00117 	ldw	ra,4(sp)
 840d850:	df000017 	ldw	fp,0(sp)
 840d854:	dec00204 	addi	sp,sp,8
 840d858:	f800283a 	ret

0840d85c <alt_get_errno>:
#undef errno

extern int errno;

static ALT_INLINE int* alt_get_errno(void)
{
 840d85c:	defffe04 	addi	sp,sp,-8
 840d860:	dfc00115 	stw	ra,4(sp)
 840d864:	df000015 	stw	fp,0(sp)
 840d868:	d839883a 	mov	fp,sp
  return ((alt_errno) ? alt_errno() : &errno);
 840d86c:	d0a00a17 	ldw	r2,-32728(gp)
 840d870:	10000326 	beq	r2,zero,840d880 <alt_get_errno+0x24>
 840d874:	d0a00a17 	ldw	r2,-32728(gp)
 840d878:	103ee83a 	callr	r2
 840d87c:	00000106 	br	840d884 <alt_get_errno+0x28>
 840d880:	d0ac8e04 	addi	r2,gp,-19912
}
 840d884:	e037883a 	mov	sp,fp
 840d888:	dfc00117 	ldw	ra,4(sp)
 840d88c:	df000017 	ldw	fp,0(sp)
 840d890:	dec00204 	addi	sp,sp,8
 840d894:	f800283a 	ret

0840d898 <write>:
}

#else /* !ALT_USE_DIRECT_DRIVERS */

int ALT_WRITE (int file, const void *ptr, size_t len)
{
 840d898:	defff904 	addi	sp,sp,-28
 840d89c:	dfc00615 	stw	ra,24(sp)
 840d8a0:	df000515 	stw	fp,20(sp)
 840d8a4:	df000504 	addi	fp,sp,20
 840d8a8:	e13ffd15 	stw	r4,-12(fp)
 840d8ac:	e17ffe15 	stw	r5,-8(fp)
 840d8b0:	e1bfff15 	stw	r6,-4(fp)
   * A common error case is that when the file descriptor was created, the call
   * to open() failed resulting in a negative file descriptor. This is trapped
   * below so that we don't try and process an invalid file descriptor.
   */

  fd = (file < 0) ? NULL : &alt_fd_list[file];
 840d8b4:	e0bffd17 	ldw	r2,-12(fp)
 840d8b8:	10000616 	blt	r2,zero,840d8d4 <write+0x3c>
 840d8bc:	e0bffd17 	ldw	r2,-12(fp)
 840d8c0:	10c00324 	muli	r3,r2,12
 840d8c4:	00821134 	movhi	r2,2116
 840d8c8:	10ab9d04 	addi	r2,r2,-20876
 840d8cc:	1885883a 	add	r2,r3,r2
 840d8d0:	00000106 	br	840d8d8 <write+0x40>
 840d8d4:	0005883a 	mov	r2,zero
 840d8d8:	e0bffb15 	stw	r2,-20(fp)
  
  if (fd)
 840d8dc:	e0bffb17 	ldw	r2,-20(fp)
 840d8e0:	10002126 	beq	r2,zero,840d968 <write+0xd0>
     * If the file has not been opened with write access, or if the driver does
     * not provide an implementation of write(), generate an error. Otherwise
     * call the drivers write() function to process the request.
     */

    if (((fd->fd_flags & O_ACCMODE) != O_RDONLY) && fd->dev->write)
 840d8e4:	e0bffb17 	ldw	r2,-20(fp)
 840d8e8:	10800217 	ldw	r2,8(r2)
 840d8ec:	108000cc 	andi	r2,r2,3
 840d8f0:	10001826 	beq	r2,zero,840d954 <write+0xbc>
 840d8f4:	e0bffb17 	ldw	r2,-20(fp)
 840d8f8:	10800017 	ldw	r2,0(r2)
 840d8fc:	10800617 	ldw	r2,24(r2)
 840d900:	10001426 	beq	r2,zero,840d954 <write+0xbc>
    {
      
      /* ALT_LOG - see altera_hal/HAL/inc/sys/alt_log_printf.h */
      ALT_LOG_WRITE_FUNCTION(ptr,len);

      if ((rval = fd->dev->write(fd, ptr, len)) < 0)
 840d904:	e0bffb17 	ldw	r2,-20(fp)
 840d908:	10800017 	ldw	r2,0(r2)
 840d90c:	10800617 	ldw	r2,24(r2)
 840d910:	e0ffff17 	ldw	r3,-4(fp)
 840d914:	180d883a 	mov	r6,r3
 840d918:	e17ffe17 	ldw	r5,-8(fp)
 840d91c:	e13ffb17 	ldw	r4,-20(fp)
 840d920:	103ee83a 	callr	r2
 840d924:	e0bffc15 	stw	r2,-16(fp)
 840d928:	e0bffc17 	ldw	r2,-16(fp)
 840d92c:	1000070e 	bge	r2,zero,840d94c <write+0xb4>
      {
        ALT_ERRNO = -rval;
 840d930:	840d85c0 	call	840d85c <alt_get_errno>
 840d934:	1007883a 	mov	r3,r2
 840d938:	e0bffc17 	ldw	r2,-16(fp)
 840d93c:	0085c83a 	sub	r2,zero,r2
 840d940:	18800015 	stw	r2,0(r3)
        return -1;
 840d944:	00bfffc4 	movi	r2,-1
 840d948:	00000c06 	br	840d97c <write+0xe4>
      }
      return rval;
 840d94c:	e0bffc17 	ldw	r2,-16(fp)
 840d950:	00000a06 	br	840d97c <write+0xe4>
    }
    else
    {
      ALT_ERRNO = EACCES;
 840d954:	840d85c0 	call	840d85c <alt_get_errno>
 840d958:	1007883a 	mov	r3,r2
 840d95c:	00800344 	movi	r2,13
 840d960:	18800015 	stw	r2,0(r3)
 840d964:	00000406 	br	840d978 <write+0xe0>
    }
  }
  else  
  {
    ALT_ERRNO = EBADFD;
 840d968:	840d85c0 	call	840d85c <alt_get_errno>
 840d96c:	1007883a 	mov	r3,r2
 840d970:	00801444 	movi	r2,81
 840d974:	18800015 	stw	r2,0(r3)
  }
  return -1;
 840d978:	00bfffc4 	movi	r2,-1
}
 840d97c:	e037883a 	mov	sp,fp
 840d980:	dfc00117 	ldw	ra,4(sp)
 840d984:	df000017 	ldw	fp,0(sp)
 840d988:	dec00204 	addi	sp,sp,8
 840d98c:	f800283a 	ret

0840d990 <alt_dev_reg>:
 */

extern int alt_fs_reg  (alt_dev* dev); 

static ALT_INLINE int alt_dev_reg (alt_dev* dev)
{
 840d990:	defffd04 	addi	sp,sp,-12
 840d994:	dfc00215 	stw	ra,8(sp)
 840d998:	df000115 	stw	fp,4(sp)
 840d99c:	df000104 	addi	fp,sp,4
 840d9a0:	e13fff15 	stw	r4,-4(fp)
  extern alt_llist alt_dev_list;

  return alt_dev_llist_insert ((alt_dev_llist*) dev, &alt_dev_list);
 840d9a4:	d1600704 	addi	r5,gp,-32740
 840d9a8:	e13fff17 	ldw	r4,-4(fp)
 840d9ac:	840e9980 	call	840e998 <alt_dev_llist_insert>
}
 840d9b0:	e037883a 	mov	sp,fp
 840d9b4:	dfc00117 	ldw	ra,4(sp)
 840d9b8:	df000017 	ldw	fp,0(sp)
 840d9bc:	dec00204 	addi	sp,sp,8
 840d9c0:	f800283a 	ret

0840d9c4 <alt_irq_init>:
 * The "base" parameter is ignored and only
 * present for backwards-compatibility.
 */

void alt_irq_init ( const void* base )
{
 840d9c4:	defffd04 	addi	sp,sp,-12
 840d9c8:	dfc00215 	stw	ra,8(sp)
 840d9cc:	df000115 	stw	fp,4(sp)
 840d9d0:	df000104 	addi	fp,sp,4
 840d9d4:	e13fff15 	stw	r4,-4(fp)
    ALTERA_NIOS2_GEN2_IRQ_INIT ( NIOS2_GEN2, nios2_gen2);
 840d9d8:	840ef600 	call	840ef60 <altera_nios2_gen2_irq_init>
 * alt_irq_cpu_enable_interrupts() enables the CPU to start taking interrupts.
 */
static ALT_INLINE void ALT_ALWAYS_INLINE 
       alt_irq_cpu_enable_interrupts (void)
{
    NIOS2_WRITE_STATUS(NIOS2_STATUS_PIE_MSK
 840d9dc:	00800044 	movi	r2,1
 840d9e0:	1001703a 	wrctl	status,r2
    alt_irq_cpu_enable_interrupts();
}
 840d9e4:	0001883a 	nop
 840d9e8:	e037883a 	mov	sp,fp
 840d9ec:	dfc00117 	ldw	ra,4(sp)
 840d9f0:	df000017 	ldw	fp,0(sp)
 840d9f4:	dec00204 	addi	sp,sp,8
 840d9f8:	f800283a 	ret

0840d9fc <alt_sys_init>:
 * Initialize the non-interrupt controller devices.
 * Called after alt_irq_init().
 */

void alt_sys_init( void )
{
 840d9fc:	defffe04 	addi	sp,sp,-8
 840da00:	dfc00115 	stw	ra,4(sp)
 840da04:	df000015 	stw	fp,0(sp)
 840da08:	d839883a 	mov	fp,sp
    ALTERA_AVALON_TIMER_INIT ( TIMER_0, timer_0);
 840da0c:	01c0fa04 	movi	r7,1000
 840da10:	01800044 	movi	r6,1
 840da14:	000b883a 	mov	r5,zero
 840da18:	01004034 	movhi	r4,256
 840da1c:	21000804 	addi	r4,r4,32
 840da20:	840e7400 	call	840e740 <alt_avalon_timer_sc_init>
    ALTERA_AVALON_JTAG_UART_INIT ( JTAG_UART_0, jtag_uart_0);
 840da24:	000d883a 	mov	r6,zero
 840da28:	000b883a 	mov	r5,zero
 840da2c:	01021134 	movhi	r4,2116
 840da30:	212c0704 	addi	r4,r4,-20452
 840da34:	840dbc80 	call	840dbc8 <altera_avalon_jtag_uart_init>
 840da38:	01021134 	movhi	r4,2116
 840da3c:	212bfd04 	addi	r4,r4,-20492
 840da40:	840d9900 	call	840d990 <alt_dev_reg>
    ALTERA_AVALON_SPI_INIT ( TOUCH_PANEL_SPI, touch_panel_spi);
 840da44:	0001883a 	nop
    ALTERA_AVALON_SYSID_QSYS_INIT ( SYSID_QSYS_0, sysid_qsys_0);
 840da48:	0001883a 	nop
}
 840da4c:	0001883a 	nop
 840da50:	e037883a 	mov	sp,fp
 840da54:	dfc00117 	ldw	ra,4(sp)
 840da58:	df000017 	ldw	fp,0(sp)
 840da5c:	dec00204 	addi	sp,sp,8
 840da60:	f800283a 	ret

0840da64 <altera_avalon_jtag_uart_read_fd>:
 *
 */

int 
altera_avalon_jtag_uart_read_fd(alt_fd* fd, char* buffer, int space)
{
 840da64:	defffa04 	addi	sp,sp,-24
 840da68:	dfc00515 	stw	ra,20(sp)
 840da6c:	df000415 	stw	fp,16(sp)
 840da70:	df000404 	addi	fp,sp,16
 840da74:	e13ffd15 	stw	r4,-12(fp)
 840da78:	e17ffe15 	stw	r5,-8(fp)
 840da7c:	e1bfff15 	stw	r6,-4(fp)
    altera_avalon_jtag_uart_dev* dev = (altera_avalon_jtag_uart_dev*) fd->dev; 
 840da80:	e0bffd17 	ldw	r2,-12(fp)
 840da84:	10800017 	ldw	r2,0(r2)
 840da88:	e0bffc15 	stw	r2,-16(fp)

    return altera_avalon_jtag_uart_read(&dev->state, buffer, space,
 840da8c:	e0bffc17 	ldw	r2,-16(fp)
 840da90:	10c00a04 	addi	r3,r2,40
 840da94:	e0bffd17 	ldw	r2,-12(fp)
 840da98:	10800217 	ldw	r2,8(r2)
 840da9c:	100f883a 	mov	r7,r2
 840daa0:	e1bfff17 	ldw	r6,-4(fp)
 840daa4:	e17ffe17 	ldw	r5,-8(fp)
 840daa8:	1809883a 	mov	r4,r3
 840daac:	840e08c0 	call	840e08c <altera_avalon_jtag_uart_read>
      fd->fd_flags);
}
 840dab0:	e037883a 	mov	sp,fp
 840dab4:	dfc00117 	ldw	ra,4(sp)
 840dab8:	df000017 	ldw	fp,0(sp)
 840dabc:	dec00204 	addi	sp,sp,8
 840dac0:	f800283a 	ret

0840dac4 <altera_avalon_jtag_uart_write_fd>:

int 
altera_avalon_jtag_uart_write_fd(alt_fd* fd, const char* buffer, int space)
{
 840dac4:	defffa04 	addi	sp,sp,-24
 840dac8:	dfc00515 	stw	ra,20(sp)
 840dacc:	df000415 	stw	fp,16(sp)
 840dad0:	df000404 	addi	fp,sp,16
 840dad4:	e13ffd15 	stw	r4,-12(fp)
 840dad8:	e17ffe15 	stw	r5,-8(fp)
 840dadc:	e1bfff15 	stw	r6,-4(fp)
    altera_avalon_jtag_uart_dev* dev = (altera_avalon_jtag_uart_dev*) fd->dev; 
 840dae0:	e0bffd17 	ldw	r2,-12(fp)
 840dae4:	10800017 	ldw	r2,0(r2)
 840dae8:	e0bffc15 	stw	r2,-16(fp)

    return altera_avalon_jtag_uart_write(&dev->state, buffer, space,
 840daec:	e0bffc17 	ldw	r2,-16(fp)
 840daf0:	10c00a04 	addi	r3,r2,40
 840daf4:	e0bffd17 	ldw	r2,-12(fp)
 840daf8:	10800217 	ldw	r2,8(r2)
 840dafc:	100f883a 	mov	r7,r2
 840db00:	e1bfff17 	ldw	r6,-4(fp)
 840db04:	e17ffe17 	ldw	r5,-8(fp)
 840db08:	1809883a 	mov	r4,r3
 840db0c:	840e2a80 	call	840e2a8 <altera_avalon_jtag_uart_write>
      fd->fd_flags);
}
 840db10:	e037883a 	mov	sp,fp
 840db14:	dfc00117 	ldw	ra,4(sp)
 840db18:	df000017 	ldw	fp,0(sp)
 840db1c:	dec00204 	addi	sp,sp,8
 840db20:	f800283a 	ret

0840db24 <altera_avalon_jtag_uart_close_fd>:

#ifndef ALTERA_AVALON_JTAG_UART_SMALL

int 
altera_avalon_jtag_uart_close_fd(alt_fd* fd)
{
 840db24:	defffc04 	addi	sp,sp,-16
 840db28:	dfc00315 	stw	ra,12(sp)
 840db2c:	df000215 	stw	fp,8(sp)
 840db30:	df000204 	addi	fp,sp,8
 840db34:	e13fff15 	stw	r4,-4(fp)
    altera_avalon_jtag_uart_dev* dev = (altera_avalon_jtag_uart_dev*) fd->dev; 
 840db38:	e0bfff17 	ldw	r2,-4(fp)
 840db3c:	10800017 	ldw	r2,0(r2)
 840db40:	e0bffe15 	stw	r2,-8(fp)

    return altera_avalon_jtag_uart_close(&dev->state, fd->fd_flags);
 840db44:	e0bffe17 	ldw	r2,-8(fp)
 840db48:	10c00a04 	addi	r3,r2,40
 840db4c:	e0bfff17 	ldw	r2,-4(fp)
 840db50:	10800217 	ldw	r2,8(r2)
 840db54:	100b883a 	mov	r5,r2
 840db58:	1809883a 	mov	r4,r3
 840db5c:	840df340 	call	840df34 <altera_avalon_jtag_uart_close>
}
 840db60:	e037883a 	mov	sp,fp
 840db64:	dfc00117 	ldw	ra,4(sp)
 840db68:	df000017 	ldw	fp,0(sp)
 840db6c:	dec00204 	addi	sp,sp,8
 840db70:	f800283a 	ret

0840db74 <altera_avalon_jtag_uart_ioctl_fd>:

int 
altera_avalon_jtag_uart_ioctl_fd(alt_fd* fd, int req, void* arg)
{
 840db74:	defffa04 	addi	sp,sp,-24
 840db78:	dfc00515 	stw	ra,20(sp)
 840db7c:	df000415 	stw	fp,16(sp)
 840db80:	df000404 	addi	fp,sp,16
 840db84:	e13ffd15 	stw	r4,-12(fp)
 840db88:	e17ffe15 	stw	r5,-8(fp)
 840db8c:	e1bfff15 	stw	r6,-4(fp)
    altera_avalon_jtag_uart_dev* dev = (altera_avalon_jtag_uart_dev*) fd->dev;
 840db90:	e0bffd17 	ldw	r2,-12(fp)
 840db94:	10800017 	ldw	r2,0(r2)
 840db98:	e0bffc15 	stw	r2,-16(fp)

    return altera_avalon_jtag_uart_ioctl(&dev->state, req, arg);
 840db9c:	e0bffc17 	ldw	r2,-16(fp)
 840dba0:	10800a04 	addi	r2,r2,40
 840dba4:	e1bfff17 	ldw	r6,-4(fp)
 840dba8:	e17ffe17 	ldw	r5,-8(fp)
 840dbac:	1009883a 	mov	r4,r2
 840dbb0:	840df9c0 	call	840df9c <altera_avalon_jtag_uart_ioctl>
}
 840dbb4:	e037883a 	mov	sp,fp
 840dbb8:	dfc00117 	ldw	ra,4(sp)
 840dbbc:	df000017 	ldw	fp,0(sp)
 840dbc0:	dec00204 	addi	sp,sp,8
 840dbc4:	f800283a 	ret

0840dbc8 <altera_avalon_jtag_uart_init>:
 * Return 1 on sucessful IRQ register and 0 on failure.
 */

void altera_avalon_jtag_uart_init(altera_avalon_jtag_uart_state* sp, 
                                  int irq_controller_id, int irq)
{
 840dbc8:	defffa04 	addi	sp,sp,-24
 840dbcc:	dfc00515 	stw	ra,20(sp)
 840dbd0:	df000415 	stw	fp,16(sp)
 840dbd4:	df000404 	addi	fp,sp,16
 840dbd8:	e13ffd15 	stw	r4,-12(fp)
 840dbdc:	e17ffe15 	stw	r5,-8(fp)
 840dbe0:	e1bfff15 	stw	r6,-4(fp)
  ALT_FLAG_CREATE(&sp->events, 0);
  ALT_SEM_CREATE(&sp->read_lock, 1);
  ALT_SEM_CREATE(&sp->write_lock, 1);

  /* enable read interrupts at the device */
  sp->irq_enable = ALTERA_AVALON_JTAG_UART_CONTROL_RE_MSK;
 840dbe4:	e0bffd17 	ldw	r2,-12(fp)
 840dbe8:	00c00044 	movi	r3,1
 840dbec:	10c00815 	stw	r3,32(r2)

  IOWR_ALTERA_AVALON_JTAG_UART_CONTROL(sp->base, sp->irq_enable); 
 840dbf0:	e0bffd17 	ldw	r2,-12(fp)
 840dbf4:	10800017 	ldw	r2,0(r2)
 840dbf8:	10800104 	addi	r2,r2,4
 840dbfc:	1007883a 	mov	r3,r2
 840dc00:	e0bffd17 	ldw	r2,-12(fp)
 840dc04:	10800817 	ldw	r2,32(r2)
 840dc08:	18800035 	stwio	r2,0(r3)
  
  /* register the interrupt handler */
#ifdef ALT_ENHANCED_INTERRUPT_API_PRESENT
  alt_ic_isr_register(irq_controller_id, irq, altera_avalon_jtag_uart_irq, 
 840dc0c:	e0bffe17 	ldw	r2,-8(fp)
 840dc10:	e0ffff17 	ldw	r3,-4(fp)
 840dc14:	d8000015 	stw	zero,0(sp)
 840dc18:	e1fffd17 	ldw	r7,-12(fp)
 840dc1c:	01821074 	movhi	r6,2113
 840dc20:	31b72204 	addi	r6,r6,-9080
 840dc24:	180b883a 	mov	r5,r3
 840dc28:	1009883a 	mov	r4,r2
 840dc2c:	840cdfc0 	call	840cdfc <alt_ic_isr_register>
#else
  alt_irq_register(irq, sp, altera_avalon_jtag_uart_irq);
#endif  

  /* Register an alarm to go off every second to check for presence of host */
  sp->host_inactive = 0;
 840dc30:	e0bffd17 	ldw	r2,-12(fp)
 840dc34:	10000915 	stw	zero,36(r2)

  if (alt_alarm_start(&sp->alarm, alt_ticks_per_second(), 
 840dc38:	e0bffd17 	ldw	r2,-12(fp)
 840dc3c:	10800204 	addi	r2,r2,8
 840dc40:	d0ec9717 	ldw	r3,-19876(gp)
 840dc44:	e1fffd17 	ldw	r7,-12(fp)
 840dc48:	01821074 	movhi	r6,2113
 840dc4c:	31b7a504 	addi	r6,r6,-8556
 840dc50:	180b883a 	mov	r5,r3
 840dc54:	1009883a 	mov	r4,r2
 840dc58:	840c8b80 	call	840c8b8 <alt_alarm_start>
 840dc5c:	1000040e 	bge	r2,zero,840dc70 <altera_avalon_jtag_uart_init+0xa8>
    &altera_avalon_jtag_uart_timeout, sp) < 0)
  {
    /* If we can't set the alarm then record "don't know if host present" 
     * and behave as though the host is present.
     */
    sp->timeout = INT_MAX;
 840dc60:	e0fffd17 	ldw	r3,-12(fp)
 840dc64:	00a00034 	movhi	r2,32768
 840dc68:	10bfffc4 	addi	r2,r2,-1
 840dc6c:	18800115 	stw	r2,4(r3)
  }

  /* ALT_LOG - see altera_hal/HAL/inc/sys/alt_log_printf.h */ 
  ALT_LOG_JTAG_UART_ALARM_REGISTER(sp, sp->base);
}
 840dc70:	0001883a 	nop
 840dc74:	e037883a 	mov	sp,fp
 840dc78:	dfc00117 	ldw	ra,4(sp)
 840dc7c:	df000017 	ldw	fp,0(sp)
 840dc80:	dec00204 	addi	sp,sp,8
 840dc84:	f800283a 	ret

0840dc88 <altera_avalon_jtag_uart_irq>:
#ifdef ALT_ENHANCED_INTERRUPT_API_PRESENT
static void altera_avalon_jtag_uart_irq(void* context)
#else
static void altera_avalon_jtag_uart_irq(void* context, alt_u32 id)
#endif
{
 840dc88:	defff804 	addi	sp,sp,-32
 840dc8c:	df000715 	stw	fp,28(sp)
 840dc90:	df000704 	addi	fp,sp,28
 840dc94:	e13fff15 	stw	r4,-4(fp)
  altera_avalon_jtag_uart_state* sp = (altera_avalon_jtag_uart_state*) context;
 840dc98:	e0bfff17 	ldw	r2,-4(fp)
 840dc9c:	e0bffb15 	stw	r2,-20(fp)
  unsigned int base = sp->base;
 840dca0:	e0bffb17 	ldw	r2,-20(fp)
 840dca4:	10800017 	ldw	r2,0(r2)
 840dca8:	e0bffc15 	stw	r2,-16(fp)
  /* ALT_LOG - see altera_hal/HAL/inc/sys/alt_log_printf.h */ 
  ALT_LOG_JTAG_UART_ISR_FUNCTION(base, sp);

  for ( ; ; )
  {
    unsigned int control = IORD_ALTERA_AVALON_JTAG_UART_CONTROL(base);
 840dcac:	e0bffc17 	ldw	r2,-16(fp)
 840dcb0:	10800104 	addi	r2,r2,4
 840dcb4:	10800037 	ldwio	r2,0(r2)
 840dcb8:	e0bffd15 	stw	r2,-12(fp)

    /* Return once nothing more to do */
    if ((control & (ALTERA_AVALON_JTAG_UART_CONTROL_RI_MSK | ALTERA_AVALON_JTAG_UART_CONTROL_WI_MSK)) == 0)
 840dcbc:	e0bffd17 	ldw	r2,-12(fp)
 840dcc0:	1080c00c 	andi	r2,r2,768
 840dcc4:	10006d26 	beq	r2,zero,840de7c <altera_avalon_jtag_uart_irq+0x1f4>
      break;

    if (control & ALTERA_AVALON_JTAG_UART_CONTROL_RI_MSK)
 840dcc8:	e0bffd17 	ldw	r2,-12(fp)
 840dccc:	1080400c 	andi	r2,r2,256
 840dcd0:	10003526 	beq	r2,zero,840dda8 <altera_avalon_jtag_uart_irq+0x120>
    {
      /* process a read irq.  Start by assuming that there is data in the
       * receive FIFO (otherwise why would we have been interrupted?)
       */
      unsigned int data = 1 << ALTERA_AVALON_JTAG_UART_DATA_RAVAIL_OFST;
 840dcd4:	00800074 	movhi	r2,1
 840dcd8:	e0bff915 	stw	r2,-28(fp)
      for ( ; ; )
      {
        /* Check whether there is space in the buffer.  If not then we must not
         * read any characters from the buffer as they will be lost.
         */
        unsigned int next = (sp->rx_in + 1) % ALTERA_AVALON_JTAG_UART_BUF_LEN;
 840dcdc:	e0bffb17 	ldw	r2,-20(fp)
 840dce0:	10800a17 	ldw	r2,40(r2)
 840dce4:	10800044 	addi	r2,r2,1
 840dce8:	1081ffcc 	andi	r2,r2,2047
 840dcec:	e0bffe15 	stw	r2,-8(fp)
        if (next == sp->rx_out)
 840dcf0:	e0bffb17 	ldw	r2,-20(fp)
 840dcf4:	10c00b17 	ldw	r3,44(r2)
 840dcf8:	e0bffe17 	ldw	r2,-8(fp)
 840dcfc:	18801526 	beq	r3,r2,840dd54 <altera_avalon_jtag_uart_irq+0xcc>
          break;

        /* Try to remove a character from the FIFO and find out whether there
         * are any more characters remaining.
         */
        data = IORD_ALTERA_AVALON_JTAG_UART_DATA(base);
 840dd00:	e0bffc17 	ldw	r2,-16(fp)
 840dd04:	10800037 	ldwio	r2,0(r2)
 840dd08:	e0bff915 	stw	r2,-28(fp)
        
        if ((data & ALTERA_AVALON_JTAG_UART_DATA_RVALID_MSK) == 0)
 840dd0c:	e0bff917 	ldw	r2,-28(fp)
 840dd10:	10a0000c 	andi	r2,r2,32768
 840dd14:	10001126 	beq	r2,zero,840dd5c <altera_avalon_jtag_uart_irq+0xd4>
          break;

        sp->rx_buf[sp->rx_in] = (data & ALTERA_AVALON_JTAG_UART_DATA_DATA_MSK) >> ALTERA_AVALON_JTAG_UART_DATA_DATA_OFST;
 840dd18:	e0bffb17 	ldw	r2,-20(fp)
 840dd1c:	10800a17 	ldw	r2,40(r2)
 840dd20:	e0fff917 	ldw	r3,-28(fp)
 840dd24:	1809883a 	mov	r4,r3
 840dd28:	e0fffb17 	ldw	r3,-20(fp)
 840dd2c:	1885883a 	add	r2,r3,r2
 840dd30:	10800e04 	addi	r2,r2,56
 840dd34:	11000005 	stb	r4,0(r2)
        sp->rx_in = (sp->rx_in + 1) % ALTERA_AVALON_JTAG_UART_BUF_LEN;
 840dd38:	e0bffb17 	ldw	r2,-20(fp)
 840dd3c:	10800a17 	ldw	r2,40(r2)
 840dd40:	10800044 	addi	r2,r2,1
 840dd44:	10c1ffcc 	andi	r3,r2,2047
 840dd48:	e0bffb17 	ldw	r2,-20(fp)
 840dd4c:	10c00a15 	stw	r3,40(r2)

        /* Post an event to notify jtag_uart_read that a character has been read */
        ALT_FLAG_POST (sp->events, ALT_JTAG_UART_READ_RDY, OS_FLAG_SET);
      }
 840dd50:	003fe206 	br	840dcdc <__alt_data_end+0xfc40dcdc>
        /* Check whether there is space in the buffer.  If not then we must not
         * read any characters from the buffer as they will be lost.
         */
        unsigned int next = (sp->rx_in + 1) % ALTERA_AVALON_JTAG_UART_BUF_LEN;
        if (next == sp->rx_out)
          break;
 840dd54:	0001883a 	nop
 840dd58:	00000106 	br	840dd60 <altera_avalon_jtag_uart_irq+0xd8>
         * are any more characters remaining.
         */
        data = IORD_ALTERA_AVALON_JTAG_UART_DATA(base);
        
        if ((data & ALTERA_AVALON_JTAG_UART_DATA_RVALID_MSK) == 0)
          break;
 840dd5c:	0001883a 	nop

        /* Post an event to notify jtag_uart_read that a character has been read */
        ALT_FLAG_POST (sp->events, ALT_JTAG_UART_READ_RDY, OS_FLAG_SET);
      }

      if (data & ALTERA_AVALON_JTAG_UART_DATA_RAVAIL_MSK)
 840dd60:	e0bff917 	ldw	r2,-28(fp)
 840dd64:	10bfffec 	andhi	r2,r2,65535
 840dd68:	10000f26 	beq	r2,zero,840dda8 <altera_avalon_jtag_uart_irq+0x120>
      {
        /* If there is still data available here then the buffer is full 
         * so turn off receive interrupts until some space becomes available.
         */
        sp->irq_enable &= ~ALTERA_AVALON_JTAG_UART_CONTROL_RE_MSK;
 840dd6c:	e0bffb17 	ldw	r2,-20(fp)
 840dd70:	10c00817 	ldw	r3,32(r2)
 840dd74:	00bfff84 	movi	r2,-2
 840dd78:	1886703a 	and	r3,r3,r2
 840dd7c:	e0bffb17 	ldw	r2,-20(fp)
 840dd80:	10c00815 	stw	r3,32(r2)
        IOWR_ALTERA_AVALON_JTAG_UART_CONTROL(base, sp->irq_enable);
 840dd84:	e0bffc17 	ldw	r2,-16(fp)
 840dd88:	10800104 	addi	r2,r2,4
 840dd8c:	1007883a 	mov	r3,r2
 840dd90:	e0bffb17 	ldw	r2,-20(fp)
 840dd94:	10800817 	ldw	r2,32(r2)
 840dd98:	18800035 	stwio	r2,0(r3)
        
        /* Dummy read to ensure IRQ is cleared prior to ISR completion */
        IORD_ALTERA_AVALON_JTAG_UART_CONTROL(base);
 840dd9c:	e0bffc17 	ldw	r2,-16(fp)
 840dda0:	10800104 	addi	r2,r2,4
 840dda4:	10800037 	ldwio	r2,0(r2)
      }
    }

    if (control & ALTERA_AVALON_JTAG_UART_CONTROL_WI_MSK)
 840dda8:	e0bffd17 	ldw	r2,-12(fp)
 840ddac:	1080800c 	andi	r2,r2,512
 840ddb0:	103fbe26 	beq	r2,zero,840dcac <__alt_data_end+0xfc40dcac>
    {
      /* process a write irq */
      unsigned int space = (control & ALTERA_AVALON_JTAG_UART_CONTROL_WSPACE_MSK) >> ALTERA_AVALON_JTAG_UART_CONTROL_WSPACE_OFST;
 840ddb4:	e0bffd17 	ldw	r2,-12(fp)
 840ddb8:	1004d43a 	srli	r2,r2,16
 840ddbc:	e0bffa15 	stw	r2,-24(fp)

      while (space > 0 && sp->tx_out != sp->tx_in)
 840ddc0:	00001406 	br	840de14 <altera_avalon_jtag_uart_irq+0x18c>
      {
        IOWR_ALTERA_AVALON_JTAG_UART_DATA(base, sp->tx_buf[sp->tx_out]);
 840ddc4:	e0bffc17 	ldw	r2,-16(fp)
 840ddc8:	e0fffb17 	ldw	r3,-20(fp)
 840ddcc:	18c00d17 	ldw	r3,52(r3)
 840ddd0:	e13ffb17 	ldw	r4,-20(fp)
 840ddd4:	20c7883a 	add	r3,r4,r3
 840ddd8:	18c20e04 	addi	r3,r3,2104
 840dddc:	18c00003 	ldbu	r3,0(r3)
 840dde0:	18c03fcc 	andi	r3,r3,255
 840dde4:	18c0201c 	xori	r3,r3,128
 840dde8:	18ffe004 	addi	r3,r3,-128
 840ddec:	10c00035 	stwio	r3,0(r2)

        sp->tx_out = (sp->tx_out + 1) % ALTERA_AVALON_JTAG_UART_BUF_LEN;
 840ddf0:	e0bffb17 	ldw	r2,-20(fp)
 840ddf4:	10800d17 	ldw	r2,52(r2)
 840ddf8:	10800044 	addi	r2,r2,1
 840ddfc:	10c1ffcc 	andi	r3,r2,2047
 840de00:	e0bffb17 	ldw	r2,-20(fp)
 840de04:	10c00d15 	stw	r3,52(r2)

        /* Post an event to notify jtag_uart_write that a character has been written */
        ALT_FLAG_POST (sp->events, ALT_JTAG_UART_WRITE_RDY, OS_FLAG_SET);

        space--;
 840de08:	e0bffa17 	ldw	r2,-24(fp)
 840de0c:	10bfffc4 	addi	r2,r2,-1
 840de10:	e0bffa15 	stw	r2,-24(fp)
    if (control & ALTERA_AVALON_JTAG_UART_CONTROL_WI_MSK)
    {
      /* process a write irq */
      unsigned int space = (control & ALTERA_AVALON_JTAG_UART_CONTROL_WSPACE_MSK) >> ALTERA_AVALON_JTAG_UART_CONTROL_WSPACE_OFST;

      while (space > 0 && sp->tx_out != sp->tx_in)
 840de14:	e0bffa17 	ldw	r2,-24(fp)
 840de18:	10000526 	beq	r2,zero,840de30 <altera_avalon_jtag_uart_irq+0x1a8>
 840de1c:	e0bffb17 	ldw	r2,-20(fp)
 840de20:	10c00d17 	ldw	r3,52(r2)
 840de24:	e0bffb17 	ldw	r2,-20(fp)
 840de28:	10800c17 	ldw	r2,48(r2)
 840de2c:	18bfe51e 	bne	r3,r2,840ddc4 <__alt_data_end+0xfc40ddc4>
        ALT_FLAG_POST (sp->events, ALT_JTAG_UART_WRITE_RDY, OS_FLAG_SET);

        space--;
      }

      if (space > 0)
 840de30:	e0bffa17 	ldw	r2,-24(fp)
 840de34:	103f9d26 	beq	r2,zero,840dcac <__alt_data_end+0xfc40dcac>
      {
        /* If we don't have any more data available then turn off the TX interrupt */
        sp->irq_enable &= ~ALTERA_AVALON_JTAG_UART_CONTROL_WE_MSK;
 840de38:	e0bffb17 	ldw	r2,-20(fp)
 840de3c:	10c00817 	ldw	r3,32(r2)
 840de40:	00bfff44 	movi	r2,-3
 840de44:	1886703a 	and	r3,r3,r2
 840de48:	e0bffb17 	ldw	r2,-20(fp)
 840de4c:	10c00815 	stw	r3,32(r2)
        IOWR_ALTERA_AVALON_JTAG_UART_CONTROL(sp->base, sp->irq_enable);
 840de50:	e0bffb17 	ldw	r2,-20(fp)
 840de54:	10800017 	ldw	r2,0(r2)
 840de58:	10800104 	addi	r2,r2,4
 840de5c:	1007883a 	mov	r3,r2
 840de60:	e0bffb17 	ldw	r2,-20(fp)
 840de64:	10800817 	ldw	r2,32(r2)
 840de68:	18800035 	stwio	r2,0(r3)
        
        /* Dummy read to ensure IRQ is cleared prior to ISR completion */
        IORD_ALTERA_AVALON_JTAG_UART_CONTROL(base);
 840de6c:	e0bffc17 	ldw	r2,-16(fp)
 840de70:	10800104 	addi	r2,r2,4
 840de74:	10800037 	ldwio	r2,0(r2)
      }
    }
  }
 840de78:	003f8c06 	br	840dcac <__alt_data_end+0xfc40dcac>
  {
    unsigned int control = IORD_ALTERA_AVALON_JTAG_UART_CONTROL(base);

    /* Return once nothing more to do */
    if ((control & (ALTERA_AVALON_JTAG_UART_CONTROL_RI_MSK | ALTERA_AVALON_JTAG_UART_CONTROL_WI_MSK)) == 0)
      break;
 840de7c:	0001883a 	nop
        /* Dummy read to ensure IRQ is cleared prior to ISR completion */
        IORD_ALTERA_AVALON_JTAG_UART_CONTROL(base);
      }
    }
  }
}
 840de80:	0001883a 	nop
 840de84:	e037883a 	mov	sp,fp
 840de88:	df000017 	ldw	fp,0(sp)
 840de8c:	dec00104 	addi	sp,sp,4
 840de90:	f800283a 	ret

0840de94 <altera_avalon_jtag_uart_timeout>:
 * Timeout routine is called every second
 */

static alt_u32 
altera_avalon_jtag_uart_timeout(void* context) 
{
 840de94:	defff804 	addi	sp,sp,-32
 840de98:	df000715 	stw	fp,28(sp)
 840de9c:	df000704 	addi	fp,sp,28
 840dea0:	e13ffb15 	stw	r4,-20(fp)
  altera_avalon_jtag_uart_state* sp = (altera_avalon_jtag_uart_state *) context;
 840dea4:	e0bffb17 	ldw	r2,-20(fp)
 840dea8:	e0bff915 	stw	r2,-28(fp)

  unsigned int control = IORD_ALTERA_AVALON_JTAG_UART_CONTROL(sp->base);
 840deac:	e0bff917 	ldw	r2,-28(fp)
 840deb0:	10800017 	ldw	r2,0(r2)
 840deb4:	10800104 	addi	r2,r2,4
 840deb8:	10800037 	ldwio	r2,0(r2)
 840debc:	e0bffa15 	stw	r2,-24(fp)

  if (control & ALTERA_AVALON_JTAG_UART_CONTROL_AC_MSK)
 840dec0:	e0bffa17 	ldw	r2,-24(fp)
 840dec4:	1081000c 	andi	r2,r2,1024
 840dec8:	10000b26 	beq	r2,zero,840def8 <altera_avalon_jtag_uart_timeout+0x64>
  {
    IOWR_ALTERA_AVALON_JTAG_UART_CONTROL(sp->base, sp->irq_enable | ALTERA_AVALON_JTAG_UART_CONTROL_AC_MSK);
 840decc:	e0bff917 	ldw	r2,-28(fp)
 840ded0:	10800017 	ldw	r2,0(r2)
 840ded4:	10800104 	addi	r2,r2,4
 840ded8:	1007883a 	mov	r3,r2
 840dedc:	e0bff917 	ldw	r2,-28(fp)
 840dee0:	10800817 	ldw	r2,32(r2)
 840dee4:	10810014 	ori	r2,r2,1024
 840dee8:	18800035 	stwio	r2,0(r3)
    sp->host_inactive = 0;
 840deec:	e0bff917 	ldw	r2,-28(fp)
 840def0:	10000915 	stw	zero,36(r2)
 840def4:	00000a06 	br	840df20 <altera_avalon_jtag_uart_timeout+0x8c>
  }
  else if (sp->host_inactive < INT_MAX - 2) {
 840def8:	e0bff917 	ldw	r2,-28(fp)
 840defc:	10c00917 	ldw	r3,36(r2)
 840df00:	00a00034 	movhi	r2,32768
 840df04:	10bfff04 	addi	r2,r2,-4
 840df08:	10c00536 	bltu	r2,r3,840df20 <altera_avalon_jtag_uart_timeout+0x8c>
    sp->host_inactive++;
 840df0c:	e0bff917 	ldw	r2,-28(fp)
 840df10:	10800917 	ldw	r2,36(r2)
 840df14:	10c00044 	addi	r3,r2,1
 840df18:	e0bff917 	ldw	r2,-28(fp)
 840df1c:	10c00915 	stw	r3,36(r2)
 840df20:	d0ac9717 	ldw	r2,-19876(gp)
      ALT_FLAG_POST (sp->events, ALT_JTAG_UART_TIMEOUT, OS_FLAG_SET);
    }
  }

  return alt_ticks_per_second();
}
 840df24:	e037883a 	mov	sp,fp
 840df28:	df000017 	ldw	fp,0(sp)
 840df2c:	dec00104 	addi	sp,sp,4
 840df30:	f800283a 	ret

0840df34 <altera_avalon_jtag_uart_close>:
 * The close routine is not implemented for the small driver; instead it will
 * map to null. This is because the small driver simply waits while characters
 * are transmitted; there is no interrupt-serviced buffer to empty 
 */
int altera_avalon_jtag_uart_close(altera_avalon_jtag_uart_state* sp, int flags)
{
 840df34:	defffd04 	addi	sp,sp,-12
 840df38:	df000215 	stw	fp,8(sp)
 840df3c:	df000204 	addi	fp,sp,8
 840df40:	e13ffe15 	stw	r4,-8(fp)
 840df44:	e17fff15 	stw	r5,-4(fp)
  /* 
   * Wait for all transmit data to be emptied by the JTAG UART ISR, or
   * for a host-inactivity timeout, in which case transmit data will be lost
   */
  while ( (sp->tx_out != sp->tx_in) && (sp->host_inactive < sp->timeout) ) {
 840df48:	00000506 	br	840df60 <altera_avalon_jtag_uart_close+0x2c>
    if (flags & O_NONBLOCK) {
 840df4c:	e0bfff17 	ldw	r2,-4(fp)
 840df50:	1090000c 	andi	r2,r2,16384
 840df54:	10000226 	beq	r2,zero,840df60 <altera_avalon_jtag_uart_close+0x2c>
      return -EWOULDBLOCK; 
 840df58:	00bffd44 	movi	r2,-11
 840df5c:	00000b06 	br	840df8c <altera_avalon_jtag_uart_close+0x58>
{
  /* 
   * Wait for all transmit data to be emptied by the JTAG UART ISR, or
   * for a host-inactivity timeout, in which case transmit data will be lost
   */
  while ( (sp->tx_out != sp->tx_in) && (sp->host_inactive < sp->timeout) ) {
 840df60:	e0bffe17 	ldw	r2,-8(fp)
 840df64:	10c00d17 	ldw	r3,52(r2)
 840df68:	e0bffe17 	ldw	r2,-8(fp)
 840df6c:	10800c17 	ldw	r2,48(r2)
 840df70:	18800526 	beq	r3,r2,840df88 <altera_avalon_jtag_uart_close+0x54>
 840df74:	e0bffe17 	ldw	r2,-8(fp)
 840df78:	10c00917 	ldw	r3,36(r2)
 840df7c:	e0bffe17 	ldw	r2,-8(fp)
 840df80:	10800117 	ldw	r2,4(r2)
 840df84:	18bff136 	bltu	r3,r2,840df4c <__alt_data_end+0xfc40df4c>
    if (flags & O_NONBLOCK) {
      return -EWOULDBLOCK; 
    }
  }

  return 0;
 840df88:	0005883a 	mov	r2,zero
}
 840df8c:	e037883a 	mov	sp,fp
 840df90:	df000017 	ldw	fp,0(sp)
 840df94:	dec00104 	addi	sp,sp,4
 840df98:	f800283a 	ret

0840df9c <altera_avalon_jtag_uart_ioctl>:
/* ----------------------------------------------------------- */

int 
altera_avalon_jtag_uart_ioctl(altera_avalon_jtag_uart_state* sp, int req,
  void* arg)
{
 840df9c:	defffa04 	addi	sp,sp,-24
 840dfa0:	df000515 	stw	fp,20(sp)
 840dfa4:	df000504 	addi	fp,sp,20
 840dfa8:	e13ffd15 	stw	r4,-12(fp)
 840dfac:	e17ffe15 	stw	r5,-8(fp)
 840dfb0:	e1bfff15 	stw	r6,-4(fp)
  int rc = -ENOTTY;
 840dfb4:	00bff9c4 	movi	r2,-25
 840dfb8:	e0bffb15 	stw	r2,-20(fp)

  switch (req)
 840dfbc:	e0bffe17 	ldw	r2,-8(fp)
 840dfc0:	10da8060 	cmpeqi	r3,r2,27137
 840dfc4:	1800031e 	bne	r3,zero,840dfd4 <altera_avalon_jtag_uart_ioctl+0x38>
 840dfc8:	109a80a0 	cmpeqi	r2,r2,27138
 840dfcc:	1000181e 	bne	r2,zero,840e030 <altera_avalon_jtag_uart_ioctl+0x94>
      rc = 0;
    }
    break;

  default:
    break;
 840dfd0:	00002906 	br	840e078 <altera_avalon_jtag_uart_ioctl+0xdc>

  switch (req)
  {
  case TIOCSTIMEOUT:
    /* Set the time to wait until assuming host is not connected */
    if (sp->timeout != INT_MAX)
 840dfd4:	e0bffd17 	ldw	r2,-12(fp)
 840dfd8:	10c00117 	ldw	r3,4(r2)
 840dfdc:	00a00034 	movhi	r2,32768
 840dfe0:	10bfffc4 	addi	r2,r2,-1
 840dfe4:	18802126 	beq	r3,r2,840e06c <altera_avalon_jtag_uart_ioctl+0xd0>
    {
      int timeout = *((int *)arg);
 840dfe8:	e0bfff17 	ldw	r2,-4(fp)
 840dfec:	10800017 	ldw	r2,0(r2)
 840dff0:	e0bffc15 	stw	r2,-16(fp)
      sp->timeout = (timeout >= 2 && timeout < INT_MAX) ? timeout : INT_MAX - 1;
 840dff4:	e0bffc17 	ldw	r2,-16(fp)
 840dff8:	10800090 	cmplti	r2,r2,2
 840dffc:	1000061e 	bne	r2,zero,840e018 <altera_avalon_jtag_uart_ioctl+0x7c>
 840e000:	e0fffc17 	ldw	r3,-16(fp)
 840e004:	00a00034 	movhi	r2,32768
 840e008:	10bfffc4 	addi	r2,r2,-1
 840e00c:	18800226 	beq	r3,r2,840e018 <altera_avalon_jtag_uart_ioctl+0x7c>
 840e010:	e0bffc17 	ldw	r2,-16(fp)
 840e014:	00000206 	br	840e020 <altera_avalon_jtag_uart_ioctl+0x84>
 840e018:	00a00034 	movhi	r2,32768
 840e01c:	10bfff84 	addi	r2,r2,-2
 840e020:	e0fffd17 	ldw	r3,-12(fp)
 840e024:	18800115 	stw	r2,4(r3)
      rc = 0;
 840e028:	e03ffb15 	stw	zero,-20(fp)
    }
    break;
 840e02c:	00000f06 	br	840e06c <altera_avalon_jtag_uart_ioctl+0xd0>

  case TIOCGCONNECTED:
    /* Find out whether host is connected */
    if (sp->timeout != INT_MAX)
 840e030:	e0bffd17 	ldw	r2,-12(fp)
 840e034:	10c00117 	ldw	r3,4(r2)
 840e038:	00a00034 	movhi	r2,32768
 840e03c:	10bfffc4 	addi	r2,r2,-1
 840e040:	18800c26 	beq	r3,r2,840e074 <altera_avalon_jtag_uart_ioctl+0xd8>
    {
      *((int *)arg) = (sp->host_inactive < sp->timeout) ? 1 : 0;
 840e044:	e0bffd17 	ldw	r2,-12(fp)
 840e048:	10c00917 	ldw	r3,36(r2)
 840e04c:	e0bffd17 	ldw	r2,-12(fp)
 840e050:	10800117 	ldw	r2,4(r2)
 840e054:	1885803a 	cmpltu	r2,r3,r2
 840e058:	10c03fcc 	andi	r3,r2,255
 840e05c:	e0bfff17 	ldw	r2,-4(fp)
 840e060:	10c00015 	stw	r3,0(r2)
      rc = 0;
 840e064:	e03ffb15 	stw	zero,-20(fp)
    }
    break;
 840e068:	00000206 	br	840e074 <altera_avalon_jtag_uart_ioctl+0xd8>
    {
      int timeout = *((int *)arg);
      sp->timeout = (timeout >= 2 && timeout < INT_MAX) ? timeout : INT_MAX - 1;
      rc = 0;
    }
    break;
 840e06c:	0001883a 	nop
 840e070:	00000106 	br	840e078 <altera_avalon_jtag_uart_ioctl+0xdc>
    if (sp->timeout != INT_MAX)
    {
      *((int *)arg) = (sp->host_inactive < sp->timeout) ? 1 : 0;
      rc = 0;
    }
    break;
 840e074:	0001883a 	nop

  default:
    break;
  }

  return rc;
 840e078:	e0bffb17 	ldw	r2,-20(fp)
}
 840e07c:	e037883a 	mov	sp,fp
 840e080:	df000017 	ldw	fp,0(sp)
 840e084:	dec00104 	addi	sp,sp,4
 840e088:	f800283a 	ret

0840e08c <altera_avalon_jtag_uart_read>:
/* ----------------------------------------------------------- */

int 
altera_avalon_jtag_uart_read(altera_avalon_jtag_uart_state* sp, 
  char * buffer, int space, int flags)
{
 840e08c:	defff304 	addi	sp,sp,-52
 840e090:	dfc00c15 	stw	ra,48(sp)
 840e094:	df000b15 	stw	fp,44(sp)
 840e098:	df000b04 	addi	fp,sp,44
 840e09c:	e13ffc15 	stw	r4,-16(fp)
 840e0a0:	e17ffd15 	stw	r5,-12(fp)
 840e0a4:	e1bffe15 	stw	r6,-8(fp)
 840e0a8:	e1ffff15 	stw	r7,-4(fp)
  char * ptr = buffer;
 840e0ac:	e0bffd17 	ldw	r2,-12(fp)
 840e0b0:	e0bff515 	stw	r2,-44(fp)
   * When running in a multi threaded environment, obtain the "read_lock"
   * semaphore. This ensures that reading from the device is thread-safe.
   */
  ALT_SEM_PEND (sp->read_lock, 0);

  while (space > 0)
 840e0b4:	00004706 	br	840e1d4 <altera_avalon_jtag_uart_read+0x148>
    unsigned int in, out;

    /* Read as much data as possible */
    do
    {
      in  = sp->rx_in;
 840e0b8:	e0bffc17 	ldw	r2,-16(fp)
 840e0bc:	10800a17 	ldw	r2,40(r2)
 840e0c0:	e0bff715 	stw	r2,-36(fp)
      out = sp->rx_out;
 840e0c4:	e0bffc17 	ldw	r2,-16(fp)
 840e0c8:	10800b17 	ldw	r2,44(r2)
 840e0cc:	e0bff815 	stw	r2,-32(fp)

      if (in >= out)
 840e0d0:	e0fff717 	ldw	r3,-36(fp)
 840e0d4:	e0bff817 	ldw	r2,-32(fp)
 840e0d8:	18800536 	bltu	r3,r2,840e0f0 <altera_avalon_jtag_uart_read+0x64>
        n = in - out;
 840e0dc:	e0fff717 	ldw	r3,-36(fp)
 840e0e0:	e0bff817 	ldw	r2,-32(fp)
 840e0e4:	1885c83a 	sub	r2,r3,r2
 840e0e8:	e0bff615 	stw	r2,-40(fp)
 840e0ec:	00000406 	br	840e100 <altera_avalon_jtag_uart_read+0x74>
      else
        n = ALTERA_AVALON_JTAG_UART_BUF_LEN - out;
 840e0f0:	00c20004 	movi	r3,2048
 840e0f4:	e0bff817 	ldw	r2,-32(fp)
 840e0f8:	1885c83a 	sub	r2,r3,r2
 840e0fc:	e0bff615 	stw	r2,-40(fp)

      if (n == 0)
 840e100:	e0bff617 	ldw	r2,-40(fp)
 840e104:	10001e26 	beq	r2,zero,840e180 <altera_avalon_jtag_uart_read+0xf4>
        break; /* No more data available */

      if (n > space)
 840e108:	e0fffe17 	ldw	r3,-8(fp)
 840e10c:	e0bff617 	ldw	r2,-40(fp)
 840e110:	1880022e 	bgeu	r3,r2,840e11c <altera_avalon_jtag_uart_read+0x90>
        n = space;
 840e114:	e0bffe17 	ldw	r2,-8(fp)
 840e118:	e0bff615 	stw	r2,-40(fp)

      memcpy(ptr, sp->rx_buf + out, n);
 840e11c:	e0bffc17 	ldw	r2,-16(fp)
 840e120:	10c00e04 	addi	r3,r2,56
 840e124:	e0bff817 	ldw	r2,-32(fp)
 840e128:	1885883a 	add	r2,r3,r2
 840e12c:	e1bff617 	ldw	r6,-40(fp)
 840e130:	100b883a 	mov	r5,r2
 840e134:	e13ff517 	ldw	r4,-44(fp)
 840e138:	8409edc0 	call	8409edc <memcpy>
      ptr   += n;
 840e13c:	e0fff517 	ldw	r3,-44(fp)
 840e140:	e0bff617 	ldw	r2,-40(fp)
 840e144:	1885883a 	add	r2,r3,r2
 840e148:	e0bff515 	stw	r2,-44(fp)
      space -= n;
 840e14c:	e0fffe17 	ldw	r3,-8(fp)
 840e150:	e0bff617 	ldw	r2,-40(fp)
 840e154:	1885c83a 	sub	r2,r3,r2
 840e158:	e0bffe15 	stw	r2,-8(fp)

      sp->rx_out = (out + n) % ALTERA_AVALON_JTAG_UART_BUF_LEN;
 840e15c:	e0fff817 	ldw	r3,-32(fp)
 840e160:	e0bff617 	ldw	r2,-40(fp)
 840e164:	1885883a 	add	r2,r3,r2
 840e168:	10c1ffcc 	andi	r3,r2,2047
 840e16c:	e0bffc17 	ldw	r2,-16(fp)
 840e170:	10c00b15 	stw	r3,44(r2)
    }
    while (space > 0);
 840e174:	e0bffe17 	ldw	r2,-8(fp)
 840e178:	00bfcf16 	blt	zero,r2,840e0b8 <__alt_data_end+0xfc40e0b8>
 840e17c:	00000106 	br	840e184 <altera_avalon_jtag_uart_read+0xf8>
        n = in - out;
      else
        n = ALTERA_AVALON_JTAG_UART_BUF_LEN - out;

      if (n == 0)
        break; /* No more data available */
 840e180:	0001883a 	nop
      sp->rx_out = (out + n) % ALTERA_AVALON_JTAG_UART_BUF_LEN;
    }
    while (space > 0);

    /* If we read any data then return it */
    if (ptr != buffer)
 840e184:	e0fff517 	ldw	r3,-44(fp)
 840e188:	e0bffd17 	ldw	r2,-12(fp)
 840e18c:	1880141e 	bne	r3,r2,840e1e0 <altera_avalon_jtag_uart_read+0x154>
      break;

    /* If in non-blocking mode then return error */
    if (flags & O_NONBLOCK)
 840e190:	e0bfff17 	ldw	r2,-4(fp)
 840e194:	1090000c 	andi	r2,r2,16384
 840e198:	1000131e 	bne	r2,zero,840e1e8 <altera_avalon_jtag_uart_read+0x15c>
      while (in == sp->rx_in && sp->host_inactive < sp->timeout)
        ;
    }
#else
    /* No OS: Always spin */
    while (in == sp->rx_in && sp->host_inactive < sp->timeout)
 840e19c:	0001883a 	nop
 840e1a0:	e0bffc17 	ldw	r2,-16(fp)
 840e1a4:	10c00a17 	ldw	r3,40(r2)
 840e1a8:	e0bff717 	ldw	r2,-36(fp)
 840e1ac:	1880051e 	bne	r3,r2,840e1c4 <altera_avalon_jtag_uart_read+0x138>
 840e1b0:	e0bffc17 	ldw	r2,-16(fp)
 840e1b4:	10c00917 	ldw	r3,36(r2)
 840e1b8:	e0bffc17 	ldw	r2,-16(fp)
 840e1bc:	10800117 	ldw	r2,4(r2)
 840e1c0:	18bff736 	bltu	r3,r2,840e1a0 <__alt_data_end+0xfc40e1a0>
      ;
#endif /* __ucosii__ */

    if (in == sp->rx_in)
 840e1c4:	e0bffc17 	ldw	r2,-16(fp)
 840e1c8:	10c00a17 	ldw	r3,40(r2)
 840e1cc:	e0bff717 	ldw	r2,-36(fp)
 840e1d0:	18800726 	beq	r3,r2,840e1f0 <altera_avalon_jtag_uart_read+0x164>
   * When running in a multi threaded environment, obtain the "read_lock"
   * semaphore. This ensures that reading from the device is thread-safe.
   */
  ALT_SEM_PEND (sp->read_lock, 0);

  while (space > 0)
 840e1d4:	e0bffe17 	ldw	r2,-8(fp)
 840e1d8:	00bfb716 	blt	zero,r2,840e0b8 <__alt_data_end+0xfc40e0b8>
 840e1dc:	00000506 	br	840e1f4 <altera_avalon_jtag_uart_read+0x168>
    }
    while (space > 0);

    /* If we read any data then return it */
    if (ptr != buffer)
      break;
 840e1e0:	0001883a 	nop
 840e1e4:	00000306 	br	840e1f4 <altera_avalon_jtag_uart_read+0x168>

    /* If in non-blocking mode then return error */
    if (flags & O_NONBLOCK)
      break;
 840e1e8:	0001883a 	nop
 840e1ec:	00000106 	br	840e1f4 <altera_avalon_jtag_uart_read+0x168>
    while (in == sp->rx_in && sp->host_inactive < sp->timeout)
      ;
#endif /* __ucosii__ */

    if (in == sp->rx_in)
      break;
 840e1f0:	0001883a 	nop
   * semaphore so that other threads can access the buffer.
   */

  ALT_SEM_POST (sp->read_lock);

  if (ptr != buffer)
 840e1f4:	e0fff517 	ldw	r3,-44(fp)
 840e1f8:	e0bffd17 	ldw	r2,-12(fp)
 840e1fc:	18801826 	beq	r3,r2,840e260 <altera_avalon_jtag_uart_read+0x1d4>
static ALT_INLINE alt_irq_context ALT_ALWAYS_INLINE 
       alt_irq_disable_all (void)
{
  alt_irq_context context;

  NIOS2_READ_STATUS (context);
 840e200:	0005303a 	rdctl	r2,status
 840e204:	e0bffb15 	stw	r2,-20(fp)

  NIOS2_WRITE_STATUS (context & ~NIOS2_STATUS_PIE_MSK);
 840e208:	e0fffb17 	ldw	r3,-20(fp)
 840e20c:	00bfff84 	movi	r2,-2
 840e210:	1884703a 	and	r2,r3,r2
 840e214:	1001703a 	wrctl	status,r2
  
  return context;
 840e218:	e0bffb17 	ldw	r2,-20(fp)
  {
    /* If we read any data then there is space in the buffer so enable interrupts */
    context = alt_irq_disable_all();
 840e21c:	e0bffa15 	stw	r2,-24(fp)
    sp->irq_enable |= ALTERA_AVALON_JTAG_UART_CONTROL_RE_MSK;
 840e220:	e0bffc17 	ldw	r2,-16(fp)
 840e224:	10800817 	ldw	r2,32(r2)
 840e228:	10c00054 	ori	r3,r2,1
 840e22c:	e0bffc17 	ldw	r2,-16(fp)
 840e230:	10c00815 	stw	r3,32(r2)
    IOWR_ALTERA_AVALON_JTAG_UART_CONTROL(sp->base, sp->irq_enable);
 840e234:	e0bffc17 	ldw	r2,-16(fp)
 840e238:	10800017 	ldw	r2,0(r2)
 840e23c:	10800104 	addi	r2,r2,4
 840e240:	1007883a 	mov	r3,r2
 840e244:	e0bffc17 	ldw	r2,-16(fp)
 840e248:	10800817 	ldw	r2,32(r2)
 840e24c:	18800035 	stwio	r2,0(r3)
 840e250:	e0bffa17 	ldw	r2,-24(fp)
 840e254:	e0bff915 	stw	r2,-28(fp)
  status &= ~NIOS2_STATUS_PIE_MSK;
  status |= (context & NIOS2_STATUS_PIE_MSK);
  
  NIOS2_WRITE_STATUS (status);
#else
  NIOS2_WRITE_STATUS (context);
 840e258:	e0bff917 	ldw	r2,-28(fp)
 840e25c:	1001703a 	wrctl	status,r2
    alt_irq_enable_all(context);
  }

  if (ptr != buffer)
 840e260:	e0fff517 	ldw	r3,-44(fp)
 840e264:	e0bffd17 	ldw	r2,-12(fp)
 840e268:	18800426 	beq	r3,r2,840e27c <altera_avalon_jtag_uart_read+0x1f0>
    return ptr - buffer;
 840e26c:	e0fff517 	ldw	r3,-44(fp)
 840e270:	e0bffd17 	ldw	r2,-12(fp)
 840e274:	1885c83a 	sub	r2,r3,r2
 840e278:	00000606 	br	840e294 <altera_avalon_jtag_uart_read+0x208>
  else if (flags & O_NONBLOCK)
 840e27c:	e0bfff17 	ldw	r2,-4(fp)
 840e280:	1090000c 	andi	r2,r2,16384
 840e284:	10000226 	beq	r2,zero,840e290 <altera_avalon_jtag_uart_read+0x204>
    return -EWOULDBLOCK;
 840e288:	00bffd44 	movi	r2,-11
 840e28c:	00000106 	br	840e294 <altera_avalon_jtag_uart_read+0x208>
  else
    return -EIO;
 840e290:	00bffec4 	movi	r2,-5
}
 840e294:	e037883a 	mov	sp,fp
 840e298:	dfc00117 	ldw	ra,4(sp)
 840e29c:	df000017 	ldw	fp,0(sp)
 840e2a0:	dec00204 	addi	sp,sp,8
 840e2a4:	f800283a 	ret

0840e2a8 <altera_avalon_jtag_uart_write>:
/* ----------------------------------------------------------- */

int 
altera_avalon_jtag_uart_write(altera_avalon_jtag_uart_state* sp, 
  const char * ptr, int count, int flags)
{
 840e2a8:	defff304 	addi	sp,sp,-52
 840e2ac:	dfc00c15 	stw	ra,48(sp)
 840e2b0:	df000b15 	stw	fp,44(sp)
 840e2b4:	df000b04 	addi	fp,sp,44
 840e2b8:	e13ffc15 	stw	r4,-16(fp)
 840e2bc:	e17ffd15 	stw	r5,-12(fp)
 840e2c0:	e1bffe15 	stw	r6,-8(fp)
 840e2c4:	e1ffff15 	stw	r7,-4(fp)
  /* Remove warning at optimisation level 03 by seting out to 0 */
  unsigned int in, out=0;
 840e2c8:	e03ff515 	stw	zero,-44(fp)
  unsigned int n;
  alt_irq_context context;

  const char * start = ptr;
 840e2cc:	e0bffd17 	ldw	r2,-12(fp)
 840e2d0:	e0bff715 	stw	r2,-36(fp)
  ALT_SEM_PEND (sp->write_lock, 0);

  do
  {
    /* Copy as much as we can into the transmit buffer */
    while (count > 0)
 840e2d4:	00003706 	br	840e3b4 <altera_avalon_jtag_uart_write+0x10c>
    {
      /* We need a stable value of the out pointer to calculate the space available */
      in  = sp->tx_in;
 840e2d8:	e0bffc17 	ldw	r2,-16(fp)
 840e2dc:	10800c17 	ldw	r2,48(r2)
 840e2e0:	e0bff915 	stw	r2,-28(fp)
      out = sp->tx_out;
 840e2e4:	e0bffc17 	ldw	r2,-16(fp)
 840e2e8:	10800d17 	ldw	r2,52(r2)
 840e2ec:	e0bff515 	stw	r2,-44(fp)

      if (in < out)
 840e2f0:	e0fff917 	ldw	r3,-28(fp)
 840e2f4:	e0bff517 	ldw	r2,-44(fp)
 840e2f8:	1880062e 	bgeu	r3,r2,840e314 <altera_avalon_jtag_uart_write+0x6c>
        n = out - 1 - in;
 840e2fc:	e0fff517 	ldw	r3,-44(fp)
 840e300:	e0bff917 	ldw	r2,-28(fp)
 840e304:	1885c83a 	sub	r2,r3,r2
 840e308:	10bfffc4 	addi	r2,r2,-1
 840e30c:	e0bff615 	stw	r2,-40(fp)
 840e310:	00000b06 	br	840e340 <altera_avalon_jtag_uart_write+0x98>
      else if (out > 0)
 840e314:	e0bff517 	ldw	r2,-44(fp)
 840e318:	10000526 	beq	r2,zero,840e330 <altera_avalon_jtag_uart_write+0x88>
        n = ALTERA_AVALON_JTAG_UART_BUF_LEN - in;
 840e31c:	00c20004 	movi	r3,2048
 840e320:	e0bff917 	ldw	r2,-28(fp)
 840e324:	1885c83a 	sub	r2,r3,r2
 840e328:	e0bff615 	stw	r2,-40(fp)
 840e32c:	00000406 	br	840e340 <altera_avalon_jtag_uart_write+0x98>
      else
        n = ALTERA_AVALON_JTAG_UART_BUF_LEN - 1 - in;
 840e330:	00c1ffc4 	movi	r3,2047
 840e334:	e0bff917 	ldw	r2,-28(fp)
 840e338:	1885c83a 	sub	r2,r3,r2
 840e33c:	e0bff615 	stw	r2,-40(fp)

      if (n == 0)
 840e340:	e0bff617 	ldw	r2,-40(fp)
 840e344:	10001e26 	beq	r2,zero,840e3c0 <altera_avalon_jtag_uart_write+0x118>
        break;

      if (n > count)
 840e348:	e0fffe17 	ldw	r3,-8(fp)
 840e34c:	e0bff617 	ldw	r2,-40(fp)
 840e350:	1880022e 	bgeu	r3,r2,840e35c <altera_avalon_jtag_uart_write+0xb4>
        n = count;
 840e354:	e0bffe17 	ldw	r2,-8(fp)
 840e358:	e0bff615 	stw	r2,-40(fp)

      memcpy(sp->tx_buf + in, ptr, n);
 840e35c:	e0bffc17 	ldw	r2,-16(fp)
 840e360:	10c20e04 	addi	r3,r2,2104
 840e364:	e0bff917 	ldw	r2,-28(fp)
 840e368:	1885883a 	add	r2,r3,r2
 840e36c:	e1bff617 	ldw	r6,-40(fp)
 840e370:	e17ffd17 	ldw	r5,-12(fp)
 840e374:	1009883a 	mov	r4,r2
 840e378:	8409edc0 	call	8409edc <memcpy>
      ptr   += n;
 840e37c:	e0fffd17 	ldw	r3,-12(fp)
 840e380:	e0bff617 	ldw	r2,-40(fp)
 840e384:	1885883a 	add	r2,r3,r2
 840e388:	e0bffd15 	stw	r2,-12(fp)
      count -= n;
 840e38c:	e0fffe17 	ldw	r3,-8(fp)
 840e390:	e0bff617 	ldw	r2,-40(fp)
 840e394:	1885c83a 	sub	r2,r3,r2
 840e398:	e0bffe15 	stw	r2,-8(fp)

      sp->tx_in = (in + n) % ALTERA_AVALON_JTAG_UART_BUF_LEN;
 840e39c:	e0fff917 	ldw	r3,-28(fp)
 840e3a0:	e0bff617 	ldw	r2,-40(fp)
 840e3a4:	1885883a 	add	r2,r3,r2
 840e3a8:	10c1ffcc 	andi	r3,r2,2047
 840e3ac:	e0bffc17 	ldw	r2,-16(fp)
 840e3b0:	10c00c15 	stw	r3,48(r2)
  ALT_SEM_PEND (sp->write_lock, 0);

  do
  {
    /* Copy as much as we can into the transmit buffer */
    while (count > 0)
 840e3b4:	e0bffe17 	ldw	r2,-8(fp)
 840e3b8:	00bfc716 	blt	zero,r2,840e2d8 <__alt_data_end+0xfc40e2d8>
 840e3bc:	00000106 	br	840e3c4 <altera_avalon_jtag_uart_write+0x11c>
        n = ALTERA_AVALON_JTAG_UART_BUF_LEN - in;
      else
        n = ALTERA_AVALON_JTAG_UART_BUF_LEN - 1 - in;

      if (n == 0)
        break;
 840e3c0:	0001883a 	nop
static ALT_INLINE alt_irq_context ALT_ALWAYS_INLINE 
       alt_irq_disable_all (void)
{
  alt_irq_context context;

  NIOS2_READ_STATUS (context);
 840e3c4:	0005303a 	rdctl	r2,status
 840e3c8:	e0bffb15 	stw	r2,-20(fp)

  NIOS2_WRITE_STATUS (context & ~NIOS2_STATUS_PIE_MSK);
 840e3cc:	e0fffb17 	ldw	r3,-20(fp)
 840e3d0:	00bfff84 	movi	r2,-2
 840e3d4:	1884703a 	and	r2,r3,r2
 840e3d8:	1001703a 	wrctl	status,r2
  
  return context;
 840e3dc:	e0bffb17 	ldw	r2,-20(fp)
     * to enable interrupts if there is no space left in the FIFO
     *
     * For now kick the interrupt routine every time to make it transmit 
     * the data 
     */
    context = alt_irq_disable_all();
 840e3e0:	e0bffa15 	stw	r2,-24(fp)
    sp->irq_enable |= ALTERA_AVALON_JTAG_UART_CONTROL_WE_MSK;
 840e3e4:	e0bffc17 	ldw	r2,-16(fp)
 840e3e8:	10800817 	ldw	r2,32(r2)
 840e3ec:	10c00094 	ori	r3,r2,2
 840e3f0:	e0bffc17 	ldw	r2,-16(fp)
 840e3f4:	10c00815 	stw	r3,32(r2)
    IOWR_ALTERA_AVALON_JTAG_UART_CONTROL(sp->base, sp->irq_enable);
 840e3f8:	e0bffc17 	ldw	r2,-16(fp)
 840e3fc:	10800017 	ldw	r2,0(r2)
 840e400:	10800104 	addi	r2,r2,4
 840e404:	1007883a 	mov	r3,r2
 840e408:	e0bffc17 	ldw	r2,-16(fp)
 840e40c:	10800817 	ldw	r2,32(r2)
 840e410:	18800035 	stwio	r2,0(r3)
 840e414:	e0bffa17 	ldw	r2,-24(fp)
 840e418:	e0bff815 	stw	r2,-32(fp)
  status &= ~NIOS2_STATUS_PIE_MSK;
  status |= (context & NIOS2_STATUS_PIE_MSK);
  
  NIOS2_WRITE_STATUS (status);
#else
  NIOS2_WRITE_STATUS (context);
 840e41c:	e0bff817 	ldw	r2,-32(fp)
 840e420:	1001703a 	wrctl	status,r2
    /* 
     * If there is any data left then either return now or block until 
     * some has been sent 
     */
    /* consider: test whether there is anything there while doing this and delay for at most 2s. */
    if (count > 0)
 840e424:	e0bffe17 	ldw	r2,-8(fp)
 840e428:	0080100e 	bge	zero,r2,840e46c <altera_avalon_jtag_uart_write+0x1c4>
    {
      if (flags & O_NONBLOCK)
 840e42c:	e0bfff17 	ldw	r2,-4(fp)
 840e430:	1090000c 	andi	r2,r2,16384
 840e434:	1000101e 	bne	r2,zero,840e478 <altera_avalon_jtag_uart_write+0x1d0>
      /*
       * No OS present: Always wait for data to be removed from buffer.  Once
       * the interrupt routine has removed some data then we will be able to
       * insert some more.
       */
      while (out == sp->tx_out && sp->host_inactive < sp->timeout)
 840e438:	0001883a 	nop
 840e43c:	e0bffc17 	ldw	r2,-16(fp)
 840e440:	10c00d17 	ldw	r3,52(r2)
 840e444:	e0bff517 	ldw	r2,-44(fp)
 840e448:	1880051e 	bne	r3,r2,840e460 <altera_avalon_jtag_uart_write+0x1b8>
 840e44c:	e0bffc17 	ldw	r2,-16(fp)
 840e450:	10c00917 	ldw	r3,36(r2)
 840e454:	e0bffc17 	ldw	r2,-16(fp)
 840e458:	10800117 	ldw	r2,4(r2)
 840e45c:	18bff736 	bltu	r3,r2,840e43c <__alt_data_end+0xfc40e43c>
        ;
#endif /* __ucosii__ */

      if  (sp->host_inactive)
 840e460:	e0bffc17 	ldw	r2,-16(fp)
 840e464:	10800917 	ldw	r2,36(r2)
 840e468:	1000051e 	bne	r2,zero,840e480 <altera_avalon_jtag_uart_write+0x1d8>
         break;
    }
  }
  while (count > 0);
 840e46c:	e0bffe17 	ldw	r2,-8(fp)
 840e470:	00bfd016 	blt	zero,r2,840e3b4 <__alt_data_end+0xfc40e3b4>
 840e474:	00000306 	br	840e484 <altera_avalon_jtag_uart_write+0x1dc>
     */
    /* consider: test whether there is anything there while doing this and delay for at most 2s. */
    if (count > 0)
    {
      if (flags & O_NONBLOCK)
        break;
 840e478:	0001883a 	nop
 840e47c:	00000106 	br	840e484 <altera_avalon_jtag_uart_write+0x1dc>
      while (out == sp->tx_out && sp->host_inactive < sp->timeout)
        ;
#endif /* __ucosii__ */

      if  (sp->host_inactive)
         break;
 840e480:	0001883a 	nop
   * Now that access to the circular buffer is complete, release the write
   * semaphore so that other threads can access the buffer.
   */
  ALT_SEM_POST (sp->write_lock);

  if (ptr != start)
 840e484:	e0fffd17 	ldw	r3,-12(fp)
 840e488:	e0bff717 	ldw	r2,-36(fp)
 840e48c:	18800426 	beq	r3,r2,840e4a0 <altera_avalon_jtag_uart_write+0x1f8>
    return ptr - start;
 840e490:	e0fffd17 	ldw	r3,-12(fp)
 840e494:	e0bff717 	ldw	r2,-36(fp)
 840e498:	1885c83a 	sub	r2,r3,r2
 840e49c:	00000606 	br	840e4b8 <altera_avalon_jtag_uart_write+0x210>
  else if (flags & O_NONBLOCK)
 840e4a0:	e0bfff17 	ldw	r2,-4(fp)
 840e4a4:	1090000c 	andi	r2,r2,16384
 840e4a8:	10000226 	beq	r2,zero,840e4b4 <altera_avalon_jtag_uart_write+0x20c>
    return -EWOULDBLOCK;
 840e4ac:	00bffd44 	movi	r2,-11
 840e4b0:	00000106 	br	840e4b8 <altera_avalon_jtag_uart_write+0x210>
    sp->tx_out = sp->tx_in = 0;
    return ptr - start + count;
  }
#endif
  else
    return -EIO; /* Host not connected */
 840e4b4:	00bffec4 	movi	r2,-5
}
 840e4b8:	e037883a 	mov	sp,fp
 840e4bc:	dfc00117 	ldw	ra,4(sp)
 840e4c0:	df000017 	ldw	fp,0(sp)
 840e4c4:	dec00204 	addi	sp,sp,8
 840e4c8:	f800283a 	ret

0840e4cc <alt_avalon_spi_command>:

int alt_avalon_spi_command(alt_u32 base, alt_u32 slave,
                           alt_u32 write_length, const alt_u8 * write_data,
                           alt_u32 read_length, alt_u8 * read_data,
                           alt_u32 flags)
{
 840e4cc:	defff404 	addi	sp,sp,-48
 840e4d0:	df000b15 	stw	fp,44(sp)
 840e4d4:	df000b04 	addi	fp,sp,44
 840e4d8:	e13ffc15 	stw	r4,-16(fp)
 840e4dc:	e17ffd15 	stw	r5,-12(fp)
 840e4e0:	e1bffe15 	stw	r6,-8(fp)
 840e4e4:	e1ffff15 	stw	r7,-4(fp)
  const alt_u8 * write_end = write_data + write_length;
 840e4e8:	e0ffff17 	ldw	r3,-4(fp)
 840e4ec:	e0bffe17 	ldw	r2,-8(fp)
 840e4f0:	1885883a 	add	r2,r3,r2
 840e4f4:	e0bff815 	stw	r2,-32(fp)
  alt_u8 * read_end = read_data + read_length;
 840e4f8:	e0c00217 	ldw	r3,8(fp)
 840e4fc:	e0800117 	ldw	r2,4(fp)
 840e500:	1885883a 	add	r2,r3,r2
 840e504:	e0bff915 	stw	r2,-28(fp)

  alt_u32 write_zeros = read_length;
 840e508:	e0800117 	ldw	r2,4(fp)
 840e50c:	e0bff515 	stw	r2,-44(fp)
  alt_u32 read_ignore = write_length;
 840e510:	e0bffe17 	ldw	r2,-8(fp)
 840e514:	e0bff615 	stw	r2,-40(fp)

  /* We must not send more than two bytes to the target before it has
   * returned any as otherwise it will overflow. */
  /* Unfortunately the hardware does not seem to work with credits > 1,
   * leave it at 1 for now. */
  alt_32 credits = 1;
 840e518:	00800044 	movi	r2,1
 840e51c:	e0bff715 	stw	r2,-36(fp)
  /* Warning: this function is not currently safe if called in a multi-threaded
   * environment, something above must perform locking to make it safe if more
   * than one thread intends to use it.
   */

  IOWR_ALTERA_AVALON_SPI_SLAVE_SEL(base, 1 << slave);
 840e520:	e0bffc17 	ldw	r2,-16(fp)
 840e524:	10800504 	addi	r2,r2,20
 840e528:	1009883a 	mov	r4,r2
 840e52c:	00c00044 	movi	r3,1
 840e530:	e0bffd17 	ldw	r2,-12(fp)
 840e534:	1884983a 	sll	r2,r3,r2
 840e538:	20800035 	stwio	r2,0(r4)
  
  /* Set the SSO bit (force chipselect) only if the toggle flag is not set */
  if ((flags & ALT_AVALON_SPI_COMMAND_TOGGLE_SS_N) == 0) {
 840e53c:	e0800317 	ldw	r2,12(fp)
 840e540:	1080008c 	andi	r2,r2,2
 840e544:	1000051e 	bne	r2,zero,840e55c <alt_avalon_spi_command+0x90>
    IOWR_ALTERA_AVALON_SPI_CONTROL(base, ALTERA_AVALON_SPI_CONTROL_SSO_MSK);
 840e548:	e0bffc17 	ldw	r2,-16(fp)
 840e54c:	10800304 	addi	r2,r2,12
 840e550:	1007883a 	mov	r3,r2
 840e554:	00810004 	movi	r2,1024
 840e558:	18800035 	stwio	r2,0(r3)
  /*
   * Discard any stale data present in the RXDATA register, in case
   * previous communication was interrupted and stale data was left
   * behind.
   */
  IORD_ALTERA_AVALON_SPI_RXDATA(base);
 840e55c:	e0bffc17 	ldw	r2,-16(fp)
 840e560:	10800037 	ldwio	r2,0(r2)
  for ( ; ; )
  {
    
    do
    {
      status = IORD_ALTERA_AVALON_SPI_STATUS(base);
 840e564:	e0bffc17 	ldw	r2,-16(fp)
 840e568:	10800204 	addi	r2,r2,8
 840e56c:	10800037 	ldwio	r2,0(r2)
 840e570:	e0bffa15 	stw	r2,-24(fp)
    }
    while (((status & ALTERA_AVALON_SPI_STATUS_TRDY_MSK) == 0 || credits == 0) &&
 840e574:	e0bffa17 	ldw	r2,-24(fp)
 840e578:	1080100c 	andi	r2,r2,64
            (status & ALTERA_AVALON_SPI_STATUS_RRDY_MSK) == 0);
 840e57c:	10000226 	beq	r2,zero,840e588 <alt_avalon_spi_command+0xbc>
    
    do
    {
      status = IORD_ALTERA_AVALON_SPI_STATUS(base);
    }
    while (((status & ALTERA_AVALON_SPI_STATUS_TRDY_MSK) == 0 || credits == 0) &&
 840e580:	e0bff717 	ldw	r2,-36(fp)
 840e584:	1000031e 	bne	r2,zero,840e594 <alt_avalon_spi_command+0xc8>
            (status & ALTERA_AVALON_SPI_STATUS_RRDY_MSK) == 0);
 840e588:	e0bffa17 	ldw	r2,-24(fp)
 840e58c:	1080200c 	andi	r2,r2,128
    
    do
    {
      status = IORD_ALTERA_AVALON_SPI_STATUS(base);
    }
    while (((status & ALTERA_AVALON_SPI_STATUS_TRDY_MSK) == 0 || credits == 0) &&
 840e590:	103ff426 	beq	r2,zero,840e564 <__alt_data_end+0xfc40e564>
            (status & ALTERA_AVALON_SPI_STATUS_RRDY_MSK) == 0);

    if ((status & ALTERA_AVALON_SPI_STATUS_TRDY_MSK) != 0 && credits > 0)
 840e594:	e0bffa17 	ldw	r2,-24(fp)
 840e598:	1080100c 	andi	r2,r2,64
 840e59c:	10001e26 	beq	r2,zero,840e618 <alt_avalon_spi_command+0x14c>
 840e5a0:	e0bff717 	ldw	r2,-36(fp)
 840e5a4:	00801c0e 	bge	zero,r2,840e618 <alt_avalon_spi_command+0x14c>
    {
      credits--;
 840e5a8:	e0bff717 	ldw	r2,-36(fp)
 840e5ac:	10bfffc4 	addi	r2,r2,-1
 840e5b0:	e0bff715 	stw	r2,-36(fp)

      if (write_data < write_end)
 840e5b4:	e0ffff17 	ldw	r3,-4(fp)
 840e5b8:	e0bff817 	ldw	r2,-32(fp)
 840e5bc:	18800a2e 	bgeu	r3,r2,840e5e8 <alt_avalon_spi_command+0x11c>
        IOWR_ALTERA_AVALON_SPI_TXDATA(base, *write_data++);
 840e5c0:	e0bffc17 	ldw	r2,-16(fp)
 840e5c4:	10800104 	addi	r2,r2,4
 840e5c8:	1009883a 	mov	r4,r2
 840e5cc:	e0bfff17 	ldw	r2,-4(fp)
 840e5d0:	10c00044 	addi	r3,r2,1
 840e5d4:	e0ffff15 	stw	r3,-4(fp)
 840e5d8:	10800003 	ldbu	r2,0(r2)
 840e5dc:	10803fcc 	andi	r2,r2,255
 840e5e0:	20800035 	stwio	r2,0(r4)
 840e5e4:	00000c06 	br	840e618 <alt_avalon_spi_command+0x14c>
      else if (write_zeros > 0)
 840e5e8:	e0bff517 	ldw	r2,-44(fp)
 840e5ec:	10000826 	beq	r2,zero,840e610 <alt_avalon_spi_command+0x144>
      {
        write_zeros--;
 840e5f0:	e0bff517 	ldw	r2,-44(fp)
 840e5f4:	10bfffc4 	addi	r2,r2,-1
 840e5f8:	e0bff515 	stw	r2,-44(fp)
        IOWR_ALTERA_AVALON_SPI_TXDATA(base, 0);
 840e5fc:	e0bffc17 	ldw	r2,-16(fp)
 840e600:	10800104 	addi	r2,r2,4
 840e604:	0007883a 	mov	r3,zero
 840e608:	10c00035 	stwio	r3,0(r2)
 840e60c:	00000206 	br	840e618 <alt_avalon_spi_command+0x14c>
      }
      else
        credits = -1024;
 840e610:	00bf0004 	movi	r2,-1024
 840e614:	e0bff715 	stw	r2,-36(fp)
    };

    if ((status & ALTERA_AVALON_SPI_STATUS_RRDY_MSK) != 0)
 840e618:	e0bffa17 	ldw	r2,-24(fp)
 840e61c:	1080200c 	andi	r2,r2,128
 840e620:	103fd026 	beq	r2,zero,840e564 <__alt_data_end+0xfc40e564>
    {
      alt_u32 rxdata = IORD_ALTERA_AVALON_SPI_RXDATA(base);
 840e624:	e0bffc17 	ldw	r2,-16(fp)
 840e628:	10800037 	ldwio	r2,0(r2)
 840e62c:	e0bffb15 	stw	r2,-20(fp)

      if (read_ignore > 0)
 840e630:	e0bff617 	ldw	r2,-40(fp)
 840e634:	10000426 	beq	r2,zero,840e648 <alt_avalon_spi_command+0x17c>
        read_ignore--;
 840e638:	e0bff617 	ldw	r2,-40(fp)
 840e63c:	10bfffc4 	addi	r2,r2,-1
 840e640:	e0bff615 	stw	r2,-40(fp)
 840e644:	00000506 	br	840e65c <alt_avalon_spi_command+0x190>
      else
        *read_data++ = (alt_u8)rxdata;
 840e648:	e0800217 	ldw	r2,8(fp)
 840e64c:	10c00044 	addi	r3,r2,1
 840e650:	e0c00215 	stw	r3,8(fp)
 840e654:	e0fffb17 	ldw	r3,-20(fp)
 840e658:	10c00005 	stb	r3,0(r2)
      credits++;
 840e65c:	e0bff717 	ldw	r2,-36(fp)
 840e660:	10800044 	addi	r2,r2,1
 840e664:	e0bff715 	stw	r2,-36(fp)

      if (read_ignore == 0 && read_data == read_end)
 840e668:	e0bff617 	ldw	r2,-40(fp)
 840e66c:	103fbd1e 	bne	r2,zero,840e564 <__alt_data_end+0xfc40e564>
 840e670:	e0c00217 	ldw	r3,8(fp)
 840e674:	e0bff917 	ldw	r2,-28(fp)
 840e678:	18bfba1e 	bne	r3,r2,840e564 <__alt_data_end+0xfc40e564>
  }

  /* Wait until the interface has finished transmitting */
  do
  {
    status = IORD_ALTERA_AVALON_SPI_STATUS(base);
 840e67c:	e0bffc17 	ldw	r2,-16(fp)
 840e680:	10800204 	addi	r2,r2,8
 840e684:	10800037 	ldwio	r2,0(r2)
 840e688:	e0bffa15 	stw	r2,-24(fp)
  }
  while ((status & ALTERA_AVALON_SPI_STATUS_TMT_MSK) == 0);
 840e68c:	e0bffa17 	ldw	r2,-24(fp)
 840e690:	1080080c 	andi	r2,r2,32
 840e694:	103ff926 	beq	r2,zero,840e67c <__alt_data_end+0xfc40e67c>

  /* Clear SSO (release chipselect) unless the caller is going to
   * keep using this chip
   */
  if ((flags & ALT_AVALON_SPI_COMMAND_MERGE) == 0)
 840e698:	e0800317 	ldw	r2,12(fp)
 840e69c:	1080004c 	andi	r2,r2,1
 840e6a0:	1000041e 	bne	r2,zero,840e6b4 <alt_avalon_spi_command+0x1e8>
    IOWR_ALTERA_AVALON_SPI_CONTROL(base, 0);
 840e6a4:	e0bffc17 	ldw	r2,-16(fp)
 840e6a8:	10800304 	addi	r2,r2,12
 840e6ac:	0007883a 	mov	r3,zero
 840e6b0:	10c00035 	stwio	r3,0(r2)

  return read_length;
 840e6b4:	e0800117 	ldw	r2,4(fp)
}
 840e6b8:	e037883a 	mov	sp,fp
 840e6bc:	df000017 	ldw	fp,0(sp)
 840e6c0:	dec00104 	addi	sp,sp,4
 840e6c4:	f800283a 	ret

0840e6c8 <alt_avalon_timer_sc_irq>:
#ifdef ALT_ENHANCED_INTERRUPT_API_PRESENT
static void alt_avalon_timer_sc_irq (void* base)
#else
static void alt_avalon_timer_sc_irq (void* base, alt_u32 id)
#endif
{
 840e6c8:	defffa04 	addi	sp,sp,-24
 840e6cc:	dfc00515 	stw	ra,20(sp)
 840e6d0:	df000415 	stw	fp,16(sp)
 840e6d4:	df000404 	addi	fp,sp,16
 840e6d8:	e13fff15 	stw	r4,-4(fp)
  alt_irq_context cpu_sr;
  
  /* clear the interrupt */
  IOWR_ALTERA_AVALON_TIMER_STATUS (base, 0);
 840e6dc:	0007883a 	mov	r3,zero
 840e6e0:	e0bfff17 	ldw	r2,-4(fp)
 840e6e4:	10c00035 	stwio	r3,0(r2)
  /* 
   * Dummy read to ensure IRQ is negated before the ISR returns.
   * The control register is read because reading the status
   * register has side-effects per the register map documentation.
   */
  IORD_ALTERA_AVALON_TIMER_CONTROL (base);
 840e6e8:	e0bfff17 	ldw	r2,-4(fp)
 840e6ec:	10800104 	addi	r2,r2,4
 840e6f0:	10800037 	ldwio	r2,0(r2)
static ALT_INLINE alt_irq_context ALT_ALWAYS_INLINE 
       alt_irq_disable_all (void)
{
  alt_irq_context context;

  NIOS2_READ_STATUS (context);
 840e6f4:	0005303a 	rdctl	r2,status
 840e6f8:	e0bffd15 	stw	r2,-12(fp)

  NIOS2_WRITE_STATUS (context & ~NIOS2_STATUS_PIE_MSK);
 840e6fc:	e0fffd17 	ldw	r3,-12(fp)
 840e700:	00bfff84 	movi	r2,-2
 840e704:	1884703a 	and	r2,r3,r2
 840e708:	1001703a 	wrctl	status,r2
  
  return context;
 840e70c:	e0bffd17 	ldw	r2,-12(fp)

  /* 
   * Notify the system of a clock tick. disable interrupts 
   * during this time to safely support ISR preemption
   */
  cpu_sr = alt_irq_disable_all();
 840e710:	e0bffc15 	stw	r2,-16(fp)
  alt_tick ();
 840e714:	840d7240 	call	840d724 <alt_tick>
 840e718:	e0bffc17 	ldw	r2,-16(fp)
 840e71c:	e0bffe15 	stw	r2,-8(fp)
  status &= ~NIOS2_STATUS_PIE_MSK;
  status |= (context & NIOS2_STATUS_PIE_MSK);
  
  NIOS2_WRITE_STATUS (status);
#else
  NIOS2_WRITE_STATUS (context);
 840e720:	e0bffe17 	ldw	r2,-8(fp)
 840e724:	1001703a 	wrctl	status,r2
  alt_irq_enable_all(cpu_sr);
}
 840e728:	0001883a 	nop
 840e72c:	e037883a 	mov	sp,fp
 840e730:	dfc00117 	ldw	ra,4(sp)
 840e734:	df000017 	ldw	fp,0(sp)
 840e738:	dec00204 	addi	sp,sp,8
 840e73c:	f800283a 	ret

0840e740 <alt_avalon_timer_sc_init>:
 * auto-generated alt_sys_init() function.
 */

void alt_avalon_timer_sc_init (void* base, alt_u32 irq_controller_id, 
                                alt_u32 irq, alt_u32 freq)
{
 840e740:	defff804 	addi	sp,sp,-32
 840e744:	dfc00715 	stw	ra,28(sp)
 840e748:	df000615 	stw	fp,24(sp)
 840e74c:	df000604 	addi	fp,sp,24
 840e750:	e13ffc15 	stw	r4,-16(fp)
 840e754:	e17ffd15 	stw	r5,-12(fp)
 840e758:	e1bffe15 	stw	r6,-8(fp)
 840e75c:	e1ffff15 	stw	r7,-4(fp)
 840e760:	e0bfff17 	ldw	r2,-4(fp)
 840e764:	e0bffb15 	stw	r2,-20(fp)
 * in order to initialise the value of the clock frequency.
 */

static ALT_INLINE int ALT_ALWAYS_INLINE alt_sysclk_init (alt_u32 nticks)
{
  if (! _alt_tick_rate)
 840e768:	d0ac9717 	ldw	r2,-19876(gp)
 840e76c:	1000021e 	bne	r2,zero,840e778 <alt_avalon_timer_sc_init+0x38>
  {
    _alt_tick_rate = nticks;
 840e770:	e0bffb17 	ldw	r2,-20(fp)
 840e774:	d0ac9715 	stw	r2,-19876(gp)
  
  alt_sysclk_init (freq);
  
  /* set to free running mode */
  
  IOWR_ALTERA_AVALON_TIMER_CONTROL (base, 
 840e778:	e0bffc17 	ldw	r2,-16(fp)
 840e77c:	10800104 	addi	r2,r2,4
 840e780:	00c001c4 	movi	r3,7
 840e784:	10c00035 	stwio	r3,0(r2)
            ALTERA_AVALON_TIMER_CONTROL_CONT_MSK |
            ALTERA_AVALON_TIMER_CONTROL_START_MSK);

  /* register the interrupt handler, and enable the interrupt */
#ifdef ALT_ENHANCED_INTERRUPT_API_PRESENT
  alt_ic_isr_register(irq_controller_id, irq, alt_avalon_timer_sc_irq, 
 840e788:	d8000015 	stw	zero,0(sp)
 840e78c:	e1fffc17 	ldw	r7,-16(fp)
 840e790:	01821074 	movhi	r6,2113
 840e794:	31b9b204 	addi	r6,r6,-6456
 840e798:	e17ffe17 	ldw	r5,-8(fp)
 840e79c:	e13ffd17 	ldw	r4,-12(fp)
 840e7a0:	840cdfc0 	call	840cdfc <alt_ic_isr_register>
                      base, NULL);
#else
  alt_irq_register (irq, base, alt_avalon_timer_sc_irq);
#endif  
}
 840e7a4:	0001883a 	nop
 840e7a8:	e037883a 	mov	sp,fp
 840e7ac:	dfc00117 	ldw	ra,4(sp)
 840e7b0:	df000017 	ldw	fp,0(sp)
 840e7b4:	dec00204 	addi	sp,sp,8
 840e7b8:	f800283a 	ret

0840e7bc <alt_busy_sleep>:
#include "alt_types.h"

#include "priv/alt_busy_sleep.h"

unsigned int alt_busy_sleep (unsigned int us)
{
 840e7bc:	defffa04 	addi	sp,sp,-24
 840e7c0:	dfc00515 	stw	ra,20(sp)
 840e7c4:	df000415 	stw	fp,16(sp)
 840e7c8:	df000404 	addi	fp,sp,16
 840e7cc:	e13fff15 	stw	r4,-4(fp)
  {
    cycles_per_loop = 9;
  }
  else  
  {
    cycles_per_loop = 3;
 840e7d0:	008000c4 	movi	r2,3
 840e7d4:	e0bffd15 	stw	r2,-12(fp)
  }
  

  big_loops = us / (INT_MAX/
  (ALT_CPU_FREQ/(cycles_per_loop * 1000000)));
 840e7d8:	e0fffd17 	ldw	r3,-12(fp)
 840e7dc:	008003f4 	movhi	r2,15
 840e7e0:	10909004 	addi	r2,r2,16960
 840e7e4:	1885383a 	mul	r2,r3,r2
 840e7e8:	100b883a 	mov	r5,r2
 840e7ec:	01017db4 	movhi	r4,1526
 840e7f0:	21384004 	addi	r4,r4,-7936
 840e7f4:	84070a40 	call	84070a4 <__udivsi3>
  {
    cycles_per_loop = 3;
  }
  

  big_loops = us / (INT_MAX/
 840e7f8:	100b883a 	mov	r5,r2
 840e7fc:	01200034 	movhi	r4,32768
 840e800:	213fffc4 	addi	r4,r4,-1
 840e804:	84070a40 	call	84070a4 <__udivsi3>
 840e808:	100b883a 	mov	r5,r2
 840e80c:	e13fff17 	ldw	r4,-4(fp)
 840e810:	84070a40 	call	84070a4 <__udivsi3>
 840e814:	e0bffe15 	stw	r2,-8(fp)
  (ALT_CPU_FREQ/(cycles_per_loop * 1000000)));

  if (big_loops)
 840e818:	e0bffe17 	ldw	r2,-8(fp)
 840e81c:	10002a26 	beq	r2,zero,840e8c8 <alt_busy_sleep+0x10c>
  {
    for(i=0;i<big_loops;i++)
 840e820:	e03ffc15 	stw	zero,-16(fp)
 840e824:	00001706 	br	840e884 <alt_busy_sleep+0xc8>
      /*
      * Do NOT Try to single step the asm statement below 
      * (single step will never return)
      * Step out of this function or set a breakpoint after the asm statements
      */
      __asm__ volatile (
 840e828:	00a00034 	movhi	r2,32768
 840e82c:	10bfffc4 	addi	r2,r2,-1
 840e830:	10bfffc4 	addi	r2,r2,-1
 840e834:	103ffe1e 	bne	r2,zero,840e830 <__alt_data_end+0xfc40e830>
        "\n\t.pushsection .debug_alt_sim_info"
        "\n\t.int 4, 0, 0b, 1b"
        "\n\t.popsection"
        :: "r" (INT_MAX));
      us -= (INT_MAX/(ALT_CPU_FREQ/
      (cycles_per_loop * 1000000)));
 840e838:	e0fffd17 	ldw	r3,-12(fp)
 840e83c:	008003f4 	movhi	r2,15
 840e840:	10909004 	addi	r2,r2,16960
 840e844:	1885383a 	mul	r2,r3,r2
        "\n1:"
        "\n\t.pushsection .debug_alt_sim_info"
        "\n\t.int 4, 0, 0b, 1b"
        "\n\t.popsection"
        :: "r" (INT_MAX));
      us -= (INT_MAX/(ALT_CPU_FREQ/
 840e848:	100b883a 	mov	r5,r2
 840e84c:	01017db4 	movhi	r4,1526
 840e850:	21384004 	addi	r4,r4,-7936
 840e854:	84070a40 	call	84070a4 <__udivsi3>
 840e858:	100b883a 	mov	r5,r2
 840e85c:	01200034 	movhi	r4,32768
 840e860:	213fffc4 	addi	r4,r4,-1
 840e864:	84070a40 	call	84070a4 <__udivsi3>
 840e868:	1007883a 	mov	r3,r2
 840e86c:	e0bfff17 	ldw	r2,-4(fp)
 840e870:	10c5c83a 	sub	r2,r2,r3
 840e874:	e0bfff15 	stw	r2,-4(fp)
  big_loops = us / (INT_MAX/
  (ALT_CPU_FREQ/(cycles_per_loop * 1000000)));

  if (big_loops)
  {
    for(i=0;i<big_loops;i++)
 840e878:	e0bffc17 	ldw	r2,-16(fp)
 840e87c:	10800044 	addi	r2,r2,1
 840e880:	e0bffc15 	stw	r2,-16(fp)
 840e884:	e0fffc17 	ldw	r3,-16(fp)
 840e888:	e0bffe17 	ldw	r2,-8(fp)
 840e88c:	18bfe616 	blt	r3,r2,840e828 <__alt_data_end+0xfc40e828>
      "\n\tbne %0,zero,0b"
      "\n1:"
      "\n\t.pushsection .debug_alt_sim_info"
      "\n\t.int 4, 0, 0b, 1b"
      "\n\t.popsection"
      :: "r" (us*(ALT_CPU_FREQ/(cycles_per_loop * 1000000))));
 840e890:	e0fffd17 	ldw	r3,-12(fp)
 840e894:	008003f4 	movhi	r2,15
 840e898:	10909004 	addi	r2,r2,16960
 840e89c:	1885383a 	mul	r2,r3,r2
 840e8a0:	100b883a 	mov	r5,r2
 840e8a4:	01017db4 	movhi	r4,1526
 840e8a8:	21384004 	addi	r4,r4,-7936
 840e8ac:	84070a40 	call	84070a4 <__udivsi3>
 840e8b0:	1007883a 	mov	r3,r2
 840e8b4:	e0bfff17 	ldw	r2,-4(fp)
 840e8b8:	1885383a 	mul	r2,r3,r2
    /*
    * Do NOT Try to single step the asm statement below 
    * (single step will never return)
    * Step out of this function or set a breakpoint after the asm statements
    */
    __asm__ volatile (
 840e8bc:	10bfffc4 	addi	r2,r2,-1
 840e8c0:	103ffe1e 	bne	r2,zero,840e8bc <__alt_data_end+0xfc40e8bc>
 840e8c4:	00000d06 	br	840e8fc <alt_busy_sleep+0x140>
      "\n\tbgt %0,zero,0b"
      "\n1:"
      "\n\t.pushsection .debug_alt_sim_info"
      "\n\t.int 4, 0, 0b, 1b"
      "\n\t.popsection"
      :: "r" (us*(ALT_CPU_FREQ/(cycles_per_loop * 1000000))));
 840e8c8:	e0fffd17 	ldw	r3,-12(fp)
 840e8cc:	008003f4 	movhi	r2,15
 840e8d0:	10909004 	addi	r2,r2,16960
 840e8d4:	1885383a 	mul	r2,r3,r2
 840e8d8:	100b883a 	mov	r5,r2
 840e8dc:	01017db4 	movhi	r4,1526
 840e8e0:	21384004 	addi	r4,r4,-7936
 840e8e4:	84070a40 	call	84070a4 <__udivsi3>
 840e8e8:	1007883a 	mov	r3,r2
 840e8ec:	e0bfff17 	ldw	r2,-4(fp)
 840e8f0:	1885383a 	mul	r2,r3,r2
    /*
    * Do NOT Try to single step the asm statement below 
    * (single step will never return)
    * Step out of this function or set a breakpoint after the asm statements
    */
    __asm__ volatile (
 840e8f4:	10bfffc4 	addi	r2,r2,-1
 840e8f8:	00bffe16 	blt	zero,r2,840e8f4 <__alt_data_end+0xfc40e8f4>
      "\n\t.int 4, 0, 0b, 1b"
      "\n\t.popsection"
      :: "r" (us*(ALT_CPU_FREQ/(cycles_per_loop * 1000000))));
  }
#endif /* #ifndef ALT_SIM_OPTIMIZE */
  return 0;
 840e8fc:	0005883a 	mov	r2,zero
}
 840e900:	e037883a 	mov	sp,fp
 840e904:	dfc00117 	ldw	ra,4(sp)
 840e908:	df000017 	ldw	fp,0(sp)
 840e90c:	dec00204 	addi	sp,sp,8
 840e910:	f800283a 	ret

0840e914 <alt_dcache_flush_all>:
/*
 * alt_dcache_flush_all() is called to flush the entire data cache.
 */

void alt_dcache_flush_all (void)
{
 840e914:	defffe04 	addi	sp,sp,-8
 840e918:	df000115 	stw	fp,4(sp)
 840e91c:	df000104 	addi	fp,sp,4
#if NIOS2_DCACHE_SIZE > 0
  char* i;
  
  for (i = (char*) 0; i < (char*) NIOS2_DCACHE_SIZE; i+= NIOS2_DCACHE_LINE_SIZE)
 840e920:	e03fff15 	stw	zero,-4(fp)
 840e924:	00000506 	br	840e93c <alt_dcache_flush_all+0x28>
  { 
    __asm__ volatile ("flushd (%0)" :: "r" (i));
 840e928:	e0bfff17 	ldw	r2,-4(fp)
 840e92c:	1000003b 	flushd	0(r2)
void alt_dcache_flush_all (void)
{
#if NIOS2_DCACHE_SIZE > 0
  char* i;
  
  for (i = (char*) 0; i < (char*) NIOS2_DCACHE_SIZE; i+= NIOS2_DCACHE_LINE_SIZE)
 840e930:	e0bfff17 	ldw	r2,-4(fp)
 840e934:	10800804 	addi	r2,r2,32
 840e938:	e0bfff15 	stw	r2,-4(fp)
 840e93c:	e0bfff17 	ldw	r2,-4(fp)
 840e940:	00ffffd4 	movui	r3,65535
 840e944:	18bff82e 	bgeu	r3,r2,840e928 <__alt_data_end+0xfc40e928>
  { 
    __asm__ volatile ("flushd (%0)" :: "r" (i));
  }
#endif /* NIOS2_DCACHE_SIZE > 0 */
}
 840e948:	0001883a 	nop
 840e94c:	e037883a 	mov	sp,fp
 840e950:	df000017 	ldw	fp,0(sp)
 840e954:	dec00104 	addi	sp,sp,4
 840e958:	f800283a 	ret

0840e95c <alt_get_errno>:
#undef errno

extern int errno;

static ALT_INLINE int* alt_get_errno(void)
{
 840e95c:	defffe04 	addi	sp,sp,-8
 840e960:	dfc00115 	stw	ra,4(sp)
 840e964:	df000015 	stw	fp,0(sp)
 840e968:	d839883a 	mov	fp,sp
  return ((alt_errno) ? alt_errno() : &errno);
 840e96c:	d0a00a17 	ldw	r2,-32728(gp)
 840e970:	10000326 	beq	r2,zero,840e980 <alt_get_errno+0x24>
 840e974:	d0a00a17 	ldw	r2,-32728(gp)
 840e978:	103ee83a 	callr	r2
 840e97c:	00000106 	br	840e984 <alt_get_errno+0x28>
 840e980:	d0ac8e04 	addi	r2,gp,-19912
}
 840e984:	e037883a 	mov	sp,fp
 840e988:	dfc00117 	ldw	ra,4(sp)
 840e98c:	df000017 	ldw	fp,0(sp)
 840e990:	dec00204 	addi	sp,sp,8
 840e994:	f800283a 	ret

0840e998 <alt_dev_llist_insert>:
/*
 *
 */

int alt_dev_llist_insert (alt_dev_llist* dev, alt_llist* list)
{
 840e998:	defffa04 	addi	sp,sp,-24
 840e99c:	dfc00515 	stw	ra,20(sp)
 840e9a0:	df000415 	stw	fp,16(sp)
 840e9a4:	df000404 	addi	fp,sp,16
 840e9a8:	e13ffe15 	stw	r4,-8(fp)
 840e9ac:	e17fff15 	stw	r5,-4(fp)
  /*
   * check that the device exists, and that it has a valid name.
   */

  if (!dev || !dev->name)
 840e9b0:	e0bffe17 	ldw	r2,-8(fp)
 840e9b4:	10000326 	beq	r2,zero,840e9c4 <alt_dev_llist_insert+0x2c>
 840e9b8:	e0bffe17 	ldw	r2,-8(fp)
 840e9bc:	10800217 	ldw	r2,8(r2)
 840e9c0:	1000061e 	bne	r2,zero,840e9dc <alt_dev_llist_insert+0x44>
  {
    ALT_ERRNO = EINVAL;
 840e9c4:	840e95c0 	call	840e95c <alt_get_errno>
 840e9c8:	1007883a 	mov	r3,r2
 840e9cc:	00800584 	movi	r2,22
 840e9d0:	18800015 	stw	r2,0(r3)
    return -EINVAL;
 840e9d4:	00bffa84 	movi	r2,-22
 840e9d8:	00001306 	br	840ea28 <alt_dev_llist_insert+0x90>
  
  /*
   * register the device.
   */
  
  alt_llist_insert(list, &dev->llist);
 840e9dc:	e0bffe17 	ldw	r2,-8(fp)
 840e9e0:	e0ffff17 	ldw	r3,-4(fp)
 840e9e4:	e0fffc15 	stw	r3,-16(fp)
 840e9e8:	e0bffd15 	stw	r2,-12(fp)
 */

static ALT_INLINE void ALT_ALWAYS_INLINE alt_llist_insert(alt_llist* list, 
                alt_llist* entry)
{
  entry->previous = list;
 840e9ec:	e0bffd17 	ldw	r2,-12(fp)
 840e9f0:	e0fffc17 	ldw	r3,-16(fp)
 840e9f4:	10c00115 	stw	r3,4(r2)
  entry->next     = list->next;
 840e9f8:	e0bffc17 	ldw	r2,-16(fp)
 840e9fc:	10c00017 	ldw	r3,0(r2)
 840ea00:	e0bffd17 	ldw	r2,-12(fp)
 840ea04:	10c00015 	stw	r3,0(r2)

  list->next->previous = entry;
 840ea08:	e0bffc17 	ldw	r2,-16(fp)
 840ea0c:	10800017 	ldw	r2,0(r2)
 840ea10:	e0fffd17 	ldw	r3,-12(fp)
 840ea14:	10c00115 	stw	r3,4(r2)
  list->next           = entry;
 840ea18:	e0bffc17 	ldw	r2,-16(fp)
 840ea1c:	e0fffd17 	ldw	r3,-12(fp)
 840ea20:	10c00015 	stw	r3,0(r2)

  return 0;  
 840ea24:	0005883a 	mov	r2,zero
}
 840ea28:	e037883a 	mov	sp,fp
 840ea2c:	dfc00117 	ldw	ra,4(sp)
 840ea30:	df000017 	ldw	fp,0(sp)
 840ea34:	dec00204 	addi	sp,sp,8
 840ea38:	f800283a 	ret

0840ea3c <_do_ctors>:
/*
 * Run the C++ static constructors.
 */

void _do_ctors(void)
{
 840ea3c:	defffd04 	addi	sp,sp,-12
 840ea40:	dfc00215 	stw	ra,8(sp)
 840ea44:	df000115 	stw	fp,4(sp)
 840ea48:	df000104 	addi	fp,sp,4
  constructor* ctor;

  for (ctor = &__CTOR_END__[-1]; ctor >= __CTOR_LIST__; ctor--)
 840ea4c:	00821074 	movhi	r2,2113
 840ea50:	10bec604 	addi	r2,r2,-1256
 840ea54:	e0bfff15 	stw	r2,-4(fp)
 840ea58:	00000606 	br	840ea74 <_do_ctors+0x38>
        (*ctor) (); 
 840ea5c:	e0bfff17 	ldw	r2,-4(fp)
 840ea60:	10800017 	ldw	r2,0(r2)
 840ea64:	103ee83a 	callr	r2

void _do_ctors(void)
{
  constructor* ctor;

  for (ctor = &__CTOR_END__[-1]; ctor >= __CTOR_LIST__; ctor--)
 840ea68:	e0bfff17 	ldw	r2,-4(fp)
 840ea6c:	10bfff04 	addi	r2,r2,-4
 840ea70:	e0bfff15 	stw	r2,-4(fp)
 840ea74:	e0ffff17 	ldw	r3,-4(fp)
 840ea78:	00821074 	movhi	r2,2113
 840ea7c:	10bec704 	addi	r2,r2,-1252
 840ea80:	18bff62e 	bgeu	r3,r2,840ea5c <__alt_data_end+0xfc40ea5c>
        (*ctor) (); 
}
 840ea84:	0001883a 	nop
 840ea88:	e037883a 	mov	sp,fp
 840ea8c:	dfc00117 	ldw	ra,4(sp)
 840ea90:	df000017 	ldw	fp,0(sp)
 840ea94:	dec00204 	addi	sp,sp,8
 840ea98:	f800283a 	ret

0840ea9c <_do_dtors>:
/*
 * Run the C++ static destructors.
 */

void _do_dtors(void)
{
 840ea9c:	defffd04 	addi	sp,sp,-12
 840eaa0:	dfc00215 	stw	ra,8(sp)
 840eaa4:	df000115 	stw	fp,4(sp)
 840eaa8:	df000104 	addi	fp,sp,4
  destructor* dtor;

  for (dtor = &__DTOR_END__[-1]; dtor >= __DTOR_LIST__; dtor--)
 840eaac:	00821074 	movhi	r2,2113
 840eab0:	10bec604 	addi	r2,r2,-1256
 840eab4:	e0bfff15 	stw	r2,-4(fp)
 840eab8:	00000606 	br	840ead4 <_do_dtors+0x38>
        (*dtor) (); 
 840eabc:	e0bfff17 	ldw	r2,-4(fp)
 840eac0:	10800017 	ldw	r2,0(r2)
 840eac4:	103ee83a 	callr	r2

void _do_dtors(void)
{
  destructor* dtor;

  for (dtor = &__DTOR_END__[-1]; dtor >= __DTOR_LIST__; dtor--)
 840eac8:	e0bfff17 	ldw	r2,-4(fp)
 840eacc:	10bfff04 	addi	r2,r2,-4
 840ead0:	e0bfff15 	stw	r2,-4(fp)
 840ead4:	e0ffff17 	ldw	r3,-4(fp)
 840ead8:	00821074 	movhi	r2,2113
 840eadc:	10bec704 	addi	r2,r2,-1252
 840eae0:	18bff62e 	bgeu	r3,r2,840eabc <__alt_data_end+0xfc40eabc>
        (*dtor) (); 
}
 840eae4:	0001883a 	nop
 840eae8:	e037883a 	mov	sp,fp
 840eaec:	dfc00117 	ldw	ra,4(sp)
 840eaf0:	df000017 	ldw	fp,0(sp)
 840eaf4:	dec00204 	addi	sp,sp,8
 840eaf8:	f800283a 	ret

0840eafc <alt_icache_flush_all>:
/*
 * alt_icache_flush_all() is called to flush the entire instruction cache.
 */

void alt_icache_flush_all (void)
{
 840eafc:	defffe04 	addi	sp,sp,-8
 840eb00:	dfc00115 	stw	ra,4(sp)
 840eb04:	df000015 	stw	fp,0(sp)
 840eb08:	d839883a 	mov	fp,sp
#if NIOS2_ICACHE_SIZE > 0
  alt_icache_flush (0, NIOS2_ICACHE_SIZE);
 840eb0c:	01480004 	movi	r5,8192
 840eb10:	0009883a 	mov	r4,zero
 840eb14:	840f1c00 	call	840f1c0 <alt_icache_flush>
#endif
}
 840eb18:	0001883a 	nop
 840eb1c:	e037883a 	mov	sp,fp
 840eb20:	dfc00117 	ldw	ra,4(sp)
 840eb24:	df000017 	ldw	fp,0(sp)
 840eb28:	dec00204 	addi	sp,sp,8
 840eb2c:	f800283a 	ret

0840eb30 <alt_exception_cause_generated_bad_addr>:
 * Return: 1: BADADDR (bad_addr argument to handler) is valid
 *         0: BADADDR is not valid
 */
int 
alt_exception_cause_generated_bad_addr(alt_exception_cause cause)
{
 840eb30:	defffe04 	addi	sp,sp,-8
 840eb34:	df000115 	stw	fp,4(sp)
 840eb38:	df000104 	addi	fp,sp,4
 840eb3c:	e13fff15 	stw	r4,-4(fp)
  switch (cause) {
 840eb40:	e0bfff17 	ldw	r2,-4(fp)
 840eb44:	10bffe84 	addi	r2,r2,-6
 840eb48:	10c00428 	cmpgeui	r3,r2,16
 840eb4c:	18001a1e 	bne	r3,zero,840ebb8 <alt_exception_cause_generated_bad_addr+0x88>
 840eb50:	100690ba 	slli	r3,r2,2
 840eb54:	00821074 	movhi	r2,2113
 840eb58:	10bada04 	addi	r2,r2,-5272
 840eb5c:	1885883a 	add	r2,r3,r2
 840eb60:	10800017 	ldw	r2,0(r2)
 840eb64:	1000683a 	jmp	r2
 840eb68:	0840eba8 	cmpgeui	at,at,942
 840eb6c:	0840eba8 	cmpgeui	at,at,942
 840eb70:	0840ebb8 	rdprs	at,at,942
 840eb74:	0840ebb8 	rdprs	at,at,942
 840eb78:	0840ebb8 	rdprs	at,at,942
 840eb7c:	0840eba8 	cmpgeui	at,at,942
 840eb80:	0840ebb0 	cmpltui	at,at,942
 840eb84:	0840ebb8 	rdprs	at,at,942
 840eb88:	0840eba8 	cmpgeui	at,at,942
 840eb8c:	0840eba8 	cmpgeui	at,at,942
 840eb90:	0840ebb8 	rdprs	at,at,942
 840eb94:	0840eba8 	cmpgeui	at,at,942
 840eb98:	0840ebb0 	cmpltui	at,at,942
 840eb9c:	0840ebb8 	rdprs	at,at,942
 840eba0:	0840ebb8 	rdprs	at,at,942
 840eba4:	0840eba8 	cmpgeui	at,at,942
  case NIOS2_EXCEPTION_MISALIGNED_TARGET_PC:
  case NIOS2_EXCEPTION_TLB_READ_PERM_VIOLATION:
  case NIOS2_EXCEPTION_TLB_WRITE_PERM_VIOLATION:
  case NIOS2_EXCEPTION_MPU_DATA_REGION_VIOLATION:
  case NIOS2_EXCEPTION_ECC_DATA_ERR:
    return 1;
 840eba8:	00800044 	movi	r2,1
 840ebac:	00000306 	br	840ebbc <alt_exception_cause_generated_bad_addr+0x8c>

  case NIOS2_EXCEPTION_TLB_MISS:
  case NIOS2_EXCEPTION_ECC_TLB_ERR:
    return 0;
 840ebb0:	0005883a 	mov	r2,zero
 840ebb4:	00000106 	br	840ebbc <alt_exception_cause_generated_bad_addr+0x8c>

  default:
    return 0;
 840ebb8:	0005883a 	mov	r2,zero
  }
}
 840ebbc:	e037883a 	mov	sp,fp
 840ebc0:	df000017 	ldw	fp,0(sp)
 840ebc4:	dec00104 	addi	sp,sp,4
 840ebc8:	f800283a 	ret

0840ebcc <alt_open_fd>:
 * If the device can not be succesfully opened, then the input file descriptor
 * remains unchanged.
 */

static void alt_open_fd(alt_fd* fd, const char* name, int flags, int mode)
{
 840ebcc:	defff904 	addi	sp,sp,-28
 840ebd0:	dfc00615 	stw	ra,24(sp)
 840ebd4:	df000515 	stw	fp,20(sp)
 840ebd8:	df000504 	addi	fp,sp,20
 840ebdc:	e13ffc15 	stw	r4,-16(fp)
 840ebe0:	e17ffd15 	stw	r5,-12(fp)
 840ebe4:	e1bffe15 	stw	r6,-8(fp)
 840ebe8:	e1ffff15 	stw	r7,-4(fp)
  int old;

  old = open (name, flags, mode);
 840ebec:	e1bfff17 	ldw	r6,-4(fp)
 840ebf0:	e17ffe17 	ldw	r5,-8(fp)
 840ebf4:	e13ffd17 	ldw	r4,-12(fp)
 840ebf8:	840ee0c0 	call	840ee0c <open>
 840ebfc:	e0bffb15 	stw	r2,-20(fp)

  if (old >= 0)
 840ec00:	e0bffb17 	ldw	r2,-20(fp)
 840ec04:	10001c16 	blt	r2,zero,840ec78 <alt_open_fd+0xac>
  {
    fd->dev      = alt_fd_list[old].dev;
 840ec08:	00821134 	movhi	r2,2116
 840ec0c:	10ab9d04 	addi	r2,r2,-20876
 840ec10:	e0fffb17 	ldw	r3,-20(fp)
 840ec14:	18c00324 	muli	r3,r3,12
 840ec18:	10c5883a 	add	r2,r2,r3
 840ec1c:	10c00017 	ldw	r3,0(r2)
 840ec20:	e0bffc17 	ldw	r2,-16(fp)
 840ec24:	10c00015 	stw	r3,0(r2)
    fd->priv     = alt_fd_list[old].priv;
 840ec28:	00821134 	movhi	r2,2116
 840ec2c:	10ab9d04 	addi	r2,r2,-20876
 840ec30:	e0fffb17 	ldw	r3,-20(fp)
 840ec34:	18c00324 	muli	r3,r3,12
 840ec38:	10c5883a 	add	r2,r2,r3
 840ec3c:	10800104 	addi	r2,r2,4
 840ec40:	10c00017 	ldw	r3,0(r2)
 840ec44:	e0bffc17 	ldw	r2,-16(fp)
 840ec48:	10c00115 	stw	r3,4(r2)
    fd->fd_flags = alt_fd_list[old].fd_flags;
 840ec4c:	00821134 	movhi	r2,2116
 840ec50:	10ab9d04 	addi	r2,r2,-20876
 840ec54:	e0fffb17 	ldw	r3,-20(fp)
 840ec58:	18c00324 	muli	r3,r3,12
 840ec5c:	10c5883a 	add	r2,r2,r3
 840ec60:	10800204 	addi	r2,r2,8
 840ec64:	10c00017 	ldw	r3,0(r2)
 840ec68:	e0bffc17 	ldw	r2,-16(fp)
 840ec6c:	10c00215 	stw	r3,8(r2)

    alt_release_fd (old);
 840ec70:	e13ffb17 	ldw	r4,-20(fp)
 840ec74:	840d5740 	call	840d574 <alt_release_fd>
  }
} 
 840ec78:	0001883a 	nop
 840ec7c:	e037883a 	mov	sp,fp
 840ec80:	dfc00117 	ldw	ra,4(sp)
 840ec84:	df000017 	ldw	fp,0(sp)
 840ec88:	dec00204 	addi	sp,sp,8
 840ec8c:	f800283a 	ret

0840ec90 <alt_io_redirect>:
 */
 
void alt_io_redirect(const char* stdout_dev, 
                     const char* stdin_dev, 
                     const char* stderr_dev)
{
 840ec90:	defffb04 	addi	sp,sp,-20
 840ec94:	dfc00415 	stw	ra,16(sp)
 840ec98:	df000315 	stw	fp,12(sp)
 840ec9c:	df000304 	addi	fp,sp,12
 840eca0:	e13ffd15 	stw	r4,-12(fp)
 840eca4:	e17ffe15 	stw	r5,-8(fp)
 840eca8:	e1bfff15 	stw	r6,-4(fp)
  /* Redirect the channels */

  alt_open_fd (&alt_fd_list[STDOUT_FILENO], stdout_dev, O_WRONLY, 0777);
 840ecac:	01c07fc4 	movi	r7,511
 840ecb0:	01800044 	movi	r6,1
 840ecb4:	e17ffd17 	ldw	r5,-12(fp)
 840ecb8:	01021134 	movhi	r4,2116
 840ecbc:	212ba004 	addi	r4,r4,-20864
 840ecc0:	840ebcc0 	call	840ebcc <alt_open_fd>
  alt_open_fd (&alt_fd_list[STDIN_FILENO], stdin_dev, O_RDONLY, 0777);
 840ecc4:	01c07fc4 	movi	r7,511
 840ecc8:	000d883a 	mov	r6,zero
 840eccc:	e17ffe17 	ldw	r5,-8(fp)
 840ecd0:	01021134 	movhi	r4,2116
 840ecd4:	212b9d04 	addi	r4,r4,-20876
 840ecd8:	840ebcc0 	call	840ebcc <alt_open_fd>
  alt_open_fd (&alt_fd_list[STDERR_FILENO], stderr_dev, O_WRONLY, 0777);
 840ecdc:	01c07fc4 	movi	r7,511
 840ece0:	01800044 	movi	r6,1
 840ece4:	e17fff17 	ldw	r5,-4(fp)
 840ece8:	01021134 	movhi	r4,2116
 840ecec:	212ba304 	addi	r4,r4,-20852
 840ecf0:	840ebcc0 	call	840ebcc <alt_open_fd>
}  
 840ecf4:	0001883a 	nop
 840ecf8:	e037883a 	mov	sp,fp
 840ecfc:	dfc00117 	ldw	ra,4(sp)
 840ed00:	df000017 	ldw	fp,0(sp)
 840ed04:	dec00204 	addi	sp,sp,8
 840ed08:	f800283a 	ret

0840ed0c <alt_get_errno>:
#undef errno

extern int errno;

static ALT_INLINE int* alt_get_errno(void)
{
 840ed0c:	defffe04 	addi	sp,sp,-8
 840ed10:	dfc00115 	stw	ra,4(sp)
 840ed14:	df000015 	stw	fp,0(sp)
 840ed18:	d839883a 	mov	fp,sp
  return ((alt_errno) ? alt_errno() : &errno);
 840ed1c:	d0a00a17 	ldw	r2,-32728(gp)
 840ed20:	10000326 	beq	r2,zero,840ed30 <alt_get_errno+0x24>
 840ed24:	d0a00a17 	ldw	r2,-32728(gp)
 840ed28:	103ee83a 	callr	r2
 840ed2c:	00000106 	br	840ed34 <alt_get_errno+0x28>
 840ed30:	d0ac8e04 	addi	r2,gp,-19912
}
 840ed34:	e037883a 	mov	sp,fp
 840ed38:	dfc00117 	ldw	ra,4(sp)
 840ed3c:	df000017 	ldw	fp,0(sp)
 840ed40:	dec00204 	addi	sp,sp,8
 840ed44:	f800283a 	ret

0840ed48 <alt_file_locked>:
 * performed for devices. Filesystems are required to handle the ioctl() call
 * themselves, and report the error from the filesystems open() function. 
 */ 

static int alt_file_locked (alt_fd* fd)
{
 840ed48:	defffd04 	addi	sp,sp,-12
 840ed4c:	df000215 	stw	fp,8(sp)
 840ed50:	df000204 	addi	fp,sp,8
 840ed54:	e13fff15 	stw	r4,-4(fp)

  /*
   * Mark the file descriptor as belonging to a device.
   */

  fd->fd_flags |= ALT_FD_DEV;
 840ed58:	e0bfff17 	ldw	r2,-4(fp)
 840ed5c:	10800217 	ldw	r2,8(r2)
 840ed60:	10d00034 	orhi	r3,r2,16384
 840ed64:	e0bfff17 	ldw	r2,-4(fp)
 840ed68:	10c00215 	stw	r3,8(r2)
  /*
   * Loop through all current file descriptors searching for one that's locked
   * for exclusive access. If a match is found, generate an error.
   */

  for (i = 0; i <= alt_max_fd; i++)
 840ed6c:	e03ffe15 	stw	zero,-8(fp)
 840ed70:	00001d06 	br	840ede8 <alt_file_locked+0xa0>
  {
    if ((alt_fd_list[i].dev == fd->dev) &&
 840ed74:	00821134 	movhi	r2,2116
 840ed78:	10ab9d04 	addi	r2,r2,-20876
 840ed7c:	e0fffe17 	ldw	r3,-8(fp)
 840ed80:	18c00324 	muli	r3,r3,12
 840ed84:	10c5883a 	add	r2,r2,r3
 840ed88:	10c00017 	ldw	r3,0(r2)
 840ed8c:	e0bfff17 	ldw	r2,-4(fp)
 840ed90:	10800017 	ldw	r2,0(r2)
 840ed94:	1880111e 	bne	r3,r2,840eddc <alt_file_locked+0x94>
        (alt_fd_list[i].fd_flags & ALT_FD_EXCL) &&
 840ed98:	00821134 	movhi	r2,2116
 840ed9c:	10ab9d04 	addi	r2,r2,-20876
 840eda0:	e0fffe17 	ldw	r3,-8(fp)
 840eda4:	18c00324 	muli	r3,r3,12
 840eda8:	10c5883a 	add	r2,r2,r3
 840edac:	10800204 	addi	r2,r2,8
 840edb0:	10800017 	ldw	r2,0(r2)
   * for exclusive access. If a match is found, generate an error.
   */

  for (i = 0; i <= alt_max_fd; i++)
  {
    if ((alt_fd_list[i].dev == fd->dev) &&
 840edb4:	1000090e 	bge	r2,zero,840eddc <alt_file_locked+0x94>
        (alt_fd_list[i].fd_flags & ALT_FD_EXCL) &&
        (&alt_fd_list[i] != fd))
 840edb8:	e0bffe17 	ldw	r2,-8(fp)
 840edbc:	10c00324 	muli	r3,r2,12
 840edc0:	00821134 	movhi	r2,2116
 840edc4:	10ab9d04 	addi	r2,r2,-20876
 840edc8:	1887883a 	add	r3,r3,r2
   */

  for (i = 0; i <= alt_max_fd; i++)
  {
    if ((alt_fd_list[i].dev == fd->dev) &&
        (alt_fd_list[i].fd_flags & ALT_FD_EXCL) &&
 840edcc:	e0bfff17 	ldw	r2,-4(fp)
 840edd0:	18800226 	beq	r3,r2,840eddc <alt_file_locked+0x94>
        (&alt_fd_list[i] != fd))
    {
      return -EACCES;
 840edd4:	00bffcc4 	movi	r2,-13
 840edd8:	00000806 	br	840edfc <alt_file_locked+0xb4>
  /*
   * Loop through all current file descriptors searching for one that's locked
   * for exclusive access. If a match is found, generate an error.
   */

  for (i = 0; i <= alt_max_fd; i++)
 840eddc:	e0bffe17 	ldw	r2,-8(fp)
 840ede0:	10800044 	addi	r2,r2,1
 840ede4:	e0bffe15 	stw	r2,-8(fp)
 840ede8:	d0a00917 	ldw	r2,-32732(gp)
 840edec:	1007883a 	mov	r3,r2
 840edf0:	e0bffe17 	ldw	r2,-8(fp)
 840edf4:	18bfdf2e 	bgeu	r3,r2,840ed74 <__alt_data_end+0xfc40ed74>
    }
  }
  
  /* The device is not locked */
 
  return 0;
 840edf8:	0005883a 	mov	r2,zero
}
 840edfc:	e037883a 	mov	sp,fp
 840ee00:	df000017 	ldw	fp,0(sp)
 840ee04:	dec00104 	addi	sp,sp,4
 840ee08:	f800283a 	ret

0840ee0c <open>:
 *
 * ALT_OPEN is mapped onto the open() system call in alt_syscall.h
 */
 
int ALT_OPEN (const char* file, int flags, int mode)
{ 
 840ee0c:	defff604 	addi	sp,sp,-40
 840ee10:	dfc00915 	stw	ra,36(sp)
 840ee14:	df000815 	stw	fp,32(sp)
 840ee18:	df000804 	addi	fp,sp,32
 840ee1c:	e13ffd15 	stw	r4,-12(fp)
 840ee20:	e17ffe15 	stw	r5,-8(fp)
 840ee24:	e1bfff15 	stw	r6,-4(fp)
  alt_dev* dev;
  alt_fd*  fd;
  int index  = -1;
 840ee28:	00bfffc4 	movi	r2,-1
 840ee2c:	e0bff915 	stw	r2,-28(fp)
  int status = -ENODEV;
 840ee30:	00bffb44 	movi	r2,-19
 840ee34:	e0bffa15 	stw	r2,-24(fp)
  int isafs = 0;
 840ee38:	e03ffb15 	stw	zero,-20(fp)
  /* 
   * Check the device list, to see if a device with a matching name is 
   * registered.
   */
  
  if (!(dev = alt_find_dev (file, &alt_dev_list)))
 840ee3c:	d1600704 	addi	r5,gp,-32740
 840ee40:	e13ffd17 	ldw	r4,-12(fp)
 840ee44:	840ef840 	call	840ef84 <alt_find_dev>
 840ee48:	e0bff815 	stw	r2,-32(fp)
 840ee4c:	e0bff817 	ldw	r2,-32(fp)
 840ee50:	1000051e 	bne	r2,zero,840ee68 <open+0x5c>
  {
    /* No matching device, so try the filesystem list */

    dev   = alt_find_file (file);
 840ee54:	e13ffd17 	ldw	r4,-12(fp)
 840ee58:	840f0140 	call	840f014 <alt_find_file>
 840ee5c:	e0bff815 	stw	r2,-32(fp)
    isafs = 1;
 840ee60:	00800044 	movi	r2,1
 840ee64:	e0bffb15 	stw	r2,-20(fp)

  /* 
   * If a matching device or filesystem is found, allocate a file descriptor. 
   */

  if (dev)
 840ee68:	e0bff817 	ldw	r2,-32(fp)
 840ee6c:	10002926 	beq	r2,zero,840ef14 <open+0x108>
  {
    if ((index = alt_get_fd (dev)) < 0)
 840ee70:	e13ff817 	ldw	r4,-32(fp)
 840ee74:	840f11c0 	call	840f11c <alt_get_fd>
 840ee78:	e0bff915 	stw	r2,-28(fp)
 840ee7c:	e0bff917 	ldw	r2,-28(fp)
 840ee80:	1000030e 	bge	r2,zero,840ee90 <open+0x84>
    {
      status = index;
 840ee84:	e0bff917 	ldw	r2,-28(fp)
 840ee88:	e0bffa15 	stw	r2,-24(fp)
 840ee8c:	00002306 	br	840ef1c <open+0x110>
    }
    else
    {
      fd = &alt_fd_list[index];
 840ee90:	e0bff917 	ldw	r2,-28(fp)
 840ee94:	10c00324 	muli	r3,r2,12
 840ee98:	00821134 	movhi	r2,2116
 840ee9c:	10ab9d04 	addi	r2,r2,-20876
 840eea0:	1885883a 	add	r2,r3,r2
 840eea4:	e0bffc15 	stw	r2,-16(fp)
      fd->fd_flags = (flags & ~ALT_FD_FLAGS_MASK);
 840eea8:	e0fffe17 	ldw	r3,-8(fp)
 840eeac:	00900034 	movhi	r2,16384
 840eeb0:	10bfffc4 	addi	r2,r2,-1
 840eeb4:	1886703a 	and	r3,r3,r2
 840eeb8:	e0bffc17 	ldw	r2,-16(fp)
 840eebc:	10c00215 	stw	r3,8(r2)
      
      /* If this is a device, ensure it isn't already locked */

      if (isafs || ((status = alt_file_locked (fd)) >= 0))
 840eec0:	e0bffb17 	ldw	r2,-20(fp)
 840eec4:	1000051e 	bne	r2,zero,840eedc <open+0xd0>
 840eec8:	e13ffc17 	ldw	r4,-16(fp)
 840eecc:	840ed480 	call	840ed48 <alt_file_locked>
 840eed0:	e0bffa15 	stw	r2,-24(fp)
 840eed4:	e0bffa17 	ldw	r2,-24(fp)
 840eed8:	10001016 	blt	r2,zero,840ef1c <open+0x110>
        /* 
         * If the device or filesystem provides an open() callback function,
         * call it now to perform any device/filesystem specific operations.
         */
    
        status = (dev->open) ? dev->open(fd, file, flags, mode): 0;
 840eedc:	e0bff817 	ldw	r2,-32(fp)
 840eee0:	10800317 	ldw	r2,12(r2)
 840eee4:	10000826 	beq	r2,zero,840ef08 <open+0xfc>
 840eee8:	e0bff817 	ldw	r2,-32(fp)
 840eeec:	10800317 	ldw	r2,12(r2)
 840eef0:	e1ffff17 	ldw	r7,-4(fp)
 840eef4:	e1bffe17 	ldw	r6,-8(fp)
 840eef8:	e17ffd17 	ldw	r5,-12(fp)
 840eefc:	e13ffc17 	ldw	r4,-16(fp)
 840ef00:	103ee83a 	callr	r2
 840ef04:	00000106 	br	840ef0c <open+0x100>
 840ef08:	0005883a 	mov	r2,zero
 840ef0c:	e0bffa15 	stw	r2,-24(fp)
 840ef10:	00000206 	br	840ef1c <open+0x110>
      }
    }
  }
  else
  {
    status = -ENODEV;
 840ef14:	00bffb44 	movi	r2,-19
 840ef18:	e0bffa15 	stw	r2,-24(fp)
  }

  /* Allocation failed, so clean up and return an error */ 

  if (status < 0)
 840ef1c:	e0bffa17 	ldw	r2,-24(fp)
 840ef20:	1000090e 	bge	r2,zero,840ef48 <open+0x13c>
  {
    alt_release_fd (index);  
 840ef24:	e13ff917 	ldw	r4,-28(fp)
 840ef28:	840d5740 	call	840d574 <alt_release_fd>
    ALT_ERRNO = -status;
 840ef2c:	840ed0c0 	call	840ed0c <alt_get_errno>
 840ef30:	1007883a 	mov	r3,r2
 840ef34:	e0bffa17 	ldw	r2,-24(fp)
 840ef38:	0085c83a 	sub	r2,zero,r2
 840ef3c:	18800015 	stw	r2,0(r3)
    return -1;
 840ef40:	00bfffc4 	movi	r2,-1
 840ef44:	00000106 	br	840ef4c <open+0x140>
  }
  
  /* return the reference upon success */

  return index;
 840ef48:	e0bff917 	ldw	r2,-28(fp)
}
 840ef4c:	e037883a 	mov	sp,fp
 840ef50:	dfc00117 	ldw	ra,4(sp)
 840ef54:	df000017 	ldw	fp,0(sp)
 840ef58:	dec00204 	addi	sp,sp,8
 840ef5c:	f800283a 	ret

0840ef60 <altera_nios2_gen2_irq_init>:
/*
 * To initialize the internal interrupt controller, just clear the IENABLE
 * register so that all possible IRQs are disabled.
 */
void altera_nios2_gen2_irq_init(void) 
{
 840ef60:	deffff04 	addi	sp,sp,-4
 840ef64:	df000015 	stw	fp,0(sp)
 840ef68:	d839883a 	mov	fp,sp
    NIOS2_WRITE_IENABLE(0);
 840ef6c:	000170fa 	wrctl	ienable,zero
}
 840ef70:	0001883a 	nop
 840ef74:	e037883a 	mov	sp,fp
 840ef78:	df000017 	ldw	fp,0(sp)
 840ef7c:	dec00104 	addi	sp,sp,4
 840ef80:	f800283a 	ret

0840ef84 <alt_find_dev>:
 * "name" must be an exact match for the devices registered name for a match to
 * be found.
 */
 
alt_dev* alt_find_dev(const char* name, alt_llist* llist)
{
 840ef84:	defffa04 	addi	sp,sp,-24
 840ef88:	dfc00515 	stw	ra,20(sp)
 840ef8c:	df000415 	stw	fp,16(sp)
 840ef90:	df000404 	addi	fp,sp,16
 840ef94:	e13ffe15 	stw	r4,-8(fp)
 840ef98:	e17fff15 	stw	r5,-4(fp)
  alt_dev* next = (alt_dev*) llist->next;
 840ef9c:	e0bfff17 	ldw	r2,-4(fp)
 840efa0:	10800017 	ldw	r2,0(r2)
 840efa4:	e0bffc15 	stw	r2,-16(fp)
  alt_32 len;

  len  = strlen(name) + 1;
 840efa8:	e13ffe17 	ldw	r4,-8(fp)
 840efac:	840a47c0 	call	840a47c <strlen>
 840efb0:	10800044 	addi	r2,r2,1
 840efb4:	e0bffd15 	stw	r2,-12(fp)
  /*
   * Check each list entry in turn, until a match is found, or we reach the
   * end of the list (i.e. next winds up pointing back to the list head).
   */ 

  while (next != (alt_dev*) llist)
 840efb8:	00000d06 	br	840eff0 <alt_find_dev+0x6c>
    /* 
     * memcmp() is used here rather than strcmp() in order to reduce the size
     * of the executable.
     */

    if (!memcmp (next->name, name, len))
 840efbc:	e0bffc17 	ldw	r2,-16(fp)
 840efc0:	10800217 	ldw	r2,8(r2)
 840efc4:	e0fffd17 	ldw	r3,-12(fp)
 840efc8:	180d883a 	mov	r6,r3
 840efcc:	e17ffe17 	ldw	r5,-8(fp)
 840efd0:	1009883a 	mov	r4,r2
 840efd4:	840f29c0 	call	840f29c <memcmp>
 840efd8:	1000021e 	bne	r2,zero,840efe4 <alt_find_dev+0x60>
    {
      /* match found */

      return next;
 840efdc:	e0bffc17 	ldw	r2,-16(fp)
 840efe0:	00000706 	br	840f000 <alt_find_dev+0x7c>
    }
    next = (alt_dev*) next->llist.next;
 840efe4:	e0bffc17 	ldw	r2,-16(fp)
 840efe8:	10800017 	ldw	r2,0(r2)
 840efec:	e0bffc15 	stw	r2,-16(fp)
  /*
   * Check each list entry in turn, until a match is found, or we reach the
   * end of the list (i.e. next winds up pointing back to the list head).
   */ 

  while (next != (alt_dev*) llist)
 840eff0:	e0fffc17 	ldw	r3,-16(fp)
 840eff4:	e0bfff17 	ldw	r2,-4(fp)
 840eff8:	18bff01e 	bne	r3,r2,840efbc <__alt_data_end+0xfc40efbc>
    next = (alt_dev*) next->llist.next;
  }
  
  /* No match found */
  
  return NULL;
 840effc:	0005883a 	mov	r2,zero
}
 840f000:	e037883a 	mov	sp,fp
 840f004:	dfc00117 	ldw	ra,4(sp)
 840f008:	df000017 	ldw	fp,0(sp)
 840f00c:	dec00204 	addi	sp,sp,8
 840f010:	f800283a 	ret

0840f014 <alt_find_file>:
 * either '/' or '\0' is the prefix of the filename. For example the filename:
 * "/myfilesystem/junk.txt" would match: "/myfilesystem", but not: "/myfile". 
 */
 
alt_dev* alt_find_file (const char* name)
{
 840f014:	defffb04 	addi	sp,sp,-20
 840f018:	dfc00415 	stw	ra,16(sp)
 840f01c:	df000315 	stw	fp,12(sp)
 840f020:	df000304 	addi	fp,sp,12
 840f024:	e13fff15 	stw	r4,-4(fp)
  alt_dev* next = (alt_dev*) alt_fs_list.next;   
 840f028:	d0a00517 	ldw	r2,-32748(gp)
 840f02c:	e0bffd15 	stw	r2,-12(fp)
  /*
   * Check each list entry in turn, until a match is found, or we reach the
   * end of the list (i.e. next winds up pointing back to the list head).
   */ 
 
  while (next != (alt_dev*) &alt_fs_list)
 840f030:	00003106 	br	840f0f8 <alt_find_file+0xe4>
  {
    len = strlen(next->name);
 840f034:	e0bffd17 	ldw	r2,-12(fp)
 840f038:	10800217 	ldw	r2,8(r2)
 840f03c:	1009883a 	mov	r4,r2
 840f040:	840a47c0 	call	840a47c <strlen>
 840f044:	e0bffe15 	stw	r2,-8(fp)
    
    if (next->name[len-1] == '/')
 840f048:	e0bffd17 	ldw	r2,-12(fp)
 840f04c:	10c00217 	ldw	r3,8(r2)
 840f050:	e0bffe17 	ldw	r2,-8(fp)
 840f054:	10bfffc4 	addi	r2,r2,-1
 840f058:	1885883a 	add	r2,r3,r2
 840f05c:	10800003 	ldbu	r2,0(r2)
 840f060:	10803fcc 	andi	r2,r2,255
 840f064:	1080201c 	xori	r2,r2,128
 840f068:	10bfe004 	addi	r2,r2,-128
 840f06c:	10800bd8 	cmpnei	r2,r2,47
 840f070:	1000031e 	bne	r2,zero,840f080 <alt_find_file+0x6c>
    {
      len -= 1;
 840f074:	e0bffe17 	ldw	r2,-8(fp)
 840f078:	10bfffc4 	addi	r2,r2,-1
 840f07c:	e0bffe15 	stw	r2,-8(fp)
    }

    if (((name[len] == '/') || (name[len] == '\0')) && 
 840f080:	e0bffe17 	ldw	r2,-8(fp)
 840f084:	e0ffff17 	ldw	r3,-4(fp)
 840f088:	1885883a 	add	r2,r3,r2
 840f08c:	10800003 	ldbu	r2,0(r2)
 840f090:	10803fcc 	andi	r2,r2,255
 840f094:	1080201c 	xori	r2,r2,128
 840f098:	10bfe004 	addi	r2,r2,-128
 840f09c:	10800be0 	cmpeqi	r2,r2,47
 840f0a0:	1000081e 	bne	r2,zero,840f0c4 <alt_find_file+0xb0>
 840f0a4:	e0bffe17 	ldw	r2,-8(fp)
 840f0a8:	e0ffff17 	ldw	r3,-4(fp)
 840f0ac:	1885883a 	add	r2,r3,r2
 840f0b0:	10800003 	ldbu	r2,0(r2)
 840f0b4:	10803fcc 	andi	r2,r2,255
 840f0b8:	1080201c 	xori	r2,r2,128
 840f0bc:	10bfe004 	addi	r2,r2,-128
 840f0c0:	10000a1e 	bne	r2,zero,840f0ec <alt_find_file+0xd8>
        !memcmp (next->name, name, len))
 840f0c4:	e0bffd17 	ldw	r2,-12(fp)
 840f0c8:	10800217 	ldw	r2,8(r2)
 840f0cc:	e0fffe17 	ldw	r3,-8(fp)
 840f0d0:	180d883a 	mov	r6,r3
 840f0d4:	e17fff17 	ldw	r5,-4(fp)
 840f0d8:	1009883a 	mov	r4,r2
 840f0dc:	840f29c0 	call	840f29c <memcmp>
    if (next->name[len-1] == '/')
    {
      len -= 1;
    }

    if (((name[len] == '/') || (name[len] == '\0')) && 
 840f0e0:	1000021e 	bne	r2,zero,840f0ec <alt_find_file+0xd8>
        !memcmp (next->name, name, len))
    {
      /* match found */

      return next;
 840f0e4:	e0bffd17 	ldw	r2,-12(fp)
 840f0e8:	00000706 	br	840f108 <alt_find_file+0xf4>
    }
    next = (alt_dev*) next->llist.next;
 840f0ec:	e0bffd17 	ldw	r2,-12(fp)
 840f0f0:	10800017 	ldw	r2,0(r2)
 840f0f4:	e0bffd15 	stw	r2,-12(fp)
  /*
   * Check each list entry in turn, until a match is found, or we reach the
   * end of the list (i.e. next winds up pointing back to the list head).
   */ 
 
  while (next != (alt_dev*) &alt_fs_list)
 840f0f8:	e0fffd17 	ldw	r3,-12(fp)
 840f0fc:	d0a00504 	addi	r2,gp,-32748
 840f100:	18bfcc1e 	bne	r3,r2,840f034 <__alt_data_end+0xfc40f034>
    next = (alt_dev*) next->llist.next;
  }
  
  /* No match found */
  
  return NULL;     
 840f104:	0005883a 	mov	r2,zero
}
 840f108:	e037883a 	mov	sp,fp
 840f10c:	dfc00117 	ldw	ra,4(sp)
 840f110:	df000017 	ldw	fp,0(sp)
 840f114:	dec00204 	addi	sp,sp,8
 840f118:	f800283a 	ret

0840f11c <alt_get_fd>:
 * the offset of the file descriptor within the file descriptor array). A
 * negative value indicates failure.
 */

int alt_get_fd (alt_dev* dev)
{
 840f11c:	defffc04 	addi	sp,sp,-16
 840f120:	df000315 	stw	fp,12(sp)
 840f124:	df000304 	addi	fp,sp,12
 840f128:	e13fff15 	stw	r4,-4(fp)
  alt_32 i;
  int rc = -EMFILE;
 840f12c:	00bffa04 	movi	r2,-24
 840f130:	e0bffe15 	stw	r2,-8(fp)
   * indicates the highest file descriptor ever allocated. This is used to
   * improve efficency when searching the file descriptor list, and 
   * therefore reduce contention on the alt_fd_list_lock semaphore. 
   */

  for (i = 0; i < ALT_MAX_FD; i++)
 840f134:	e03ffd15 	stw	zero,-12(fp)
 840f138:	00001906 	br	840f1a0 <alt_get_fd+0x84>
  {
    if (!alt_fd_list[i].dev)
 840f13c:	00821134 	movhi	r2,2116
 840f140:	10ab9d04 	addi	r2,r2,-20876
 840f144:	e0fffd17 	ldw	r3,-12(fp)
 840f148:	18c00324 	muli	r3,r3,12
 840f14c:	10c5883a 	add	r2,r2,r3
 840f150:	10800017 	ldw	r2,0(r2)
 840f154:	10000f1e 	bne	r2,zero,840f194 <alt_get_fd+0x78>
    {
      alt_fd_list[i].dev = dev;
 840f158:	00821134 	movhi	r2,2116
 840f15c:	10ab9d04 	addi	r2,r2,-20876
 840f160:	e0fffd17 	ldw	r3,-12(fp)
 840f164:	18c00324 	muli	r3,r3,12
 840f168:	10c5883a 	add	r2,r2,r3
 840f16c:	e0ffff17 	ldw	r3,-4(fp)
 840f170:	10c00015 	stw	r3,0(r2)
      if (i > alt_max_fd)
 840f174:	d0e00917 	ldw	r3,-32732(gp)
 840f178:	e0bffd17 	ldw	r2,-12(fp)
 840f17c:	1880020e 	bge	r3,r2,840f188 <alt_get_fd+0x6c>
      {
        alt_max_fd = i;
 840f180:	e0bffd17 	ldw	r2,-12(fp)
 840f184:	d0a00915 	stw	r2,-32732(gp)
      }
      rc = i;
 840f188:	e0bffd17 	ldw	r2,-12(fp)
 840f18c:	e0bffe15 	stw	r2,-8(fp)
      goto alt_get_fd_exit;
 840f190:	00000606 	br	840f1ac <alt_get_fd+0x90>
   * indicates the highest file descriptor ever allocated. This is used to
   * improve efficency when searching the file descriptor list, and 
   * therefore reduce contention on the alt_fd_list_lock semaphore. 
   */

  for (i = 0; i < ALT_MAX_FD; i++)
 840f194:	e0bffd17 	ldw	r2,-12(fp)
 840f198:	10800044 	addi	r2,r2,1
 840f19c:	e0bffd15 	stw	r2,-12(fp)
 840f1a0:	e0bffd17 	ldw	r2,-12(fp)
 840f1a4:	10800810 	cmplti	r2,r2,32
 840f1a8:	103fe41e 	bne	r2,zero,840f13c <__alt_data_end+0xfc40f13c>
   * file descriptor pool.
   */

  ALT_SEM_POST(alt_fd_list_lock);

  return rc;
 840f1ac:	e0bffe17 	ldw	r2,-8(fp)
}
 840f1b0:	e037883a 	mov	sp,fp
 840f1b4:	df000017 	ldw	fp,0(sp)
 840f1b8:	dec00104 	addi	sp,sp,4
 840f1bc:	f800283a 	ret

0840f1c0 <alt_icache_flush>:
 * alt_icache_flush() is called to flush the instruction cache for a memory
 * region of length "len" bytes, starting at address "start".
 */

void alt_icache_flush (void* start, alt_u32 len)
{
 840f1c0:	defffb04 	addi	sp,sp,-20
 840f1c4:	df000415 	stw	fp,16(sp)
 840f1c8:	df000404 	addi	fp,sp,16
 840f1cc:	e13ffe15 	stw	r4,-8(fp)
 840f1d0:	e17fff15 	stw	r5,-4(fp)

  /*
   * This is the most we would ever need to flush.
   */
 
  if (len > NIOS2_ICACHE_SIZE)
 840f1d4:	e0bfff17 	ldw	r2,-4(fp)
 840f1d8:	10880070 	cmpltui	r2,r2,8193
 840f1dc:	1000021e 	bne	r2,zero,840f1e8 <alt_icache_flush+0x28>
  {
    len = NIOS2_ICACHE_SIZE;
 840f1e0:	00880004 	movi	r2,8192
 840f1e4:	e0bfff15 	stw	r2,-4(fp)
  }

  end = ((char*) start) + len;
 840f1e8:	e0fffe17 	ldw	r3,-8(fp)
 840f1ec:	e0bfff17 	ldw	r2,-4(fp)
 840f1f0:	1885883a 	add	r2,r3,r2
 840f1f4:	e0bffd15 	stw	r2,-12(fp)

  for (i = start; i < end; i+= NIOS2_ICACHE_LINE_SIZE)
 840f1f8:	e0bffe17 	ldw	r2,-8(fp)
 840f1fc:	e0bffc15 	stw	r2,-16(fp)
 840f200:	00000506 	br	840f218 <alt_icache_flush+0x58>
  { 
    __asm__ volatile ("flushi %0" :: "r" (i)); 
 840f204:	e0bffc17 	ldw	r2,-16(fp)
 840f208:	1000603a 	flushi	r2
    len = NIOS2_ICACHE_SIZE;
  }

  end = ((char*) start) + len;

  for (i = start; i < end; i+= NIOS2_ICACHE_LINE_SIZE)
 840f20c:	e0bffc17 	ldw	r2,-16(fp)
 840f210:	10800804 	addi	r2,r2,32
 840f214:	e0bffc15 	stw	r2,-16(fp)
 840f218:	e0fffc17 	ldw	r3,-16(fp)
 840f21c:	e0bffd17 	ldw	r2,-12(fp)
 840f220:	18bff836 	bltu	r3,r2,840f204 <__alt_data_end+0xfc40f204>
   * For an unaligned flush request, we've got one more line left.
   * Note that this is dependent on NIOS2_ICACHE_LINE_SIZE to be a 
   * multiple of 2 (which it always is).
   */

  if (((alt_u32) start) & (NIOS2_ICACHE_LINE_SIZE - 1))
 840f224:	e0bffe17 	ldw	r2,-8(fp)
 840f228:	108007cc 	andi	r2,r2,31
 840f22c:	10000226 	beq	r2,zero,840f238 <alt_icache_flush+0x78>
  {
    __asm__ volatile ("flushi %0" :: "r" (i));
 840f230:	e0bffc17 	ldw	r2,-16(fp)
 840f234:	1000603a 	flushi	r2
  /* 
   * Having flushed the cache, flush any stale instructions in the 
   * pipeline 
   */

  __asm__ volatile ("flushp");
 840f238:	0000203a 	flushp

#endif /* NIOS2_ICACHE_SIZE > 0 */
}
 840f23c:	0001883a 	nop
 840f240:	e037883a 	mov	sp,fp
 840f244:	df000017 	ldw	fp,0(sp)
 840f248:	dec00104 	addi	sp,sp,4
 840f24c:	f800283a 	ret

0840f250 <atexit>:
 840f250:	200b883a 	mov	r5,r4
 840f254:	000f883a 	mov	r7,zero
 840f258:	000d883a 	mov	r6,zero
 840f25c:	0009883a 	mov	r4,zero
 840f260:	840f3181 	jmpi	840f318 <__register_exitproc>

0840f264 <exit>:
 840f264:	defffe04 	addi	sp,sp,-8
 840f268:	000b883a 	mov	r5,zero
 840f26c:	dc000015 	stw	r16,0(sp)
 840f270:	dfc00115 	stw	ra,4(sp)
 840f274:	2021883a 	mov	r16,r4
 840f278:	840f4300 	call	840f430 <__call_exitprocs>
 840f27c:	00821134 	movhi	r2,2116
 840f280:	10b01604 	addi	r2,r2,-16296
 840f284:	11000017 	ldw	r4,0(r2)
 840f288:	20800f17 	ldw	r2,60(r4)
 840f28c:	10000126 	beq	r2,zero,840f294 <exit+0x30>
 840f290:	103ee83a 	callr	r2
 840f294:	8009883a 	mov	r4,r16
 840f298:	840fae80 	call	840fae8 <_exit>

0840f29c <memcmp>:
 840f29c:	01c000c4 	movi	r7,3
 840f2a0:	3980192e 	bgeu	r7,r6,840f308 <memcmp+0x6c>
 840f2a4:	2144b03a 	or	r2,r4,r5
 840f2a8:	11c4703a 	and	r2,r2,r7
 840f2ac:	10000f26 	beq	r2,zero,840f2ec <memcmp+0x50>
 840f2b0:	20800003 	ldbu	r2,0(r4)
 840f2b4:	28c00003 	ldbu	r3,0(r5)
 840f2b8:	10c0151e 	bne	r2,r3,840f310 <memcmp+0x74>
 840f2bc:	31bfff84 	addi	r6,r6,-2
 840f2c0:	01ffffc4 	movi	r7,-1
 840f2c4:	00000406 	br	840f2d8 <memcmp+0x3c>
 840f2c8:	20800003 	ldbu	r2,0(r4)
 840f2cc:	28c00003 	ldbu	r3,0(r5)
 840f2d0:	31bfffc4 	addi	r6,r6,-1
 840f2d4:	10c00e1e 	bne	r2,r3,840f310 <memcmp+0x74>
 840f2d8:	21000044 	addi	r4,r4,1
 840f2dc:	29400044 	addi	r5,r5,1
 840f2e0:	31fff91e 	bne	r6,r7,840f2c8 <__alt_data_end+0xfc40f2c8>
 840f2e4:	0005883a 	mov	r2,zero
 840f2e8:	f800283a 	ret
 840f2ec:	20c00017 	ldw	r3,0(r4)
 840f2f0:	28800017 	ldw	r2,0(r5)
 840f2f4:	18bfee1e 	bne	r3,r2,840f2b0 <__alt_data_end+0xfc40f2b0>
 840f2f8:	31bfff04 	addi	r6,r6,-4
 840f2fc:	21000104 	addi	r4,r4,4
 840f300:	29400104 	addi	r5,r5,4
 840f304:	39bff936 	bltu	r7,r6,840f2ec <__alt_data_end+0xfc40f2ec>
 840f308:	303fe91e 	bne	r6,zero,840f2b0 <__alt_data_end+0xfc40f2b0>
 840f30c:	003ff506 	br	840f2e4 <__alt_data_end+0xfc40f2e4>
 840f310:	10c5c83a 	sub	r2,r2,r3
 840f314:	f800283a 	ret

0840f318 <__register_exitproc>:
 840f318:	defffa04 	addi	sp,sp,-24
 840f31c:	dc000315 	stw	r16,12(sp)
 840f320:	04021134 	movhi	r16,2116
 840f324:	84301604 	addi	r16,r16,-16296
 840f328:	80c00017 	ldw	r3,0(r16)
 840f32c:	dc400415 	stw	r17,16(sp)
 840f330:	dfc00515 	stw	ra,20(sp)
 840f334:	18805217 	ldw	r2,328(r3)
 840f338:	2023883a 	mov	r17,r4
 840f33c:	10003726 	beq	r2,zero,840f41c <__register_exitproc+0x104>
 840f340:	10c00117 	ldw	r3,4(r2)
 840f344:	010007c4 	movi	r4,31
 840f348:	20c00e16 	blt	r4,r3,840f384 <__register_exitproc+0x6c>
 840f34c:	1a000044 	addi	r8,r3,1
 840f350:	8800221e 	bne	r17,zero,840f3dc <__register_exitproc+0xc4>
 840f354:	18c00084 	addi	r3,r3,2
 840f358:	18c7883a 	add	r3,r3,r3
 840f35c:	18c7883a 	add	r3,r3,r3
 840f360:	12000115 	stw	r8,4(r2)
 840f364:	10c7883a 	add	r3,r2,r3
 840f368:	19400015 	stw	r5,0(r3)
 840f36c:	0005883a 	mov	r2,zero
 840f370:	dfc00517 	ldw	ra,20(sp)
 840f374:	dc400417 	ldw	r17,16(sp)
 840f378:	dc000317 	ldw	r16,12(sp)
 840f37c:	dec00604 	addi	sp,sp,24
 840f380:	f800283a 	ret
 840f384:	00821074 	movhi	r2,2113
 840f388:	10a5aa04 	addi	r2,r2,-26968
 840f38c:	10002626 	beq	r2,zero,840f428 <__register_exitproc+0x110>
 840f390:	01006404 	movi	r4,400
 840f394:	d9400015 	stw	r5,0(sp)
 840f398:	d9800115 	stw	r6,4(sp)
 840f39c:	d9c00215 	stw	r7,8(sp)
 840f3a0:	84096a80 	call	84096a8 <malloc>
 840f3a4:	d9400017 	ldw	r5,0(sp)
 840f3a8:	d9800117 	ldw	r6,4(sp)
 840f3ac:	d9c00217 	ldw	r7,8(sp)
 840f3b0:	10001d26 	beq	r2,zero,840f428 <__register_exitproc+0x110>
 840f3b4:	81000017 	ldw	r4,0(r16)
 840f3b8:	10000115 	stw	zero,4(r2)
 840f3bc:	02000044 	movi	r8,1
 840f3c0:	22405217 	ldw	r9,328(r4)
 840f3c4:	0007883a 	mov	r3,zero
 840f3c8:	12400015 	stw	r9,0(r2)
 840f3cc:	20805215 	stw	r2,328(r4)
 840f3d0:	10006215 	stw	zero,392(r2)
 840f3d4:	10006315 	stw	zero,396(r2)
 840f3d8:	883fde26 	beq	r17,zero,840f354 <__alt_data_end+0xfc40f354>
 840f3dc:	18c9883a 	add	r4,r3,r3
 840f3e0:	2109883a 	add	r4,r4,r4
 840f3e4:	1109883a 	add	r4,r2,r4
 840f3e8:	21802215 	stw	r6,136(r4)
 840f3ec:	01800044 	movi	r6,1
 840f3f0:	12406217 	ldw	r9,392(r2)
 840f3f4:	30cc983a 	sll	r6,r6,r3
 840f3f8:	4992b03a 	or	r9,r9,r6
 840f3fc:	12406215 	stw	r9,392(r2)
 840f400:	21c04215 	stw	r7,264(r4)
 840f404:	01000084 	movi	r4,2
 840f408:	893fd21e 	bne	r17,r4,840f354 <__alt_data_end+0xfc40f354>
 840f40c:	11006317 	ldw	r4,396(r2)
 840f410:	218cb03a 	or	r6,r4,r6
 840f414:	11806315 	stw	r6,396(r2)
 840f418:	003fce06 	br	840f354 <__alt_data_end+0xfc40f354>
 840f41c:	18805304 	addi	r2,r3,332
 840f420:	18805215 	stw	r2,328(r3)
 840f424:	003fc606 	br	840f340 <__alt_data_end+0xfc40f340>
 840f428:	00bfffc4 	movi	r2,-1
 840f42c:	003fd006 	br	840f370 <__alt_data_end+0xfc40f370>

0840f430 <__call_exitprocs>:
 840f430:	defff504 	addi	sp,sp,-44
 840f434:	df000915 	stw	fp,36(sp)
 840f438:	dd400615 	stw	r21,24(sp)
 840f43c:	dc800315 	stw	r18,12(sp)
 840f440:	dfc00a15 	stw	ra,40(sp)
 840f444:	ddc00815 	stw	r23,32(sp)
 840f448:	dd800715 	stw	r22,28(sp)
 840f44c:	dd000515 	stw	r20,20(sp)
 840f450:	dcc00415 	stw	r19,16(sp)
 840f454:	dc400215 	stw	r17,8(sp)
 840f458:	dc000115 	stw	r16,4(sp)
 840f45c:	d9000015 	stw	r4,0(sp)
 840f460:	2839883a 	mov	fp,r5
 840f464:	04800044 	movi	r18,1
 840f468:	057fffc4 	movi	r21,-1
 840f46c:	00821134 	movhi	r2,2116
 840f470:	10b01604 	addi	r2,r2,-16296
 840f474:	12000017 	ldw	r8,0(r2)
 840f478:	45005217 	ldw	r20,328(r8)
 840f47c:	44c05204 	addi	r19,r8,328
 840f480:	a0001c26 	beq	r20,zero,840f4f4 <__call_exitprocs+0xc4>
 840f484:	a0800117 	ldw	r2,4(r20)
 840f488:	15ffffc4 	addi	r23,r2,-1
 840f48c:	b8000d16 	blt	r23,zero,840f4c4 <__call_exitprocs+0x94>
 840f490:	14000044 	addi	r16,r2,1
 840f494:	8421883a 	add	r16,r16,r16
 840f498:	8421883a 	add	r16,r16,r16
 840f49c:	84402004 	addi	r17,r16,128
 840f4a0:	a463883a 	add	r17,r20,r17
 840f4a4:	a421883a 	add	r16,r20,r16
 840f4a8:	e0001e26 	beq	fp,zero,840f524 <__call_exitprocs+0xf4>
 840f4ac:	80804017 	ldw	r2,256(r16)
 840f4b0:	e0801c26 	beq	fp,r2,840f524 <__call_exitprocs+0xf4>
 840f4b4:	bdffffc4 	addi	r23,r23,-1
 840f4b8:	843fff04 	addi	r16,r16,-4
 840f4bc:	8c7fff04 	addi	r17,r17,-4
 840f4c0:	bd7ff91e 	bne	r23,r21,840f4a8 <__alt_data_end+0xfc40f4a8>
 840f4c4:	00821074 	movhi	r2,2113
 840f4c8:	10a5af04 	addi	r2,r2,-26948
 840f4cc:	10000926 	beq	r2,zero,840f4f4 <__call_exitprocs+0xc4>
 840f4d0:	a0800117 	ldw	r2,4(r20)
 840f4d4:	1000301e 	bne	r2,zero,840f598 <__call_exitprocs+0x168>
 840f4d8:	a0800017 	ldw	r2,0(r20)
 840f4dc:	10003226 	beq	r2,zero,840f5a8 <__call_exitprocs+0x178>
 840f4e0:	a009883a 	mov	r4,r20
 840f4e4:	98800015 	stw	r2,0(r19)
 840f4e8:	84096bc0 	call	84096bc <free>
 840f4ec:	9d000017 	ldw	r20,0(r19)
 840f4f0:	a03fe41e 	bne	r20,zero,840f484 <__alt_data_end+0xfc40f484>
 840f4f4:	dfc00a17 	ldw	ra,40(sp)
 840f4f8:	df000917 	ldw	fp,36(sp)
 840f4fc:	ddc00817 	ldw	r23,32(sp)
 840f500:	dd800717 	ldw	r22,28(sp)
 840f504:	dd400617 	ldw	r21,24(sp)
 840f508:	dd000517 	ldw	r20,20(sp)
 840f50c:	dcc00417 	ldw	r19,16(sp)
 840f510:	dc800317 	ldw	r18,12(sp)
 840f514:	dc400217 	ldw	r17,8(sp)
 840f518:	dc000117 	ldw	r16,4(sp)
 840f51c:	dec00b04 	addi	sp,sp,44
 840f520:	f800283a 	ret
 840f524:	a0800117 	ldw	r2,4(r20)
 840f528:	80c00017 	ldw	r3,0(r16)
 840f52c:	10bfffc4 	addi	r2,r2,-1
 840f530:	15c01426 	beq	r2,r23,840f584 <__call_exitprocs+0x154>
 840f534:	80000015 	stw	zero,0(r16)
 840f538:	183fde26 	beq	r3,zero,840f4b4 <__alt_data_end+0xfc40f4b4>
 840f53c:	95c8983a 	sll	r4,r18,r23
 840f540:	a0806217 	ldw	r2,392(r20)
 840f544:	a5800117 	ldw	r22,4(r20)
 840f548:	2084703a 	and	r2,r4,r2
 840f54c:	10000b26 	beq	r2,zero,840f57c <__call_exitprocs+0x14c>
 840f550:	a0806317 	ldw	r2,396(r20)
 840f554:	2088703a 	and	r4,r4,r2
 840f558:	20000c1e 	bne	r4,zero,840f58c <__call_exitprocs+0x15c>
 840f55c:	89400017 	ldw	r5,0(r17)
 840f560:	d9000017 	ldw	r4,0(sp)
 840f564:	183ee83a 	callr	r3
 840f568:	a0800117 	ldw	r2,4(r20)
 840f56c:	15bfbf1e 	bne	r2,r22,840f46c <__alt_data_end+0xfc40f46c>
 840f570:	98800017 	ldw	r2,0(r19)
 840f574:	153fcf26 	beq	r2,r20,840f4b4 <__alt_data_end+0xfc40f4b4>
 840f578:	003fbc06 	br	840f46c <__alt_data_end+0xfc40f46c>
 840f57c:	183ee83a 	callr	r3
 840f580:	003ff906 	br	840f568 <__alt_data_end+0xfc40f568>
 840f584:	a5c00115 	stw	r23,4(r20)
 840f588:	003feb06 	br	840f538 <__alt_data_end+0xfc40f538>
 840f58c:	89000017 	ldw	r4,0(r17)
 840f590:	183ee83a 	callr	r3
 840f594:	003ff406 	br	840f568 <__alt_data_end+0xfc40f568>
 840f598:	a0800017 	ldw	r2,0(r20)
 840f59c:	a027883a 	mov	r19,r20
 840f5a0:	1029883a 	mov	r20,r2
 840f5a4:	003fb606 	br	840f480 <__alt_data_end+0xfc40f480>
 840f5a8:	0005883a 	mov	r2,zero
 840f5ac:	003ffb06 	br	840f59c <__alt_data_end+0xfc40f59c>

0840f5b0 <__umoddi3>:
 840f5b0:	defff404 	addi	sp,sp,-48
 840f5b4:	df000a15 	stw	fp,40(sp)
 840f5b8:	dc400315 	stw	r17,12(sp)
 840f5bc:	dc000215 	stw	r16,8(sp)
 840f5c0:	dfc00b15 	stw	ra,44(sp)
 840f5c4:	ddc00915 	stw	r23,36(sp)
 840f5c8:	dd800815 	stw	r22,32(sp)
 840f5cc:	dd400715 	stw	r21,28(sp)
 840f5d0:	dd000615 	stw	r20,24(sp)
 840f5d4:	dcc00515 	stw	r19,20(sp)
 840f5d8:	dc800415 	stw	r18,16(sp)
 840f5dc:	2021883a 	mov	r16,r4
 840f5e0:	2823883a 	mov	r17,r5
 840f5e4:	2839883a 	mov	fp,r5
 840f5e8:	38003c1e 	bne	r7,zero,840f6dc <__umoddi3+0x12c>
 840f5ec:	3027883a 	mov	r19,r6
 840f5f0:	2029883a 	mov	r20,r4
 840f5f4:	2980512e 	bgeu	r5,r6,840f73c <__umoddi3+0x18c>
 840f5f8:	00bfffd4 	movui	r2,65535
 840f5fc:	11809a36 	bltu	r2,r6,840f868 <__umoddi3+0x2b8>
 840f600:	01003fc4 	movi	r4,255
 840f604:	2189803a 	cmpltu	r4,r4,r6
 840f608:	200890fa 	slli	r4,r4,3
 840f60c:	3104d83a 	srl	r2,r6,r4
 840f610:	00c21134 	movhi	r3,2116
 840f614:	18e35844 	addi	r3,r3,-29343
 840f618:	1885883a 	add	r2,r3,r2
 840f61c:	10c00003 	ldbu	r3,0(r2)
 840f620:	00800804 	movi	r2,32
 840f624:	1909883a 	add	r4,r3,r4
 840f628:	1125c83a 	sub	r18,r2,r4
 840f62c:	90000526 	beq	r18,zero,840f644 <__umoddi3+0x94>
 840f630:	8ca2983a 	sll	r17,r17,r18
 840f634:	8108d83a 	srl	r4,r16,r4
 840f638:	34a6983a 	sll	r19,r6,r18
 840f63c:	84a8983a 	sll	r20,r16,r18
 840f640:	2478b03a 	or	fp,r4,r17
 840f644:	982ed43a 	srli	r23,r19,16
 840f648:	e009883a 	mov	r4,fp
 840f64c:	9dbfffcc 	andi	r22,r19,65535
 840f650:	b80b883a 	mov	r5,r23
 840f654:	84071080 	call	8407108 <__umodsi3>
 840f658:	e009883a 	mov	r4,fp
 840f65c:	b80b883a 	mov	r5,r23
 840f660:	102b883a 	mov	r21,r2
 840f664:	84070a40 	call	84070a4 <__udivsi3>
 840f668:	a806943a 	slli	r3,r21,16
 840f66c:	a008d43a 	srli	r4,r20,16
 840f670:	b085383a 	mul	r2,r22,r2
 840f674:	20c8b03a 	or	r4,r4,r3
 840f678:	2080032e 	bgeu	r4,r2,840f688 <__umoddi3+0xd8>
 840f67c:	24c9883a 	add	r4,r4,r19
 840f680:	24c00136 	bltu	r4,r19,840f688 <__umoddi3+0xd8>
 840f684:	20811036 	bltu	r4,r2,840fac8 <__umoddi3+0x518>
 840f688:	20abc83a 	sub	r21,r4,r2
 840f68c:	b80b883a 	mov	r5,r23
 840f690:	a809883a 	mov	r4,r21
 840f694:	84071080 	call	8407108 <__umodsi3>
 840f698:	1023883a 	mov	r17,r2
 840f69c:	b80b883a 	mov	r5,r23
 840f6a0:	a809883a 	mov	r4,r21
 840f6a4:	84070a40 	call	84070a4 <__udivsi3>
 840f6a8:	8822943a 	slli	r17,r17,16
 840f6ac:	b085383a 	mul	r2,r22,r2
 840f6b0:	a0ffffcc 	andi	r3,r20,65535
 840f6b4:	1c46b03a 	or	r3,r3,r17
 840f6b8:	1880042e 	bgeu	r3,r2,840f6cc <__umoddi3+0x11c>
 840f6bc:	1cc7883a 	add	r3,r3,r19
 840f6c0:	1cc00236 	bltu	r3,r19,840f6cc <__umoddi3+0x11c>
 840f6c4:	1880012e 	bgeu	r3,r2,840f6cc <__umoddi3+0x11c>
 840f6c8:	1cc7883a 	add	r3,r3,r19
 840f6cc:	1885c83a 	sub	r2,r3,r2
 840f6d0:	1484d83a 	srl	r2,r2,r18
 840f6d4:	0007883a 	mov	r3,zero
 840f6d8:	00004f06 	br	840f818 <__umoddi3+0x268>
 840f6dc:	29c04c36 	bltu	r5,r7,840f810 <__umoddi3+0x260>
 840f6e0:	00bfffd4 	movui	r2,65535
 840f6e4:	11c0582e 	bgeu	r2,r7,840f848 <__umoddi3+0x298>
 840f6e8:	00804034 	movhi	r2,256
 840f6ec:	10bfffc4 	addi	r2,r2,-1
 840f6f0:	11c0e736 	bltu	r2,r7,840fa90 <__umoddi3+0x4e0>
 840f6f4:	01000404 	movi	r4,16
 840f6f8:	3904d83a 	srl	r2,r7,r4
 840f6fc:	00c21134 	movhi	r3,2116
 840f700:	18e35844 	addi	r3,r3,-29343
 840f704:	1885883a 	add	r2,r3,r2
 840f708:	14c00003 	ldbu	r19,0(r2)
 840f70c:	00c00804 	movi	r3,32
 840f710:	9927883a 	add	r19,r19,r4
 840f714:	1ce9c83a 	sub	r20,r3,r19
 840f718:	a000581e 	bne	r20,zero,840f87c <__umoddi3+0x2cc>
 840f71c:	3c400136 	bltu	r7,r17,840f724 <__umoddi3+0x174>
 840f720:	8180eb36 	bltu	r16,r6,840fad0 <__umoddi3+0x520>
 840f724:	8185c83a 	sub	r2,r16,r6
 840f728:	89e3c83a 	sub	r17,r17,r7
 840f72c:	8089803a 	cmpltu	r4,r16,r2
 840f730:	8939c83a 	sub	fp,r17,r4
 840f734:	e007883a 	mov	r3,fp
 840f738:	00003706 	br	840f818 <__umoddi3+0x268>
 840f73c:	3000041e 	bne	r6,zero,840f750 <__umoddi3+0x1a0>
 840f740:	000b883a 	mov	r5,zero
 840f744:	01000044 	movi	r4,1
 840f748:	84070a40 	call	84070a4 <__udivsi3>
 840f74c:	1027883a 	mov	r19,r2
 840f750:	00bfffd4 	movui	r2,65535
 840f754:	14c0402e 	bgeu	r2,r19,840f858 <__umoddi3+0x2a8>
 840f758:	00804034 	movhi	r2,256
 840f75c:	10bfffc4 	addi	r2,r2,-1
 840f760:	14c0cd36 	bltu	r2,r19,840fa98 <__umoddi3+0x4e8>
 840f764:	00800404 	movi	r2,16
 840f768:	9886d83a 	srl	r3,r19,r2
 840f76c:	01021134 	movhi	r4,2116
 840f770:	21235844 	addi	r4,r4,-29343
 840f774:	20c7883a 	add	r3,r4,r3
 840f778:	18c00003 	ldbu	r3,0(r3)
 840f77c:	1887883a 	add	r3,r3,r2
 840f780:	00800804 	movi	r2,32
 840f784:	10e5c83a 	sub	r18,r2,r3
 840f788:	9000901e 	bne	r18,zero,840f9cc <__umoddi3+0x41c>
 840f78c:	982cd43a 	srli	r22,r19,16
 840f790:	8ce3c83a 	sub	r17,r17,r19
 840f794:	9d7fffcc 	andi	r21,r19,65535
 840f798:	b00b883a 	mov	r5,r22
 840f79c:	8809883a 	mov	r4,r17
 840f7a0:	84071080 	call	8407108 <__umodsi3>
 840f7a4:	8809883a 	mov	r4,r17
 840f7a8:	b00b883a 	mov	r5,r22
 840f7ac:	1021883a 	mov	r16,r2
 840f7b0:	84070a40 	call	84070a4 <__udivsi3>
 840f7b4:	8006943a 	slli	r3,r16,16
 840f7b8:	a008d43a 	srli	r4,r20,16
 840f7bc:	1545383a 	mul	r2,r2,r21
 840f7c0:	20c8b03a 	or	r4,r4,r3
 840f7c4:	2080042e 	bgeu	r4,r2,840f7d8 <__umoddi3+0x228>
 840f7c8:	24c9883a 	add	r4,r4,r19
 840f7cc:	24c00236 	bltu	r4,r19,840f7d8 <__umoddi3+0x228>
 840f7d0:	2080012e 	bgeu	r4,r2,840f7d8 <__umoddi3+0x228>
 840f7d4:	24c9883a 	add	r4,r4,r19
 840f7d8:	20a1c83a 	sub	r16,r4,r2
 840f7dc:	b00b883a 	mov	r5,r22
 840f7e0:	8009883a 	mov	r4,r16
 840f7e4:	84071080 	call	8407108 <__umodsi3>
 840f7e8:	1023883a 	mov	r17,r2
 840f7ec:	b00b883a 	mov	r5,r22
 840f7f0:	8009883a 	mov	r4,r16
 840f7f4:	84070a40 	call	84070a4 <__udivsi3>
 840f7f8:	8822943a 	slli	r17,r17,16
 840f7fc:	1545383a 	mul	r2,r2,r21
 840f800:	a53fffcc 	andi	r20,r20,65535
 840f804:	a446b03a 	or	r3,r20,r17
 840f808:	18bfb02e 	bgeu	r3,r2,840f6cc <__alt_data_end+0xfc40f6cc>
 840f80c:	003fab06 	br	840f6bc <__alt_data_end+0xfc40f6bc>
 840f810:	2005883a 	mov	r2,r4
 840f814:	2807883a 	mov	r3,r5
 840f818:	dfc00b17 	ldw	ra,44(sp)
 840f81c:	df000a17 	ldw	fp,40(sp)
 840f820:	ddc00917 	ldw	r23,36(sp)
 840f824:	dd800817 	ldw	r22,32(sp)
 840f828:	dd400717 	ldw	r21,28(sp)
 840f82c:	dd000617 	ldw	r20,24(sp)
 840f830:	dcc00517 	ldw	r19,20(sp)
 840f834:	dc800417 	ldw	r18,16(sp)
 840f838:	dc400317 	ldw	r17,12(sp)
 840f83c:	dc000217 	ldw	r16,8(sp)
 840f840:	dec00c04 	addi	sp,sp,48
 840f844:	f800283a 	ret
 840f848:	04c03fc4 	movi	r19,255
 840f84c:	99c9803a 	cmpltu	r4,r19,r7
 840f850:	200890fa 	slli	r4,r4,3
 840f854:	003fa806 	br	840f6f8 <__alt_data_end+0xfc40f6f8>
 840f858:	00803fc4 	movi	r2,255
 840f85c:	14c5803a 	cmpltu	r2,r2,r19
 840f860:	100490fa 	slli	r2,r2,3
 840f864:	003fc006 	br	840f768 <__alt_data_end+0xfc40f768>
 840f868:	00804034 	movhi	r2,256
 840f86c:	10bfffc4 	addi	r2,r2,-1
 840f870:	11808b36 	bltu	r2,r6,840faa0 <__umoddi3+0x4f0>
 840f874:	01000404 	movi	r4,16
 840f878:	003f6406 	br	840f60c <__alt_data_end+0xfc40f60c>
 840f87c:	34c4d83a 	srl	r2,r6,r19
 840f880:	3d0e983a 	sll	r7,r7,r20
 840f884:	8cf8d83a 	srl	fp,r17,r19
 840f888:	8d10983a 	sll	r8,r17,r20
 840f88c:	38aab03a 	or	r21,r7,r2
 840f890:	a82cd43a 	srli	r22,r21,16
 840f894:	84e2d83a 	srl	r17,r16,r19
 840f898:	e009883a 	mov	r4,fp
 840f89c:	b00b883a 	mov	r5,r22
 840f8a0:	8a22b03a 	or	r17,r17,r8
 840f8a4:	3524983a 	sll	r18,r6,r20
 840f8a8:	84071080 	call	8407108 <__umodsi3>
 840f8ac:	e009883a 	mov	r4,fp
 840f8b0:	b00b883a 	mov	r5,r22
 840f8b4:	102f883a 	mov	r23,r2
 840f8b8:	84070a40 	call	84070a4 <__udivsi3>
 840f8bc:	100d883a 	mov	r6,r2
 840f8c0:	b808943a 	slli	r4,r23,16
 840f8c4:	aa3fffcc 	andi	r8,r21,65535
 840f8c8:	8804d43a 	srli	r2,r17,16
 840f8cc:	41af383a 	mul	r23,r8,r6
 840f8d0:	8520983a 	sll	r16,r16,r20
 840f8d4:	1104b03a 	or	r2,r2,r4
 840f8d8:	15c0042e 	bgeu	r2,r23,840f8ec <__umoddi3+0x33c>
 840f8dc:	1545883a 	add	r2,r2,r21
 840f8e0:	30ffffc4 	addi	r3,r6,-1
 840f8e4:	1540742e 	bgeu	r2,r21,840fab8 <__umoddi3+0x508>
 840f8e8:	180d883a 	mov	r6,r3
 840f8ec:	15efc83a 	sub	r23,r2,r23
 840f8f0:	b00b883a 	mov	r5,r22
 840f8f4:	b809883a 	mov	r4,r23
 840f8f8:	d9800115 	stw	r6,4(sp)
 840f8fc:	da000015 	stw	r8,0(sp)
 840f900:	84071080 	call	8407108 <__umodsi3>
 840f904:	b00b883a 	mov	r5,r22
 840f908:	b809883a 	mov	r4,r23
 840f90c:	1039883a 	mov	fp,r2
 840f910:	84070a40 	call	84070a4 <__udivsi3>
 840f914:	da000017 	ldw	r8,0(sp)
 840f918:	e038943a 	slli	fp,fp,16
 840f91c:	100b883a 	mov	r5,r2
 840f920:	4089383a 	mul	r4,r8,r2
 840f924:	8a3fffcc 	andi	r8,r17,65535
 840f928:	4710b03a 	or	r8,r8,fp
 840f92c:	d9800117 	ldw	r6,4(sp)
 840f930:	4100042e 	bgeu	r8,r4,840f944 <__umoddi3+0x394>
 840f934:	4551883a 	add	r8,r8,r21
 840f938:	10bfffc4 	addi	r2,r2,-1
 840f93c:	45405a2e 	bgeu	r8,r21,840faa8 <__umoddi3+0x4f8>
 840f940:	100b883a 	mov	r5,r2
 840f944:	300c943a 	slli	r6,r6,16
 840f948:	91ffffcc 	andi	r7,r18,65535
 840f94c:	9004d43a 	srli	r2,r18,16
 840f950:	314cb03a 	or	r6,r6,r5
 840f954:	317fffcc 	andi	r5,r6,65535
 840f958:	300cd43a 	srli	r6,r6,16
 840f95c:	29d3383a 	mul	r9,r5,r7
 840f960:	288b383a 	mul	r5,r5,r2
 840f964:	31cf383a 	mul	r7,r6,r7
 840f968:	4806d43a 	srli	r3,r9,16
 840f96c:	4111c83a 	sub	r8,r8,r4
 840f970:	29cb883a 	add	r5,r5,r7
 840f974:	194b883a 	add	r5,r3,r5
 840f978:	3085383a 	mul	r2,r6,r2
 840f97c:	29c0022e 	bgeu	r5,r7,840f988 <__umoddi3+0x3d8>
 840f980:	00c00074 	movhi	r3,1
 840f984:	10c5883a 	add	r2,r2,r3
 840f988:	2808d43a 	srli	r4,r5,16
 840f98c:	280a943a 	slli	r5,r5,16
 840f990:	4a7fffcc 	andi	r9,r9,65535
 840f994:	2085883a 	add	r2,r4,r2
 840f998:	2a4b883a 	add	r5,r5,r9
 840f99c:	40803636 	bltu	r8,r2,840fa78 <__umoddi3+0x4c8>
 840f9a0:	40804d26 	beq	r8,r2,840fad8 <__umoddi3+0x528>
 840f9a4:	4089c83a 	sub	r4,r8,r2
 840f9a8:	280f883a 	mov	r7,r5
 840f9ac:	81cfc83a 	sub	r7,r16,r7
 840f9b0:	81c7803a 	cmpltu	r3,r16,r7
 840f9b4:	20c7c83a 	sub	r3,r4,r3
 840f9b8:	1cc4983a 	sll	r2,r3,r19
 840f9bc:	3d0ed83a 	srl	r7,r7,r20
 840f9c0:	1d06d83a 	srl	r3,r3,r20
 840f9c4:	11c4b03a 	or	r2,r2,r7
 840f9c8:	003f9306 	br	840f818 <__alt_data_end+0xfc40f818>
 840f9cc:	9ca6983a 	sll	r19,r19,r18
 840f9d0:	88e8d83a 	srl	r20,r17,r3
 840f9d4:	80c4d83a 	srl	r2,r16,r3
 840f9d8:	982cd43a 	srli	r22,r19,16
 840f9dc:	8ca2983a 	sll	r17,r17,r18
 840f9e0:	a009883a 	mov	r4,r20
 840f9e4:	b00b883a 	mov	r5,r22
 840f9e8:	1478b03a 	or	fp,r2,r17
 840f9ec:	84071080 	call	8407108 <__umodsi3>
 840f9f0:	a009883a 	mov	r4,r20
 840f9f4:	b00b883a 	mov	r5,r22
 840f9f8:	1023883a 	mov	r17,r2
 840f9fc:	84070a40 	call	84070a4 <__udivsi3>
 840fa00:	9d7fffcc 	andi	r21,r19,65535
 840fa04:	880a943a 	slli	r5,r17,16
 840fa08:	e008d43a 	srli	r4,fp,16
 840fa0c:	a885383a 	mul	r2,r21,r2
 840fa10:	84a8983a 	sll	r20,r16,r18
 840fa14:	2148b03a 	or	r4,r4,r5
 840fa18:	2080042e 	bgeu	r4,r2,840fa2c <__umoddi3+0x47c>
 840fa1c:	24c9883a 	add	r4,r4,r19
 840fa20:	24c00236 	bltu	r4,r19,840fa2c <__umoddi3+0x47c>
 840fa24:	2080012e 	bgeu	r4,r2,840fa2c <__umoddi3+0x47c>
 840fa28:	24c9883a 	add	r4,r4,r19
 840fa2c:	20a3c83a 	sub	r17,r4,r2
 840fa30:	b00b883a 	mov	r5,r22
 840fa34:	8809883a 	mov	r4,r17
 840fa38:	84071080 	call	8407108 <__umodsi3>
 840fa3c:	102f883a 	mov	r23,r2
 840fa40:	8809883a 	mov	r4,r17
 840fa44:	b00b883a 	mov	r5,r22
 840fa48:	84070a40 	call	84070a4 <__udivsi3>
 840fa4c:	b82e943a 	slli	r23,r23,16
 840fa50:	a885383a 	mul	r2,r21,r2
 840fa54:	e13fffcc 	andi	r4,fp,65535
 840fa58:	25c8b03a 	or	r4,r4,r23
 840fa5c:	2080042e 	bgeu	r4,r2,840fa70 <__umoddi3+0x4c0>
 840fa60:	24c9883a 	add	r4,r4,r19
 840fa64:	24c00236 	bltu	r4,r19,840fa70 <__umoddi3+0x4c0>
 840fa68:	2080012e 	bgeu	r4,r2,840fa70 <__umoddi3+0x4c0>
 840fa6c:	24c9883a 	add	r4,r4,r19
 840fa70:	20a3c83a 	sub	r17,r4,r2
 840fa74:	003f4806 	br	840f798 <__alt_data_end+0xfc40f798>
 840fa78:	2c8fc83a 	sub	r7,r5,r18
 840fa7c:	1545c83a 	sub	r2,r2,r21
 840fa80:	29cb803a 	cmpltu	r5,r5,r7
 840fa84:	1145c83a 	sub	r2,r2,r5
 840fa88:	4089c83a 	sub	r4,r8,r2
 840fa8c:	003fc706 	br	840f9ac <__alt_data_end+0xfc40f9ac>
 840fa90:	01000604 	movi	r4,24
 840fa94:	003f1806 	br	840f6f8 <__alt_data_end+0xfc40f6f8>
 840fa98:	00800604 	movi	r2,24
 840fa9c:	003f3206 	br	840f768 <__alt_data_end+0xfc40f768>
 840faa0:	01000604 	movi	r4,24
 840faa4:	003ed906 	br	840f60c <__alt_data_end+0xfc40f60c>
 840faa8:	413fa52e 	bgeu	r8,r4,840f940 <__alt_data_end+0xfc40f940>
 840faac:	297fff84 	addi	r5,r5,-2
 840fab0:	4551883a 	add	r8,r8,r21
 840fab4:	003fa306 	br	840f944 <__alt_data_end+0xfc40f944>
 840fab8:	15ff8b2e 	bgeu	r2,r23,840f8e8 <__alt_data_end+0xfc40f8e8>
 840fabc:	31bfff84 	addi	r6,r6,-2
 840fac0:	1545883a 	add	r2,r2,r21
 840fac4:	003f8906 	br	840f8ec <__alt_data_end+0xfc40f8ec>
 840fac8:	24c9883a 	add	r4,r4,r19
 840facc:	003eee06 	br	840f688 <__alt_data_end+0xfc40f688>
 840fad0:	8005883a 	mov	r2,r16
 840fad4:	003f1706 	br	840f734 <__alt_data_end+0xfc40f734>
 840fad8:	817fe736 	bltu	r16,r5,840fa78 <__alt_data_end+0xfc40fa78>
 840fadc:	280f883a 	mov	r7,r5
 840fae0:	0009883a 	mov	r4,zero
 840fae4:	003fb106 	br	840f9ac <__alt_data_end+0xfc40f9ac>

0840fae8 <_exit>:
 *
 * ALT_EXIT is mapped onto the _exit() system call in alt_syscall.h
 */

void ALT_EXIT (int exit_code)
{
 840fae8:	defffd04 	addi	sp,sp,-12
 840faec:	df000215 	stw	fp,8(sp)
 840faf0:	df000204 	addi	fp,sp,8
 840faf4:	e13fff15 	stw	r4,-4(fp)
  ALT_LOG_PRINT_BOOT("[alt_exit.c] Entering _exit() function.\r\n");
  ALT_LOG_PRINT_BOOT("[alt_exit.c] Exit code from main was %d.\r\n",exit_code);
  /* Stop all other threads */

  ALT_LOG_PRINT_BOOT("[alt_exit.c] Calling ALT_OS_STOP().\r\n");
  ALT_OS_STOP();
 840faf8:	0001883a 	nop
 840fafc:	e0bfff17 	ldw	r2,-4(fp)
 840fb00:	e0bffe15 	stw	r2,-8(fp)
/*
 * Routine called on exit.
 */
static ALT_INLINE ALT_ALWAYS_INLINE void alt_sim_halt(int exit_code)
{
  register int r2 asm ("r2") = exit_code;
 840fb04:	e0bffe17 	ldw	r2,-8(fp)
  __asm__ volatile ("\n0:\n\taddi %0,%0, -1\n\tbgt %0,zero,0b" : : "r" (ALT_CPU_FREQ/100) ); /* Delay for >30ms */

  __asm__ volatile ("break 2" : : "r"(r2), "r"(r3) ALT_GMON_DATA );

#else /* !DEBUG_STUB */
  if (r2) {
 840fb08:	10000226 	beq	r2,zero,840fb14 <_exit+0x2c>
    ALT_SIM_FAIL();
 840fb0c:	002af070 	cmpltui	zero,zero,43969
 840fb10:	00000106 	br	840fb18 <_exit+0x30>
  } else {
    ALT_SIM_PASS();
 840fb14:	002af0b0 	cmpltui	zero,zero,43970
  ALT_SIM_HALT(exit_code);

  /* spin forever, since there's no where to go back to */

  ALT_LOG_PRINT_BOOT("[alt_exit.c] Spinning forever.\r\n");
  while (1);
 840fb18:	003fff06 	br	840fb18 <__alt_data_end+0xfc40fb18>
