
Math_Training.elf:     file format elf32-littlenios2
Math_Training.elf
architecture: nios2:r1, flags 0x00000112:
EXEC_P, HAS_SYMS, D_PAGED
start address 0x08400224

Program Header:
    LOAD off    0x00001000 vaddr 0x08000000 paddr 0x08000000 align 2**12
         filesz 0x00000020 memsz 0x00000020 flags r-x
    LOAD off    0x00002000 vaddr 0x08400000 paddr 0x08400000 align 2**12
         filesz 0x00038ea0 memsz 0x00038ea0 flags r-x
    LOAD off    0x0003aea0 vaddr 0x08438ea0 paddr 0x0843c090 align 2**12
         filesz 0x000031f0 memsz 0x000031f0 flags rw-
    LOAD off    0x0003e280 vaddr 0x0843f280 paddr 0x0843f280 align 2**12
         filesz 0x00000000 memsz 0x00000164 flags rw-

Sections:
Idx Name          Size      VMA       LMA       File off  Algn
  0 .entry        00000020  08000000  08000000  00001000  2**5
                  CONTENTS, ALLOC, LOAD, READONLY, CODE
  1 .exceptions   00000224  08400000  08400000  00002000  2**2
                  CONTENTS, ALLOC, LOAD, READONLY, CODE
  2 .text         0000f8f8  08400224  08400224  00002224  2**2
                  CONTENTS, ALLOC, LOAD, READONLY, CODE
  3 .rodata       00029384  0840fb1c  0840fb1c  00011b1c  2**2
                  CONTENTS, ALLOC, LOAD, READONLY, DATA
  4 .rwdata       000031f0  08438ea0  0843c090  0003aea0  2**2
                  CONTENTS, ALLOC, LOAD, DATA, SMALL_DATA
  5 .bss          00000164  0843f280  0843f280  0003e280  2**2
                  ALLOC, SMALL_DATA
  6 .sdram        00000000  0843f3e4  0843f3e4  0003e090  2**0
                  CONTENTS
  7 .comment      00000023  00000000  00000000  0003e090  2**0
                  CONTENTS, READONLY
  8 .debug_aranges 00000f58  00000000  00000000  0003e0b8  2**3
                  CONTENTS, READONLY, DEBUGGING
  9 .debug_info   00022752  00000000  00000000  0003f010  2**0
                  CONTENTS, READONLY, DEBUGGING
 10 .debug_abbrev 000090f2  00000000  00000000  00061762  2**0
                  CONTENTS, READONLY, DEBUGGING
 11 .debug_line   0000b1c6  00000000  00000000  0006a854  2**0
                  CONTENTS, READONLY, DEBUGGING
 12 .debug_frame  00002784  00000000  00000000  00075a1c  2**2
                  CONTENTS, READONLY, DEBUGGING
 13 .debug_str    00004d60  00000000  00000000  000781a0  2**0
                  CONTENTS, READONLY, DEBUGGING
 14 .debug_loc    0000cb54  00000000  00000000  0007cf00  2**0
                  CONTENTS, READONLY, DEBUGGING
 15 .debug_alt_sim_info 00000060  00000000  00000000  00089a54  2**2
                  CONTENTS, READONLY, DEBUGGING
 16 .debug_ranges 000012b0  00000000  00000000  00089ab8  2**3
                  CONTENTS, READONLY, DEBUGGING
 17 .thread_model 00000003  00000000  00000000  0008fc81  2**0
                  CONTENTS, READONLY
 18 .cpu          0000000a  00000000  00000000  0008fc84  2**0
                  CONTENTS, READONLY
 19 .qsys         00000001  00000000  00000000  0008fc8e  2**0
                  CONTENTS, READONLY
 20 .simulation_enabled 00000001  00000000  00000000  0008fc8f  2**0
                  CONTENTS, READONLY
 21 .sysid_hash   00000004  00000000  00000000  0008fc90  2**0
                  CONTENTS, READONLY
 22 .sysid_base   00000004  00000000  00000000  0008fc94  2**0
                  CONTENTS, READONLY
 23 .sysid_time   00000004  00000000  00000000  0008fc98  2**0
                  CONTENTS, READONLY
 24 .stderr_dev   0000000b  00000000  00000000  0008fc9c  2**0
                  CONTENTS, READONLY
 25 .stdin_dev    0000000b  00000000  00000000  0008fca7  2**0
                  CONTENTS, READONLY
 26 .stdout_dev   0000000b  00000000  00000000  0008fcb2  2**0
                  CONTENTS, READONLY
 27 .sopc_system_name 0000000e  00000000  00000000  0008fcbd  2**0
                  CONTENTS, READONLY
 28 .quartus_project_dir 00000043  00000000  00000000  0008fccb  2**0
                  CONTENTS, READONLY
 29 .sopcinfo     0007b5ce  00000000  00000000  0008fd0e  2**0
                  CONTENTS, READONLY
SYMBOL TABLE:
08000000 l    d  .entry	00000000 .entry
08400000 l    d  .exceptions	00000000 .exceptions
08400224 l    d  .text	00000000 .text
0840fb1c l    d  .rodata	00000000 .rodata
08438ea0 l    d  .rwdata	00000000 .rwdata
0843f280 l    d  .bss	00000000 .bss
0843f3e4 l    d  .sdram	00000000 .sdram
00000000 l    d  .comment	00000000 .comment
00000000 l    d  .debug_aranges	00000000 .debug_aranges
00000000 l    d  .debug_info	00000000 .debug_info
00000000 l    d  .debug_abbrev	00000000 .debug_abbrev
00000000 l    d  .debug_line	00000000 .debug_line
00000000 l    d  .debug_frame	00000000 .debug_frame
00000000 l    d  .debug_str	00000000 .debug_str
00000000 l    d  .debug_loc	00000000 .debug_loc
00000000 l    d  .debug_alt_sim_info	00000000 .debug_alt_sim_info
00000000 l    d  .debug_ranges	00000000 .debug_ranges
00000000 l    df *ABS*	00000000 C:/Users/emilio/UNI/Magistrale/Embedded/progetto/Math_Training/Software/Math_Training_bsp//obj/HAL/src/crt0.o
0840026c l       .text	00000000 alt_after_alt_main
00000000 l    df *ABS*	00000000 alt_irq_handler.c
00000000 l    df *ABS*	00000000 alt_instruction_exception_entry.c
00000000 l    df *ABS*	00000000 main.c
00000000 l    df *ABS*	00000000 1lnn.c
0840fb88 l     O .rodata	0000f500 WEIGHTS
00000000 l    df *ABS*	00000000 LCD.c
00000000 l    df *ABS*	00000000 geometry.c
00000000 l    df *ABS*	00000000 gui.c
00000000 l    df *ABS*	00000000 random_gen.c
00000000 l    df *ABS*	00000000 simple_graphics.c
00000000 l    df *ABS*	00000000 simple_text.c
00000000 l    df *ABS*	00000000 tahomabold_20.c
0841f181 l     O .rodata	000000b6 tahomabold_20_33
0841f237 l     O .rodata	00000104 tahomabold_20_34
0841f33b l     O .rodata	000001a0 tahomabold_20_35
0841f4db l     O .rodata	00000152 tahomabold_20_36
0841f62d l     O .rodata	00000270 tahomabold_20_37
0841f89d l     O .rodata	000001ba tahomabold_20_38
0841fa57 l     O .rodata	0000009c tahomabold_20_39
0841faf3 l     O .rodata	000000ea tahomabold_20_40
0841fbdd l     O .rodata	000000ea tahomabold_20_41
0841fcc7 l     O .rodata	00000152 tahomabold_20_42
0841fe19 l     O .rodata	000001a0 tahomabold_20_43
0841ffb9 l     O .rodata	0000009c tahomabold_20_44
08420055 l     O .rodata	000000ea tahomabold_20_45
0842013f l     O .rodata	0000009c tahomabold_20_46
084201db l     O .rodata	00000138 tahomabold_20_47
08420313 l     O .rodata	00000152 tahomabold_20_48
08420465 l     O .rodata	00000152 tahomabold_20_49
084205b7 l     O .rodata	00000152 tahomabold_20_50
08420709 l     O .rodata	00000152 tahomabold_20_51
0842085b l     O .rodata	00000152 tahomabold_20_52
084209ad l     O .rodata	00000152 tahomabold_20_53
08420aff l     O .rodata	00000152 tahomabold_20_54
08420c51 l     O .rodata	00000152 tahomabold_20_55
08420da3 l     O .rodata	00000152 tahomabold_20_56
08420ef5 l     O .rodata	00000152 tahomabold_20_57
08421047 l     O .rodata	000000b6 tahomabold_20_58
084210fd l     O .rodata	000000b6 tahomabold_20_59
084211b3 l     O .rodata	000001a0 tahomabold_20_60
08421353 l     O .rodata	000001a0 tahomabold_20_61
084214f3 l     O .rodata	000001a0 tahomabold_20_62
08421693 l     O .rodata	0000011e tahomabold_20_63
084217b1 l     O .rodata	000001d4 tahomabold_20_64
08421985 l     O .rodata	0000016c tahomabold_20_65
08421af1 l     O .rodata	0000016c tahomabold_20_66
08421c5d l     O .rodata	00000152 tahomabold_20_67
08421daf l     O .rodata	00000186 tahomabold_20_68
08421f35 l     O .rodata	00000138 tahomabold_20_69
0842206d l     O .rodata	00000138 tahomabold_20_70
084221a5 l     O .rodata	00000186 tahomabold_20_71
0842232b l     O .rodata	00000186 tahomabold_20_72
084224b1 l     O .rodata	00000104 tahomabold_20_73
084225b5 l     O .rodata	00000104 tahomabold_20_74
084226b9 l     O .rodata	0000016c tahomabold_20_75
08422825 l     O .rodata	0000011e tahomabold_20_76
08422943 l     O .rodata	000001d4 tahomabold_20_77
08422b17 l     O .rodata	00000186 tahomabold_20_78
08422c9d l     O .rodata	00000186 tahomabold_20_79
08422e23 l     O .rodata	00000152 tahomabold_20_80
08422f75 l     O .rodata	00000186 tahomabold_20_81
084230fb l     O .rodata	00000186 tahomabold_20_82
08423281 l     O .rodata	00000152 tahomabold_20_83
084233d3 l     O .rodata	00000138 tahomabold_20_84
0842350b l     O .rodata	00000186 tahomabold_20_85
08423691 l     O .rodata	0000016c tahomabold_20_86
084237fd l     O .rodata	00000222 tahomabold_20_87
08423a1f l     O .rodata	0000016c tahomabold_20_88
08423b8b l     O .rodata	0000016c tahomabold_20_89
08423cf7 l     O .rodata	00000138 tahomabold_20_90
08423e2f l     O .rodata	000000ea tahomabold_20_91
08423f19 l     O .rodata	00000138 tahomabold_20_92
08424051 l     O .rodata	000000ea tahomabold_20_93
0842413b l     O .rodata	000001a0 tahomabold_20_94
084242db l     O .rodata	0000001a tahomabold_20_95
084242f5 l     O .rodata	0000011e tahomabold_20_96
08424413 l     O .rodata	00000138 tahomabold_20_97
0842454b l     O .rodata	00000152 tahomabold_20_98
0842469d l     O .rodata	0000011e tahomabold_20_99
084247bb l     O .rodata	00000152 tahomabold_20_100
0842490d l     O .rodata	00000138 tahomabold_20_101
08424a45 l     O .rodata	000000d0 tahomabold_20_102
08424b15 l     O .rodata	00000152 tahomabold_20_103
08424c67 l     O .rodata	00000152 tahomabold_20_104
08424db9 l     O .rodata	0000009c tahomabold_20_105
08424e55 l     O .rodata	000000ea tahomabold_20_106
08424f3f l     O .rodata	00000138 tahomabold_20_107
08425077 l     O .rodata	0000009c tahomabold_20_108
08425113 l     O .rodata	000001ee tahomabold_20_109
08425301 l     O .rodata	00000152 tahomabold_20_110
08425453 l     O .rodata	00000138 tahomabold_20_111
0842558b l     O .rodata	00000152 tahomabold_20_112
084256dd l     O .rodata	00000152 tahomabold_20_113
0842582f l     O .rodata	000000ea tahomabold_20_114
08425919 l     O .rodata	00000104 tahomabold_20_115
08425a1d l     O .rodata	000000d0 tahomabold_20_116
08425aed l     O .rodata	00000152 tahomabold_20_117
08425c3f l     O .rodata	00000138 tahomabold_20_118
08425d77 l     O .rodata	000001d4 tahomabold_20_119
08425f4b l     O .rodata	00000138 tahomabold_20_120
08426083 l     O .rodata	00000138 tahomabold_20_121
084261bb l     O .rodata	0000011e tahomabold_20_122
084262d9 l     O .rodata	00000138 tahomabold_20_123
08426411 l     O .rodata	00000152 tahomabold_20_124
08426563 l     O .rodata	00000138 tahomabold_20_125
0842669b l     O .rodata	000001a0 tahomabold_20_126
00000000 l    df *ABS*	00000000 tahomabold_32.c
0842683b l     O .rodata	000001b8 tahomabold_32_33
084269f3 l     O .rodata	00000280 tahomabold_32_34
08426c73 l     O .rodata	00000410 tahomabold_32_35
08427083 l     O .rodata	00000320 tahomabold_32_36
084273a3 l     O .rodata	000005f0 tahomabold_32_37
08427993 l     O .rodata	00000410 tahomabold_32_38
08427da3 l     O .rodata	00000168 tahomabold_32_39
08427f0b l     O .rodata	00000258 tahomabold_32_40
08428163 l     O .rodata	00000258 tahomabold_32_41
084283bb l     O .rodata	00000320 tahomabold_32_42
084286db l     O .rodata	00000410 tahomabold_32_43
08428aeb l     O .rodata	00000190 tahomabold_32_44
08428c7b l     O .rodata	00000230 tahomabold_32_45
08428eab l     O .rodata	00000190 tahomabold_32_46
0842903b l     O .rodata	000002d0 tahomabold_32_47
0842930b l     O .rodata	00000320 tahomabold_32_48
0842962b l     O .rodata	00000320 tahomabold_32_49
0842994b l     O .rodata	00000320 tahomabold_32_50
08429c6b l     O .rodata	00000320 tahomabold_32_51
08429f8b l     O .rodata	00000320 tahomabold_32_52
0842a2ab l     O .rodata	00000320 tahomabold_32_53
0842a5cb l     O .rodata	00000320 tahomabold_32_54
0842a8eb l     O .rodata	00000320 tahomabold_32_55
0842ac0b l     O .rodata	00000320 tahomabold_32_56
0842af2b l     O .rodata	00000320 tahomabold_32_57
0842b24b l     O .rodata	000001e0 tahomabold_32_58
0842b42b l     O .rodata	000001e0 tahomabold_32_59
0842b60b l     O .rodata	00000410 tahomabold_32_60
0842ba1b l     O .rodata	00000410 tahomabold_32_61
0842be2b l     O .rodata	00000410 tahomabold_32_62
0842c23b l     O .rodata	000002d0 tahomabold_32_63
0842c50b l     O .rodata	00000488 tahomabold_32_64
0842c993 l     O .rodata	00000370 tahomabold_32_65
0842cd03 l     O .rodata	00000370 tahomabold_32_66
0842d073 l     O .rodata	00000348 tahomabold_32_67
0842d3bb l     O .rodata	000003c0 tahomabold_32_68
0842d77b l     O .rodata	00000320 tahomabold_32_69
0842da9b l     O .rodata	000002f8 tahomabold_32_70
0842dd93 l     O .rodata	000003c0 tahomabold_32_71
0842e153 l     O .rodata	000003c0 tahomabold_32_72
0842e513 l     O .rodata	00000258 tahomabold_32_73
0842e76b l     O .rodata	00000280 tahomabold_32_74
0842e9eb l     O .rodata	00000398 tahomabold_32_75
0842ed83 l     O .rodata	000002d0 tahomabold_32_76
0842f053 l     O .rodata	00000488 tahomabold_32_77
0842f4db l     O .rodata	000003e8 tahomabold_32_78
0842f8c3 l     O .rodata	000003e8 tahomabold_32_79
0842fcab l     O .rodata	00000348 tahomabold_32_80
0842fff3 l     O .rodata	000003e8 tahomabold_32_81
084303db l     O .rodata	000003c0 tahomabold_32_82
0843079b l     O .rodata	00000320 tahomabold_32_83
08430abb l     O .rodata	00000320 tahomabold_32_84
08430ddb l     O .rodata	000003c0 tahomabold_32_85
0843119b l     O .rodata	00000370 tahomabold_32_86
0843150b l     O .rodata	00000528 tahomabold_32_87
08431a33 l     O .rodata	00000370 tahomabold_32_88
08431da3 l     O .rodata	00000370 tahomabold_32_89
08432113 l     O .rodata	00000320 tahomabold_32_90
08432433 l     O .rodata	00000258 tahomabold_32_91
0843268b l     O .rodata	000002d0 tahomabold_32_92
0843295b l     O .rodata	00000258 tahomabold_32_93
08432bb3 l     O .rodata	00000410 tahomabold_32_94
08432fc3 l     O .rodata	00000320 tahomabold_32_95
084332e3 l     O .rodata	000002a8 tahomabold_32_96
0843358b l     O .rodata	000002f8 tahomabold_32_97
08433883 l     O .rodata	00000320 tahomabold_32_98
08433ba3 l     O .rodata	000002a8 tahomabold_32_99
08433e4b l     O .rodata	00000320 tahomabold_32_100
0843416b l     O .rodata	000002f8 tahomabold_32_101
08434463 l     O .rodata	00000230 tahomabold_32_102
08434693 l     O .rodata	00000320 tahomabold_32_103
084349b3 l     O .rodata	00000320 tahomabold_32_104
08434cd3 l     O .rodata	00000190 tahomabold_32_105
08434e63 l     O .rodata	00000208 tahomabold_32_106
0843506b l     O .rodata	000002f8 tahomabold_32_107
08435363 l     O .rodata	00000190 tahomabold_32_108
084354f3 l     O .rodata	000004d8 tahomabold_32_109
084359cb l     O .rodata	00000320 tahomabold_32_110
08435ceb l     O .rodata	00000320 tahomabold_32_111
0843600b l     O .rodata	00000320 tahomabold_32_112
0843632b l     O .rodata	00000320 tahomabold_32_113
0843664b l     O .rodata	00000230 tahomabold_32_114
0843687b l     O .rodata	00000280 tahomabold_32_115
08436afb l     O .rodata	00000208 tahomabold_32_116
08436d03 l     O .rodata	00000320 tahomabold_32_117
08437023 l     O .rodata	000002f8 tahomabold_32_118
0843731b l     O .rodata	00000460 tahomabold_32_119
0843777b l     O .rodata	000002f8 tahomabold_32_120
08437a73 l     O .rodata	000002d0 tahomabold_32_121
08437d43 l     O .rodata	000002a8 tahomabold_32_122
08437feb l     O .rodata	00000320 tahomabold_32_123
0843830b l     O .rodata	00000320 tahomabold_32_124
0843862b l     O .rodata	00000320 tahomabold_32_125
0843894b l     O .rodata	00000410 tahomabold_32_126
00000000 l    df *ABS*	00000000 touch_spi.c
00000000 l    df *ABS*	00000000 w_sqrt.c
00000000 l    df *ABS*	00000000 e_sqrt.c
00000000 l    df *ABS*	00000000 s_fpclassify.c
00000000 l    df *ABS*	00000000 s_lib_ver.c
00000000 l    df *ABS*	00000000 s_matherr.c
00000000 l    df *ABS*	00000000 lib2-divmod.c
00000000 l    df *ABS*	00000000 adddf3.c
00000000 l    df *ABS*	00000000 divdf3.c
00000000 l    df *ABS*	00000000 gedf2.c
00000000 l    df *ABS*	00000000 ledf2.c
00000000 l    df *ABS*	00000000 muldf3.c
00000000 l    df *ABS*	00000000 subdf3.c
00000000 l    df *ABS*	00000000 fixdfsi.c
00000000 l    df *ABS*	00000000 floatsidf.c
00000000 l    df *ABS*	00000000 libgcc2.c
00000000 l    df *ABS*	00000000 libgcc2.c
00000000 l    df *ABS*	00000000 errno.c
00000000 l    df *ABS*	00000000 impure.c
0843a620 l     O .rwdata	00000424 impure_data
00000000 l    df *ABS*	00000000 malloc.c
00000000 l    df *ABS*	00000000 mallocr.c
00000000 l    df *ABS*	00000000 memcpy.c
00000000 l    df *ABS*	00000000 memset.c
00000000 l    df *ABS*	00000000 putchar.c
00000000 l    df *ABS*	00000000 puts.c
00000000 l    df *ABS*	00000000 rand.c
00000000 l    df *ABS*	00000000 sbrkr.c
00000000 l    df *ABS*	00000000 strcmp.c
00000000 l    df *ABS*	00000000 strcpy.c
00000000 l    df *ABS*	00000000 strlen.c
00000000 l    df *ABS*	00000000 time.c
00000000 l    df *ABS*	00000000 findfp.c
0840a564 l     F .text	00000008 __fp_unlock
0840a578 l     F .text	0000019c __sinit.part.1
0840a714 l     F .text	00000008 __fp_lock
00000000 l    df *ABS*	00000000 mallocr.c
00000000 l    df *ABS*	00000000 fvwrite.c
00000000 l    df *ABS*	00000000 fwalk.c
00000000 l    df *ABS*	00000000 gettimeofdayr.c
00000000 l    df *ABS*	00000000 int_errno.c
00000000 l    df *ABS*	00000000 memchr.c
00000000 l    df *ABS*	00000000 memmove.c
00000000 l    df *ABS*	00000000 putc.c
00000000 l    df *ABS*	00000000 mallocr.c
00000000 l    df *ABS*	00000000 stdio.c
00000000 l    df *ABS*	00000000 wbuf.c
00000000 l    df *ABS*	00000000 writer.c
00000000 l    df *ABS*	00000000 wsetup.c
00000000 l    df *ABS*	00000000 closer.c
00000000 l    df *ABS*	00000000 fclose.c
00000000 l    df *ABS*	00000000 fflush.c
00000000 l    df *ABS*	00000000 lseekr.c
00000000 l    df *ABS*	00000000 makebuf.c
00000000 l    df *ABS*	00000000 readr.c
00000000 l    df *ABS*	00000000 fstatr.c
00000000 l    df *ABS*	00000000 isattyr.c
00000000 l    df *ABS*	00000000 libgcc2.c
00000000 l    df *ABS*	00000000 alt_alarm_start.c
00000000 l    df *ABS*	00000000 alt_close.c
0840c9e4 l     F .text	0000003c alt_get_errno
00000000 l    df *ABS*	00000000 alt_dev.c
0840caf0 l     F .text	0000002c alt_dev_null_write
00000000 l    df *ABS*	00000000 alt_errno.c
00000000 l    df *ABS*	00000000 alt_fstat.c
0840cb1c l     F .text	0000003c alt_get_errno
00000000 l    df *ABS*	00000000 alt_gettod.c
00000000 l    df *ABS*	00000000 alt_iic.c
00000000 l    df *ABS*	00000000 alt_iic_isr_register.c
00000000 l    df *ABS*	00000000 alt_irq_vars.c
00000000 l    df *ABS*	00000000 alt_isatty.c
0840d09c l     F .text	0000003c alt_get_errno
00000000 l    df *ABS*	00000000 alt_load.c
0840d17c l     F .text	00000068 alt_load_section
00000000 l    df *ABS*	00000000 alt_lseek.c
0840d268 l     F .text	0000003c alt_get_errno
00000000 l    df *ABS*	00000000 alt_main.c
00000000 l    df *ABS*	00000000 alt_malloc_lock.c
00000000 l    df *ABS*	00000000 alt_read.c
0840d43c l     F .text	0000003c alt_get_errno
00000000 l    df *ABS*	00000000 alt_release_fd.c
00000000 l    df *ABS*	00000000 alt_sbrk.c
0843c084 l     O .rwdata	00000004 heap_end
00000000 l    df *ABS*	00000000 alt_tick.c
00000000 l    df *ABS*	00000000 alt_usleep.c
00000000 l    df *ABS*	00000000 alt_write.c
0840d85c l     F .text	0000003c alt_get_errno
00000000 l    df *ABS*	00000000 alt_sys_init.c
0840d990 l     F .text	00000034 alt_dev_reg
0843aff4 l     O .rwdata	00001060 jtag_uart_0
00000000 l    df *ABS*	00000000 altera_avalon_jtag_uart_fd.c
00000000 l    df *ABS*	00000000 altera_avalon_jtag_uart_init.c
0840dc88 l     F .text	0000020c altera_avalon_jtag_uart_irq
0840de94 l     F .text	000000a0 altera_avalon_jtag_uart_timeout
00000000 l    df *ABS*	00000000 altera_avalon_jtag_uart_ioctl.c
00000000 l    df *ABS*	00000000 altera_avalon_jtag_uart_read.c
00000000 l    df *ABS*	00000000 altera_avalon_jtag_uart_write.c
00000000 l    df *ABS*	00000000 altera_avalon_spi.c
00000000 l    df *ABS*	00000000 altera_avalon_timer_sc.c
0840e6c8 l     F .text	00000078 alt_avalon_timer_sc_irq
00000000 l    df *ABS*	00000000 alt_busy_sleep.c
00000000 l    df *ABS*	00000000 alt_dcache_flush_all.c
00000000 l    df *ABS*	00000000 alt_dev_llist_insert.c
0840e95c l     F .text	0000003c alt_get_errno
00000000 l    df *ABS*	00000000 alt_do_ctors.c
00000000 l    df *ABS*	00000000 alt_do_dtors.c
00000000 l    df *ABS*	00000000 alt_icache_flush_all.c
00000000 l    df *ABS*	00000000 alt_io_redirect.c
0840ebcc l     F .text	000000c4 alt_open_fd
00000000 l    df *ABS*	00000000 alt_open.c
0840ed0c l     F .text	0000003c alt_get_errno
0840ed48 l     F .text	000000c4 alt_file_locked
00000000 l    df *ABS*	00000000 altera_nios2_gen2_irq.c
00000000 l    df *ABS*	00000000 alt_find_dev.c
00000000 l    df *ABS*	00000000 alt_find_file.c
00000000 l    df *ABS*	00000000 alt_get_fd.c
00000000 l    df *ABS*	00000000 alt_icache_flush.c
00000000 l    df *ABS*	00000000 atexit.c
00000000 l    df *ABS*	00000000 exit.c
00000000 l    df *ABS*	00000000 memcmp.c
00000000 l    df *ABS*	00000000 __atexit.c
00000000 l    df *ABS*	00000000 __call_atexit.c
00000000 l    df *ABS*	00000000 libgcc2.c
00000000 l    df *ABS*	00000000 alt_exit.c
0843f2b8 g     O .bss	00000004 alt_instruction_exception_handler
0840a154 g     F .text	00000018 putchar
08404640 g     F .text	00000078 vid_draw_horiz_line
0840c804 g     F .text	00000054 _isatty_r
084021c8 g     F .text	00000068 LCD_DrawPoint
0840d378 g     F .text	0000007c alt_main
0840a3ec g     F .text	00000090 strcpy
0840a16c g     F .text	000000c0 _puts_r
0843f2e4 g     O .bss	00000100 alt_irq
0840c52c g     F .text	00000060 _lseek_r
084047a4 g     F .text	0000006c vid_color_convert16_24
08406b78 g     F .text	00000130 sqrt
0843c090 g       *ABS*	00000000 __flash_rwdata_start
0840655c g     F .text	00000168 touch_enable_penirq
0840b37c g     F .text	0000005c _gettimeofday_r
0843f3e4 g       *ABS*	00000000 __alt_heap_start
08402720 g     F .text	0000012c LCD_Pattern_Horizon
08402db4 g     F .text	000001d4 GUI_DeskInit
0840bdbc g     F .text	0000005c __sseek
0840a8b4 g     F .text	00000010 __sinit
0840be20 g     F .text	00000140 __swbuf_r
0840a71c g     F .text	00000068 __sfmoreglue
0840d418 g     F .text	00000024 __malloc_unlock
08404288 g     F .text	00000158 vid_draw_box
08402cf0 g     F .text	00000048 PtCopy
08403698 g     F .text	00000104 Update_img
08405778 g     F .text	0000024c vid_print_string_alpha
0840b4bc g     F .text	0000015c memmove
0840a89c g     F .text	00000018 _cleanup
084082f4 g     F .text	000000dc .hidden __gtdf2
0840406c g     F .text	00000114 vid_move_block
0840ef60 g     F .text	00000024 altera_nios2_gen2_irq_init
08409698 g     F .text	00000010 __errno
08406038 g     F .text	000000e8 vid_string_pixel_length_alpha
08000000 g     F .entry	0000001c __reset
08403490 g     F .text	00000208 Print
08400000 g       *ABS*	00000000 __flash_exceptions_start
0840214c g     F .text	0000007c LCD_Clear
0840c7a8 g     F .text	0000005c _fstat_r
0843f28c g     O .bss	00000004 errno
0840bd38 g     F .text	00000008 __seofread
0843f2a8 g     O .bss	00000004 alt_argv
08444054 g       *ABS*	00000000 _gp
0840d82c g     F .text	00000030 usleep
084059c4 g     F .text	00000148 seperate_color_channels
0843ae74 g     O .rwdata	00000180 alt_fd_list
0840a14c g     F .text	00000008 _putchar_r
0840ef84 g     F .text	00000090 alt_find_dev
08409edc g     F .text	00000148 memcpy
0840a56c g     F .text	0000000c _cleanup_r
08409558 g     F .text	000000dc .hidden __floatsidf
08404f80 g     F .text	000006ec vid_round_corner_points
0840628c g     F .text	0000006c Touch_UnInit
0840ec90 g     F .text	0000007c alt_io_redirect
084083d0 g     F .text	000000f4 .hidden __ltdf2
0840fb1c g       *ABS*	00000000 __DTOR_END__
08402f88 g     F .text	000000c0 GUI_CheckButton
0840a22c g     F .text	00000014 puts
0840eb30 g     F .text	0000009c alt_exception_cause_generated_bad_addr
08403f3c g     F .text	00000064 vid_clean_screen
08406f30 g     F .text	00000074 __fpclassifyd
0840e08c g     F .text	0000021c altera_avalon_jtag_uart_read
084096a8 g     F .text	00000014 malloc
08406120 g     F .text	0000016c Touch_Init
084070a4 g     F .text	00000064 .hidden __udivsi3
08403bdc g     F .text	00000360 NewExpression
0840d0d8 g     F .text	000000a4 isatty
0843f290 g     O .bss	00000008 alt_timezone
08403048 g     F .text	00000280 GUI_DeskDraw
0840f1c0 g     F .text	00000090 alt_icache_flush
0843f288 g     O .bss	00000004 __malloc_top_pad
0840ad38 g     F .text	000004bc __sfvwrite_r
0840a2bc g     F .text	00000054 _sbrk_r
084064e8 g     F .text	00000034 touch_empty_fifo
08402c08 g     F .text	00000034 RectHeight
0840c748 g     F .text	00000060 _read_r
0843c078 g     O .rwdata	00000004 alt_max_fd
0840c180 g     F .text	000000f0 _fclose_r
0840c4fc g     F .text	00000030 fflush
0843f284 g     O .bss	00000004 __malloc_max_sbrked_mem
08439a60 g     O .rwdata	00000bc0 tahomabold_32
08407160 g     F .text	000008ac .hidden __adddf3
084029b0 g     F .text	00000044 PtSet
0840f5b0 g     F .text	00000538 .hidden __umoddi3
0840d2a4 g     F .text	000000d4 lseek
0843c054 g     O .rwdata	00000004 __fdlib_version
0843c058 g     O .rwdata	00000004 _global_impure_ptr
08404a7c g     F .text	00000148 vid_draw_circle
0840b780 g     F .text	00000564 _realloc_r
0843f3e4 g       *ABS*	00000000 __bss_end
0840cfac g     F .text	000000f0 alt_iic_isr_register
0840d724 g     F .text	00000108 alt_tick
08402ae0 g     F .text	0000008c RectOffset
08404810 g     F .text	0000026c vid_draw_sloped_line
0840a8d4 g     F .text	00000018 __fp_lock_all
0840cf60 g     F .text	0000004c alt_ic_irq_enabled
08404bc4 g     F .text	000003bc vid_draw_round_corner_box
0840d688 g     F .text	0000009c alt_alarm_stop
0843f2a0 g     O .bss	00000004 alt_irq_active
0840284c g     F .text	000000e0 LCD_Pattern_Vertical
084000dc g     F .exceptions	000000d4 alt_irq_handler
0843ae4c g     O .rwdata	00000028 alt_dev_null
0840e914 g     F .text	00000048 alt_dcache_flush_all
08406a2c g     F .text	00000070 touch_alarm_callback
084094d8 g     F .text	00000080 .hidden __fixdfsi
08401fa4 g     F .text	00000044 testCell
0840651c g     F .text	00000040 touch_is_pen_pressed
0843c090 g       *ABS*	00000000 __ram_rwdata_end
0843c070 g     O .rwdata	00000008 alt_dev_list
0840d898 g     F .text	000000f8 write
0840b618 g     F .text	000000a0 _putc_r
08438ea0 g       *ABS*	00000000 __ram_rodata_end
0840cb58 g     F .text	000000b0 fstat
084083d0 g     F .text	000000f4 .hidden __ledf2
084066f8 g     F .text	00000334 touch_get_xy
08407108 g     F .text	00000058 .hidden __umodsi3
0840646c g     F .text	0000007c touch_isr
08402bd4 g     F .text	00000034 RectWidth
0843f3e4 g       *ABS*	00000000 end
0840dbc8 g     F .text	000000c0 altera_avalon_jtag_uart_init
084001b0 g     F .exceptions	00000074 alt_instruction_exception_entry
084043e0 g     F .text	000000ec vid_print_char
0840fb1c g       *ABS*	00000000 __CTOR_LIST__
0c000000 g       *ABS*	00000000 __alt_stack_pointer
0840e740 g     F .text	0000007c alt_avalon_timer_sc_init
08409634 g     F .text	00000064 .hidden __clzsi2
0840e2a8 g     F .text	00000224 altera_avalon_jtag_uart_write
084056c0 g     F .text	00000054 min3
08403fa0 g     F .text	000000cc vid_draw_line
08401e68 g     F .text	0000013c calcCellOutput
0840a8c4 g     F .text	00000004 __sfp_lock_acquire
0840b3d8 g     F .text	000000e4 memchr
0840aa28 g     F .text	00000310 _free_r
084020b0 g     F .text	0000009c LCD_SetCursor
0840f430 g     F .text	00000180 __call_exitprocs
0843c060 g     O .rwdata	00000004 __malloc_sbrk_base
08400224 g     F .text	0000004c _start
0843f2b0 g     O .bss	00000004 _alt_tick_rate
08401ddc g     F .text	0000008c setCellInput
084066c4 g     F .text	00000034 touch_clear_input
0840a258 g     F .text	00000064 rand
084032c8 g     F .text	000001c8 GUI_ClearRect
0840e4cc g     F .text	000001fc alt_avalon_spi_command
0843f2b4 g     O .bss	00000004 _alt_nticks
0840d478 g     F .text	000000fc read
0840d9fc g     F .text	00000068 alt_sys_init
0840f318 g     F .text	00000118 __register_exitproc
084045ac g     F .text	00000094 vid_paint_block
0840df34 g     F .text	00000068 altera_avalon_jtag_uart_close
08438ea0 g       *ABS*	00000000 __ram_rwdata_start
0840fb1c g       *ABS*	00000000 __ram_rodata_start
08401d24 g     F .text	000000b8 getLayerPrediction
0843f2bc g     O .bss	00000028 __malloc_current_mallinfo
08404704 g     F .text	000000a0 vid_color_convert24_16
0840da64 g     F .text	00000060 altera_avalon_jtag_uart_read_fd
0840f11c g     F .text	000000a4 alt_get_fd
0840e7bc g     F .text	00000158 alt_busy_sleep
0840c12c g     F .text	00000054 _close_r
0840394c g     F .text	00000078 GUI
08405c80 g     F .text	0000025c alpha_blending
0840f29c g     F .text	0000007c memcmp
0840db24 g     F .text	00000050 altera_avalon_jtag_uart_close_fd
0843f3e4 g       *ABS*	00000000 __alt_stack_base
0840db74 g     F .text	00000054 altera_avalon_jtag_uart_ioctl_fd
0840bfd8 g     F .text	00000154 __swsetup_r
08407a0c g     F .text	000008e8 .hidden __divdf3
0840a784 g     F .text	00000118 __sfp
0843aa44 g     O .rwdata	00000408 __malloc_av_
0840a8d0 g     F .text	00000004 __sinit_lock_release
084084c4 g     F .text	00000718 .hidden __muldf3
0840bce4 g     F .text	00000054 __sread
0840f014 g     F .text	00000108 alt_find_file
0840e998 g     F .text	000000a4 alt_dev_llist_insert
0840d3f4 g     F .text	00000024 __malloc_lock
0840d5d8 g     F .text	000000b0 sbrk
0840c4a0 g     F .text	0000005c _fflush_r
0840cc08 g     F .text	000001f4 gettimeofday
0843f280 g       *ABS*	00000000 __bss_start
08402230 g     F .text	000004f0 LCD_Init
0840a024 g     F .text	00000128 memset
08400270 g     F .text	000019a4 main
0843f2ac g     O .bss	00000004 alt_envp
0843f280 g     O .bss	00000004 __malloc_max_total_mem
0840dac4 g     F .text	00000060 altera_avalon_jtag_uart_write_fd
0840bf60 g     F .text	00000018 __swbuf
0840a240 g     F .text	00000018 srand
08438ea0 g     O .rwdata	00000bc0 tahomabold_20
0840be18 g     F .text	00000008 __sclose
08406fa4 g     F .text	00000008 matherr
0c000000 g       *ABS*	00000000 __alt_heap_limit
08405edc g     F .text	0000015c vid_print_char_alpha
0840c270 g     F .text	00000014 fclose
084096d0 g     F .text	0000080c _malloc_r
0840a514 g     F .text	00000050 time
0843c07c g     O .rwdata	00000004 alt_errno
0840b1f4 g     F .text	000000c4 _fwalk
08402c3c g     F .text	000000b4 PtDistance
084029f4 g     F .text	00000060 RectSet
0840b6b8 g     F .text	000000c8 putc
08406fac g     F .text	00000084 .hidden __divsi3
08402060 g     F .text	00000050 Delay_Ms
08402b6c g     F .text	00000068 RectCopy
0840a904 g     F .text	00000124 _malloc_trim_r
0840fb1c g       *ABS*	00000000 __CTOR_END__
0840a310 g     F .text	000000dc strcmp
08405c3c g     F .text	00000044 read_from_frame
0840fb1c g       *ABS*	00000000 __flash_rodata_start
0840379c g     F .text	000001b0 Resize_image
0840fb1c g       *ABS*	00000000 __DTOR_LIST__
0840456c g     F .text	00000040 vid_get_pixel
0840d9c4 g     F .text	00000038 alt_irq_init
0840d574 g     F .text	00000064 alt_release_fd
08438d61 g     O .rodata	00000100 .hidden __clz_tab
0840f250 g     F .text	00000014 atexit
0840bf78 g     F .text	00000060 _write_r
0840292c g     F .text	00000084 IsPtInRect
0843c05c g     O .rwdata	00000004 _impure_ptr
0843f2a4 g     O .bss	00000004 alt_argc
0840c284 g     F .text	0000021c __sflush_r
0840ea9c g     F .text	00000060 _do_dtors
08400000 g       .exceptions	00000000 alt_irq_entry
0840a8ec g     F .text	00000018 __fp_unlock_all
08406334 g     F .text	00000138 Touch_GetXY
0843c068 g     O .rwdata	00000008 alt_fs_list
08404180 g     F .text	00000108 vid_print_string
0843f298 g     O .bss	00000008 alt_resettime
08401fe8 g     F .text	00000078 testLayer
08400000 g       *ABS*	00000000 __ram_exceptions_start
08406ca8 g     F .text	00000288 __ieee754_sqrt
0840cdfc g     F .text	00000050 alt_ic_isr_register
0843c090 g       *ABS*	00000000 _edata
0843f3e4 g       *ABS*	00000000 _end
0840566c g     F .text	00000054 max3
08400224 g       *ABS*	00000000 __ram_exceptions_end
0840df9c g     F .text	000000f0 altera_avalon_jtag_uart_ioctl
08401c14 g     F .text	00000110 initLayer
0840ced4 g     F .text	0000008c alt_ic_irq_disable
084046b8 g     F .text	0000004c vid_merge_colors
0840bd40 g     F .text	0000007c __swrite
0843c064 g     O .rwdata	00000004 __malloc_trim_threshold
0840f264 g     F .text	00000038 exit
0840b2b8 g     F .text	000000c4 _fwalk_reent
08407030 g     F .text	00000074 .hidden __modsi3
0c000000 g       *ABS*	00000000 __alt_data_end
08400000 g     F .exceptions	00000000 alt_exception
0840a8c8 g     F .text	00000004 __sfp_lock_release
08000000 g       *ABS*	00000000 __alt_mem_sdram
08406a9c g     F .text	000000dc touch_xy_transform
084044cc g     F .text	000000a0 vid_set_pixel
0840fae8 g     F .text	00000034 _exit
0840c8b8 g     F .text	0000012c alt_alarm_start
0840c858 g     F .text	00000060 .hidden __muldi3
0840c58c g     F .text	000001bc __smakebuf_r
0840a47c g     F .text	00000098 strlen
0840ee0c g     F .text	00000154 open
084082f4 g     F .text	000000dc .hidden __gedf2
08402a54 g     F .text	0000008c RectInflate
0840eafc g     F .text	00000034 alt_icache_flush_all
0843c080 g     O .rwdata	00000004 alt_priority_mask
0840ce4c g     F .text	00000088 alt_ic_irq_enable
08408bdc g     F .text	000008fc .hidden __subdf3
084039c4 g     F .text	00000218 ShowHelp
0843c088 g     O .rwdata	00000008 alt_alarm_list
08405714 g     F .text	00000064 max_diff3
0840ea3c g     F .text	00000060 _do_ctors
08402d38 g     F .text	0000007c GUI_ShowWelcome
08405b0c g     F .text	00000130 merge_color_channels
0840ca20 g     F .text	000000d0 close
0840d1e4 g     F .text	00000084 alt_load
084062f8 g     F .text	0000003c Touch_EmptyFifo
084096bc g     F .text	00000014 free
0840a8cc g     F .text	00000004 __sinit_lock_acquire



Disassembly of section .entry:

08000000 <__reset>:
#if NIOS2_ICACHE_SIZE > 0 && defined(ALT_ALLOW_CODE_AT_RESET) && (!defined(ALT_SIM_OPTIMIZE) || defined(NIOS2_ECC_PRESENT))
    /* Assume the instruction cache size is always a power of two. */
#if NIOS2_ICACHE_SIZE > 0x8000
    movhi r2, %hi(NIOS2_ICACHE_SIZE)
#else
    movui r2, NIOS2_ICACHE_SIZE
 8000000:	00880014 	movui	r2,8192
#endif

0:
    initi r2
 8000004:	1001483a 	initi	r2
    addi r2, r2, -NIOS2_ICACHE_LINE_SIZE
 8000008:	10bff804 	addi	r2,r2,-32
    bgt r2, zero, 0b
 800000c:	00bffd16 	blt	zero,r2,8000004 <__alt_data_end+0xfc000004>
 * Jump to the _start entry point in the .text section if reset code
 * is allowed or if optimizing for RTL simulation.
 */
#if defined(ALT_ALLOW_CODE_AT_RESET) || defined(ALT_SIM_OPTIMIZE)
    /* Jump to the _start entry point in the .text section. */
    movhi r1, %hi(_start)
 8000010:	00421034 	movhi	at,2112
    ori r1, r1, %lo(_start)
 8000014:	08408914 	ori	at,at,548
    jmp r1
 8000018:	0800683a 	jmp	at
 800001c:	00000000 	call	0 <__alt_mem_sdram-0x8000000>

Disassembly of section .exceptions:

08400000 <alt_exception>:

#else /* ALT_EXCEPTION_STACK disabled */
        /* 
         * Reserve space on normal stack for registers about to be pushed.
         */
        addi  sp, sp, -76
 8400000:	deffed04 	addi	sp,sp,-76
         * documentation for details).
         *
         * Leave a gap in the stack frame at 4(sp) for the muldiv handler to
         * store zero into.
         */
        stw   ra,  0(sp)
 8400004:	dfc00015 	stw	ra,0(sp)
        stw   r1,   8(sp)
 8400008:	d8400215 	stw	at,8(sp)
        stw   r2,  12(sp)
 840000c:	d8800315 	stw	r2,12(sp)
        stw   r3,  16(sp)
 8400010:	d8c00415 	stw	r3,16(sp)
        stw   r4,  20(sp)
 8400014:	d9000515 	stw	r4,20(sp)
        stw   r5,  24(sp)
 8400018:	d9400615 	stw	r5,24(sp)
        stw   r6,  28(sp)
 840001c:	d9800715 	stw	r6,28(sp)
        stw   r7,  32(sp)
 8400020:	d9c00815 	stw	r7,32(sp)
        rdctl r5, estatus   /* Read early to avoid usage stall */
 8400024:	000b307a 	rdctl	r5,estatus
        stw   r8,  36(sp)
 8400028:	da000915 	stw	r8,36(sp)
        stw   r9,  40(sp)
 840002c:	da400a15 	stw	r9,40(sp)
        stw   r10, 44(sp)
 8400030:	da800b15 	stw	r10,44(sp)
        stw   r11, 48(sp)
 8400034:	dac00c15 	stw	r11,48(sp)
        stw   r12, 52(sp)
 8400038:	db000d15 	stw	r12,52(sp)
        stw   r13, 56(sp)
 840003c:	db400e15 	stw	r13,56(sp)
        stw   r14, 60(sp)
 8400040:	db800f15 	stw	r14,60(sp)
        stw   r15, 64(sp)
 8400044:	dbc01015 	stw	r15,64(sp)
        /*
         * ea-4 contains the address of the instruction being executed
         * when the exception occured. For interrupt exceptions, we will
         * will be re-issue the isntruction. Store it in 72(sp)
         */
        stw   r5,  68(sp)  /* estatus */
 8400048:	d9401115 	stw	r5,68(sp)
        addi  r15, ea, -4  /* instruction that caused exception */
 840004c:	ebffff04 	addi	r15,ea,-4
        stw   r15,  72(sp)
 8400050:	dbc01215 	stw	r15,72(sp)
#else
        /*
         * Test to see if the exception was a software exception or caused 
         * by an external interrupt, and vector accordingly.
         */
        rdctl r4, ipending
 8400054:	0009313a 	rdctl	r4,ipending
        andi  r2, r5, 1
 8400058:	2880004c 	andi	r2,r5,1
        beq   r2, zero, .Lnot_irq
 840005c:	10000326 	beq	r2,zero,840006c <alt_exception+0x6c>
        beq   r4, zero, .Lnot_irq
 8400060:	20000226 	beq	r4,zero,840006c <alt_exception+0x6c>
        /*
         * Now that all necessary registers have been preserved, call 
         * alt_irq_handler() to process the interrupts.
         */

        call alt_irq_handler
 8400064:	84000dc0 	call	84000dc <alt_irq_handler>

        .section .exceptions.irqreturn, "xa"

        br    .Lexception_exit
 8400068:	00000706 	br	8400088 <alt_exception+0x88>
         * upon completion, so we write ea (address of instruction *after*
         * the one where the exception occured) into 72(sp). The actual
         * instruction that caused the exception is written in r2, which these
         * handlers will utilize.
         */
        stw ea, 72(sp) /* EA is PC+4 so will skip over instruction causing exception */
 840006c:	df401215 	stw	ea,72(sp)
.Lunknown_16bit:
        addi.n r4, r4, 2 /* Need PC+2 to skip over instruction causing exception */
        stw r4, 72(sp)

#else /* CDX is not Enabled and all instructions are 32bits */
        ldw r2, -4(ea) /* Instruction value that caused exception */
 8400070:	e8bfff17 	ldw	r2,-4(ea)
         * debugger is present) or go into an infinite loop since the
         * handling behavior is undefined; in that case we will not return here.
         */

        /* Load exception-causing address as first argument (r4) */
        addi   r4, ea, -4
 8400074:	e93fff04 	addi	r4,ea,-4

        /* Call the instruction-exception entry */
        call   alt_instruction_exception_entry
 8400078:	84001b00 	call	84001b0 <alt_instruction_exception_entry>
         * instruction
         *
         * Return code was 0: Skip. The instruction after the exception is
         * already stored in 72(sp).
         */
        bne   r2, r0, .Lexception_exit
 840007c:	1000021e 	bne	r2,zero,8400088 <alt_exception+0x88>

        /*
         * Otherwise, modify 72(sp) to re-issue the instruction that caused the
         * exception.
         */
        addi  r15, ea, -4  /* instruction that caused exception */
 8400080:	ebffff04 	addi	r15,ea,-4
        stw   r15,  72(sp)
 8400084:	dbc01215 	stw	r15,72(sp)
        /* 
         * Restore the saved registers, so that all general purpose registers 
         * have been restored to their state at the time the interrupt occured.
         */

        ldw   r5,  68(sp)
 8400088:	d9401117 	ldw	r5,68(sp)
        ldw   ea,  72(sp)  /* This becomes the PC once eret is executed */
 840008c:	df401217 	ldw	ea,72(sp)
        ldw   ra,   0(sp)
 8400090:	dfc00017 	ldw	ra,0(sp)

        wrctl estatus, r5
 8400094:	2801707a 	wrctl	estatus,r5

        ldw   r1,   8(sp)
 8400098:	d8400217 	ldw	at,8(sp)
        ldw   r2,  12(sp)
 840009c:	d8800317 	ldw	r2,12(sp)
        ldw   r3,  16(sp)
 84000a0:	d8c00417 	ldw	r3,16(sp)
        ldw   r4,  20(sp)
 84000a4:	d9000517 	ldw	r4,20(sp)
        ldw   r5,  24(sp)
 84000a8:	d9400617 	ldw	r5,24(sp)
        ldw   r6,  28(sp)
 84000ac:	d9800717 	ldw	r6,28(sp)
        ldw   r7,  32(sp)
 84000b0:	d9c00817 	ldw	r7,32(sp)

#if defined(ALT_EXCEPTION_STACK) && defined(ALT_STACK_CHECK)
        ldw   et, %gprel(alt_exception_old_stack_limit)(gp)
#endif

        ldw   r8,  36(sp)
 84000b4:	da000917 	ldw	r8,36(sp)
        ldw   r9,  40(sp)
 84000b8:	da400a17 	ldw	r9,40(sp)
        ldw   r10, 44(sp)
 84000bc:	da800b17 	ldw	r10,44(sp)
        ldw   r11, 48(sp)
 84000c0:	dac00c17 	ldw	r11,48(sp)
        ldw   r12, 52(sp)
 84000c4:	db000d17 	ldw	r12,52(sp)
        ldw   r13, 56(sp)
 84000c8:	db400e17 	ldw	r13,56(sp)
        ldw   r14, 60(sp)
 84000cc:	db800f17 	ldw	r14,60(sp)
        ldw   r15, 64(sp)
 84000d0:	dbc01017 	ldw	r15,64(sp)
        stw   et, %gprel(alt_stack_limit_value)(gp)
        stw   zero, %gprel(alt_exception_old_stack_limit)(gp)
#endif /* ALT_STACK_CHECK */
        ldw   sp,  76(sp)
#else /* ALT_EXCEPTION_STACK disabled */
        addi  sp, sp, 76
 84000d4:	dec01304 	addi	sp,sp,76

        /*
         * Return to the interrupted instruction.
         */

        eret
 84000d8:	ef80083a 	eret

084000dc <alt_irq_handler>:
 * instruction is present if the macro ALT_CI_INTERRUPT_VECTOR defined.
 */

void alt_irq_handler (void) __attribute__ ((section (".exceptions")));
void alt_irq_handler (void)
{
 84000dc:	defff904 	addi	sp,sp,-28
 84000e0:	dfc00615 	stw	ra,24(sp)
 84000e4:	df000515 	stw	fp,20(sp)
 84000e8:	df000504 	addi	fp,sp,20
  
  /*
   * Notify the operating system that we are at interrupt level.
   */ 
  
  ALT_OS_INT_ENTER();
 84000ec:	0001883a 	nop
#ifndef NIOS2_EIC_PRESENT
static ALT_INLINE alt_u32 ALT_ALWAYS_INLINE alt_irq_pending (void)
{
  alt_u32 active;

  NIOS2_READ_IPENDING (active);
 84000f0:	0005313a 	rdctl	r2,ipending
 84000f4:	e0bffe15 	stw	r2,-8(fp)

  return active;
 84000f8:	e0bffe17 	ldw	r2,-8(fp)
   * Consider the case where the high priority interupt is asserted during
   * the interrupt entry sequence for a lower priority interrupt to see why
   * this is the case.
   */

  active = alt_irq_pending ();
 84000fc:	e0bffb15 	stw	r2,-20(fp)

  do
  {
    i = 0;
 8400100:	e03ffd15 	stw	zero,-12(fp)
    mask = 1;
 8400104:	00800044 	movi	r2,1
 8400108:	e0bffc15 	stw	r2,-16(fp)
     * called to clear the interrupt condition.
     */

    do
    {
      if (active & mask)
 840010c:	e0fffb17 	ldw	r3,-20(fp)
 8400110:	e0bffc17 	ldw	r2,-16(fp)
 8400114:	1884703a 	and	r2,r3,r2
 8400118:	10001426 	beq	r2,zero,840016c <alt_irq_handler+0x90>
      { 
#ifdef ALT_ENHANCED_INTERRUPT_API_PRESENT
        alt_irq[i].handler(alt_irq[i].context); 
 840011c:	00821134 	movhi	r2,2116
 8400120:	10bcb904 	addi	r2,r2,-3356
 8400124:	e0fffd17 	ldw	r3,-12(fp)
 8400128:	180690fa 	slli	r3,r3,3
 840012c:	10c5883a 	add	r2,r2,r3
 8400130:	10c00017 	ldw	r3,0(r2)
 8400134:	00821134 	movhi	r2,2116
 8400138:	10bcb904 	addi	r2,r2,-3356
 840013c:	e13ffd17 	ldw	r4,-12(fp)
 8400140:	200890fa 	slli	r4,r4,3
 8400144:	1105883a 	add	r2,r2,r4
 8400148:	10800104 	addi	r2,r2,4
 840014c:	10800017 	ldw	r2,0(r2)
 8400150:	1009883a 	mov	r4,r2
 8400154:	183ee83a 	callr	r3
#else
        alt_irq[i].handler(alt_irq[i].context, i); 
#endif
        break;
 8400158:	0001883a 	nop
#ifndef NIOS2_EIC_PRESENT
static ALT_INLINE alt_u32 ALT_ALWAYS_INLINE alt_irq_pending (void)
{
  alt_u32 active;

  NIOS2_READ_IPENDING (active);
 840015c:	0005313a 	rdctl	r2,ipending
 8400160:	e0bfff15 	stw	r2,-4(fp)

  return active;
 8400164:	e0bfff17 	ldw	r2,-4(fp)
 8400168:	00000706 	br	8400188 <alt_irq_handler+0xac>
      }
      mask <<= 1;
 840016c:	e0bffc17 	ldw	r2,-16(fp)
 8400170:	1085883a 	add	r2,r2,r2
 8400174:	e0bffc15 	stw	r2,-16(fp)
      i++;
 8400178:	e0bffd17 	ldw	r2,-12(fp)
 840017c:	10800044 	addi	r2,r2,1
 8400180:	e0bffd15 	stw	r2,-12(fp)

    } while (1);
 8400184:	003fe106 	br	840010c <__alt_data_end+0xfc40010c>

    active = alt_irq_pending ();
 8400188:	e0bffb15 	stw	r2,-20(fp)
    
  } while (active);
 840018c:	e0bffb17 	ldw	r2,-20(fp)
 8400190:	103fdb1e 	bne	r2,zero,8400100 <__alt_data_end+0xfc400100>

  /*
   * Notify the operating system that interrupt processing is complete.
   */ 

  ALT_OS_INT_EXIT();
 8400194:	0001883a 	nop
}
 8400198:	0001883a 	nop
 840019c:	e037883a 	mov	sp,fp
 84001a0:	dfc00117 	ldw	ra,4(sp)
 84001a4:	df000017 	ldw	fp,0(sp)
 84001a8:	dec00204 	addi	sp,sp,8
 84001ac:	f800283a 	ret

084001b0 <alt_instruction_exception_entry>:
 * that handler if it has been registered. Absent a handler, it will
 * break break or hang as discussed below.
 */
int 
alt_instruction_exception_entry (alt_u32 exception_pc)
{
 84001b0:	defffb04 	addi	sp,sp,-20
 84001b4:	dfc00415 	stw	ra,16(sp)
 84001b8:	df000315 	stw	fp,12(sp)
 84001bc:	df000304 	addi	fp,sp,12
 84001c0:	e13fff15 	stw	r4,-4(fp)
 * NIOS2_EXCEPTION_CAUSE_NOT_PRESENT. Your handling routine should
 * check the validity of the cause argument before proceeding.
 */
#ifdef NIOS2_HAS_EXTRA_EXCEPTION_INFO
  /* Get exception cause & "badaddr" */
  NIOS2_READ_EXCEPTION(cause);
 84001c4:	000531fa 	rdctl	r2,exception
 84001c8:	e0bffd15 	stw	r2,-12(fp)
  cause = ( (cause & NIOS2_EXCEPTION_REG_CAUSE_MASK) >>
 84001cc:	e0bffd17 	ldw	r2,-12(fp)
 84001d0:	10801f0c 	andi	r2,r2,124
 84001d4:	1004d0ba 	srli	r2,r2,2
 84001d8:	e0bffd15 	stw	r2,-12(fp)
              NIOS2_EXCEPTION_REG_CAUSE_OFST );

  NIOS2_READ_BADADDR(badaddr);
 84001dc:	0005333a 	rdctl	r2,badaddr
 84001e0:	e0bffe15 	stw	r2,-8(fp)
#else
  cause = NIOS2_EXCEPTION_CAUSE_NOT_PRESENT;
  badaddr = 0;
#endif /* NIOS2_HAS_EXTRA_EXCEPTION_INFO */

  if(alt_instruction_exception_handler) {
 84001e4:	d0ac9917 	ldw	r2,-19868(gp)
 84001e8:	10000726 	beq	r2,zero,8400208 <alt_instruction_exception_entry+0x58>
     * Call handler. Its return value indicates whether the exception-causing
     * instruction should be re-issued. The code that called us,
     * alt_eceptions_entry.S, will look at this value and adjust the ea
     * register as necessary
     */
    return alt_instruction_exception_handler(cause, exception_pc, badaddr);
 84001ec:	d0ac9917 	ldw	r2,-19868(gp)
 84001f0:	e0fffd17 	ldw	r3,-12(fp)
 84001f4:	e1bffe17 	ldw	r6,-8(fp)
 84001f8:	e17fff17 	ldw	r5,-4(fp)
 84001fc:	1809883a 	mov	r4,r3
 8400200:	103ee83a 	callr	r2
 8400204:	00000206 	br	8400210 <alt_instruction_exception_entry+0x60>
   *    (a peripheral which negates its interrupt output before its
   *    interrupt handler has been executed will cause spurious interrupts)
   */
  else {
#ifdef NIOS2_HAS_DEBUG_STUB
    NIOS2_BREAK();
 8400208:	003da03a 	break	0
      ;
#endif /* NIOS2_HAS_DEBUG_STUB */
  }

  /* We should not get here. Remove compiler warning. */
  return NIOS2_EXCEPTION_RETURN_REISSUE_INST;
 840020c:	0005883a 	mov	r2,zero
}
 8400210:	e037883a 	mov	sp,fp
 8400214:	dfc00117 	ldw	ra,4(sp)
 8400218:	df000017 	ldw	fp,0(sp)
 840021c:	dec00204 	addi	sp,sp,8
 8400220:	f800283a 	ret

Disassembly of section .text:

08400224 <_start>:

#if NIOS2_DCACHE_SIZE > 0 && (!defined(ALT_SIM_OPTIMIZE) || defined(NIOS2_ECC_PRESENT))

    /* Assume the data cache size is always a power of two. */
#if NIOS2_DCACHE_SIZE > 0x8000
    movhi r2, %hi(NIOS2_DCACHE_SIZE)
 8400224:	00800074 	movhi	r2,1
#else
    movui r2, NIOS2_DCACHE_SIZE
#endif

0:
    initd 0(r2)
 8400228:	10000033 	initd	0(r2)
#ifdef NIOS2_ECC_PRESENT
    addi r2, r2, -4
#else
    addi r2, r2, -NIOS2_DCACHE_LINE_SIZE
 840022c:	10bff804 	addi	r2,r2,-32
#endif
    bgt r2, zero, 0b
 8400230:	00bffd16 	blt	zero,r2,8400228 <__alt_data_end+0xfc400228>

    /*
     * Now that the caches are initialized, set up the stack pointer and global pointer.
     * The values provided by the linker are assumed to be correctly aligned.
     */
    movhi sp, %hi(__alt_stack_pointer)
 8400234:	06c30034 	movhi	sp,3072
    ori sp, sp, %lo(__alt_stack_pointer)
 8400238:	dec00014 	ori	sp,sp,0
    movhi gp, %hi(_gp)
 840023c:	06821134 	movhi	gp,2116
    ori gp, gp, %lo(_gp)
 8400240:	d6901514 	ori	gp,gp,16468
 */
#ifndef ALT_SIM_OPTIMIZE
    /* Log that the BSS is about to be cleared. */
    ALT_LOG_PUTS(alt_log_msg_bss)

    movhi r2, %hi(__bss_start)
 8400244:	008210f4 	movhi	r2,2115
    ori r2, r2, %lo(__bss_start)
 8400248:	10bca014 	ori	r2,r2,62080

    movhi r3, %hi(__bss_end)
 840024c:	00c210f4 	movhi	r3,2115
    ori r3, r3, %lo(__bss_end)
 8400250:	18fcf914 	ori	r3,r3,62436

    beq r2, r3, 1f
 8400254:	10c00326 	beq	r2,r3,8400264 <_start+0x40>

0:
    stw zero, (r2)
 8400258:	10000015 	stw	zero,0(r2)
    addi r2, r2, 4
 840025c:	10800104 	addi	r2,r2,4
    bltu r2, r3, 0b
 8400260:	10fffd36 	bltu	r2,r3,8400258 <__alt_data_end+0xfc400258>
     * section aren't defined until alt_load() has been called).
     */
    mov   et, zero
#endif

    call alt_load
 8400264:	840d1e40 	call	840d1e4 <alt_load>

    /* Log that alt_main is about to be called. */
    ALT_LOG_PUTS(alt_log_msg_alt_main)

    /* Call the C entry point. It should never return. */
    call alt_main
 8400268:	840d3780 	call	840d378 <alt_main>

0840026c <alt_after_alt_main>:

    /* Wait in infinite loop in case alt_main does return. */
alt_after_alt_main:
    br alt_after_alt_main
 840026c:	003fff06 	br	840026c <__alt_data_end+0xfc40026c>

08400270 <main>:
	FINISHED,
	NEW_GAME
}STATUS;


int main() {
 8400270:	defffb04 	addi	sp,sp,-20
 8400274:	dfc00415 	stw	ra,16(sp)
 8400278:	df000315 	stw	fp,12(sp)
 840027c:	dc800215 	stw	r18,8(sp)
 8400280:	dc400115 	stw	r17,4(sp)
 8400284:	dc000015 	stw	r16,0(sp)
 8400288:	df000304 	addi	fp,sp,12
 840028c:	023ffef4 	movhi	r8,65531
 8400290:	42004a04 	addi	r8,r8,296
 8400294:	da37883a 	add	sp,sp,r8
	STATUS status=NO_IMG;
 8400298:	00bffef4 	movhi	r2,65531
 840029c:	10805a04 	addi	r2,r2,360
 84002a0:	1705883a 	add	r2,r2,fp
 84002a4:	10000015 	stw	zero,0(r2)
	int ButtonId;
	MNIST_Image mnist_img;
	bool img[DRAW_WIDTH*DRAW_WIDTH];

	expression exp;
	uint8_t result[3]={0,0,0};			//risultato immesso dall'utente
 84002a8:	00800174 	movhi	r2,5
 84002ac:	10bf9d04 	addi	r2,r2,-396
 84002b0:	00fffef4 	movhi	r3,65531
 84002b4:	18c05a04 	addi	r3,r3,360
 84002b8:	1f07883a 	add	r3,r3,fp
 84002bc:	1885883a 	add	r2,r3,r2
 84002c0:	10000005 	stb	zero,0(r2)
 84002c4:	00800174 	movhi	r2,5
 84002c8:	10bf9d04 	addi	r2,r2,-396
 84002cc:	013ffef4 	movhi	r4,65531
 84002d0:	21005a04 	addi	r4,r4,360
 84002d4:	2709883a 	add	r4,r4,fp
 84002d8:	2085883a 	add	r2,r4,r2
 84002dc:	10000045 	stb	zero,1(r2)
 84002e0:	00800174 	movhi	r2,5
 84002e4:	10bf9d04 	addi	r2,r2,-396
 84002e8:	017ffef4 	movhi	r5,65531
 84002ec:	29405a04 	addi	r5,r5,360
 84002f0:	2f0b883a 	add	r5,r5,fp
 84002f4:	2885883a 	add	r2,r5,r2
 84002f8:	10000085 	stb	zero,2(r2)
	uint8_t answer=0;
 84002fc:	01bffef4 	movhi	r6,65531
 8400300:	31805b04 	addi	r6,r6,364
 8400304:	370d883a 	add	r6,r6,fp
 8400308:	30000005 	stb	zero,0(r6)
	uint8_t digits=0;					//numero di cifre inserite dall'utente
 840030c:	01fffef4 	movhi	r7,65531
 8400310:	39c05b44 	addi	r7,r7,365
 8400314:	3f0f883a 	add	r7,r7,fp
 8400318:	38000005 	stb	zero,0(r7)
	bool red_digit=0;					//flag di presenza di cifre rosse (non confermate)
 840031c:	00bffef4 	movhi	r2,65531
 8400320:	10805c04 	addi	r2,r2,368
 8400324:	1705883a 	add	r2,r2,fp
 8400328:	10000015 	stw	zero,0(r2)
	bool writing=FALSE;
 840032c:	00fffef4 	movhi	r3,65531
 8400330:	18c05d04 	addi	r3,r3,372
 8400334:	1f07883a 	add	r3,r3,fp
 8400338:	18000015 	stw	zero,0(r3)

	for(int i=0; i<DRAW_WIDTH*DRAW_WIDTH; i++)
 840033c:	013ffef4 	movhi	r4,65531
 8400340:	21005e04 	addi	r4,r4,376
 8400344:	2709883a 	add	r4,r4,fp
 8400348:	20000015 	stw	zero,0(r4)
 840034c:	00001706 	br	84003ac <main+0x13c>
	    img[i]=0;
 8400350:	008000b4 	movhi	r2,2
 8400354:	10bb9804 	addi	r2,r2,-4512
 8400358:	017ffef4 	movhi	r5,65531
 840035c:	29405a04 	addi	r5,r5,360
 8400360:	2f0b883a 	add	r5,r5,fp
 8400364:	2887883a 	add	r3,r5,r2
 8400368:	01bffef4 	movhi	r6,65531
 840036c:	31805e04 	addi	r6,r6,376
 8400370:	370d883a 	add	r6,r6,fp
 8400374:	30800017 	ldw	r2,0(r6)
 8400378:	1085883a 	add	r2,r2,r2
 840037c:	1085883a 	add	r2,r2,r2
 8400380:	1885883a 	add	r2,r3,r2
 8400384:	10000015 	stw	zero,0(r2)
	uint8_t answer=0;
	uint8_t digits=0;					//numero di cifre inserite dall'utente
	bool red_digit=0;					//flag di presenza di cifre rosse (non confermate)
	bool writing=FALSE;

	for(int i=0; i<DRAW_WIDTH*DRAW_WIDTH; i++)
 8400388:	01fffef4 	movhi	r7,65531
 840038c:	39c05e04 	addi	r7,r7,376
 8400390:	3f0f883a 	add	r7,r7,fp
 8400394:	38800017 	ldw	r2,0(r7)
 8400398:	10800044 	addi	r2,r2,1
 840039c:	00fffef4 	movhi	r3,65531
 84003a0:	18c05e04 	addi	r3,r3,376
 84003a4:	1f07883a 	add	r3,r3,fp
 84003a8:	18800015 	stw	r2,0(r3)
 84003ac:	013ffef4 	movhi	r4,65531
 84003b0:	21005e04 	addi	r4,r4,376
 84003b4:	2709883a 	add	r4,r4,fp
 84003b8:	20800017 	ldw	r2,0(r4)
 84003bc:	00f0ffd4 	movui	r3,50175
 84003c0:	18bfe30e 	bge	r3,r2,8400350 <__alt_data_end+0xfc400350>
	    img[i]=0;

    initLayer(&nn_layer);
 84003c4:	017ffef4 	movhi	r5,65531
 84003c8:	29406504 	addi	r5,r5,404
 84003cc:	e145883a 	add	r2,fp,r5
 84003d0:	1009883a 	mov	r4,r2
 84003d4:	8401c140 	call	8401c14 <initLayer>

    usleep(40000);
 84003d8:	01271014 	movui	r4,40000
 84003dc:	840d82c0 	call	840d82c <usleep>

   // init touch
   pTouch = Touch_Init(TOUCH_PANEL_SPI_BASE, TOUCH_PANEL_PEN_IRQ_N_BASE, TOUCH_PANEL_PEN_IRQ_N_IRQ);
 84003e0:	018000c4 	movi	r6,3
 84003e4:	01404034 	movhi	r5,256
 84003e8:	29401004 	addi	r5,r5,64
 84003ec:	01004034 	movhi	r4,256
 84003f0:	84061200 	call	8406120 <Touch_Init>
 84003f4:	01bffef4 	movhi	r6,65531
 84003f8:	31806304 	addi	r6,r6,396
 84003fc:	370d883a 	add	r6,r6,fp
 8400400:	30800015 	stw	r2,0(r6)
   if (!pTouch)
 8400404:	01fffef4 	movhi	r7,65531
 8400408:	39c06304 	addi	r7,r7,396
 840040c:	3f0f883a 	add	r7,r7,fp
 8400410:	38800017 	ldw	r2,0(r7)
 8400414:	1000041e 	bne	r2,zero,8400428 <main+0x1b8>
	   printf("Failed to init touch\r\n");
 8400418:	01021074 	movhi	r4,2113
 840041c:	213ec704 	addi	r4,r4,-1252
 8400420:	840a22c0 	call	840a22c <puts>
 8400424:	00000306 	br	8400434 <main+0x1c4>
   else
	   printf("Init touch successfully\r\n");
 8400428:	01021074 	movhi	r4,2113
 840042c:	213ecd04 	addi	r4,r4,-1228
 8400430:	840a22c0 	call	840a22c <puts>


   // init LCD
   LCD_Init();
 8400434:	84022300 	call	8402230 <LCD_Init>
   LCD_Clear(0X0000);
 8400438:	0009883a 	mov	r4,zero
 840043c:	840214c0 	call	840214c <LCD_Clear>

   // init display
   Display.interlace = 0;
 8400440:	008000b4 	movhi	r2,2
 8400444:	10bac704 	addi	r2,r2,-5348
 8400448:	00fffef4 	movhi	r3,65531
 840044c:	18c05a04 	addi	r3,r3,360
 8400450:	1f07883a 	add	r3,r3,fp
 8400454:	1885883a 	add	r2,r3,r2
 8400458:	10000415 	stw	zero,16(r2)
   Display.bytes_per_pixel = 2;
 840045c:	008000b4 	movhi	r2,2
 8400460:	10bac704 	addi	r2,r2,-5348
 8400464:	013ffef4 	movhi	r4,65531
 8400468:	21005a04 	addi	r4,r4,360
 840046c:	2709883a 	add	r4,r4,fp
 8400470:	2085883a 	add	r2,r4,r2
 8400474:	00c00084 	movi	r3,2
 8400478:	10c00315 	stw	r3,12(r2)
   Display.color_depth = 16;
 840047c:	008000b4 	movhi	r2,2
 8400480:	10bac704 	addi	r2,r2,-5348
 8400484:	017ffef4 	movhi	r5,65531
 8400488:	29405a04 	addi	r5,r5,360
 840048c:	2f0b883a 	add	r5,r5,fp
 8400490:	2885883a 	add	r2,r5,r2
 8400494:	00c00404 	movi	r3,16
 8400498:	10c00015 	stw	r3,0(r2)
   Display.height = SCREEN_HEIGHT;
 840049c:	008000b4 	movhi	r2,2
 84004a0:	10bac704 	addi	r2,r2,-5348
 84004a4:	01bffef4 	movhi	r6,65531
 84004a8:	31805a04 	addi	r6,r6,360
 84004ac:	370d883a 	add	r6,r6,fp
 84004b0:	3085883a 	add	r2,r6,r2
 84004b4:	00c05004 	movi	r3,320
 84004b8:	10c00215 	stw	r3,8(r2)
   Display.width = SCREEN_WIDTH;
 84004bc:	008000b4 	movhi	r2,2
 84004c0:	10bac704 	addi	r2,r2,-5348
 84004c4:	01fffef4 	movhi	r7,65531
 84004c8:	39c05a04 	addi	r7,r7,360
 84004cc:	3f0f883a 	add	r7,r7,fp
 84004d0:	3885883a 	add	r2,r7,r2
 84004d4:	00c03c04 	movi	r3,240
 84004d8:	10c00115 	stw	r3,4(r2)

   // init GUI
   GUI(&Display, &DeskInfo, pTouch);
 84004dc:	008000b4 	movhi	r2,2
 84004e0:	10bab304 	addi	r2,r2,-5428
 84004e4:	013ffef4 	movhi	r4,65531
 84004e8:	21005a04 	addi	r4,r4,360
 84004ec:	2709883a 	add	r4,r4,fp
 84004f0:	2087883a 	add	r3,r4,r2
 84004f4:	008000b4 	movhi	r2,2
 84004f8:	10bac704 	addi	r2,r2,-5348
 84004fc:	017ffef4 	movhi	r5,65531
 8400500:	29405a04 	addi	r5,r5,360
 8400504:	2f0b883a 	add	r5,r5,fp
 8400508:	2885883a 	add	r2,r5,r2
 840050c:	01fffef4 	movhi	r7,65531
 8400510:	39c06304 	addi	r7,r7,396
 8400514:	3f0f883a 	add	r7,r7,fp
 8400518:	39800017 	ldw	r6,0(r7)
 840051c:	180b883a 	mov	r5,r3
 8400520:	1009883a 	mov	r4,r2
 8400524:	840394c0 	call	840394c <GUI>
   RectCopy(&rcTouch, &DeskInfo.rcPaint);
 8400528:	008000b4 	movhi	r2,2
 840052c:	10bab304 	addi	r2,r2,-5428
 8400530:	013ffef4 	movhi	r4,65531
 8400534:	21005a04 	addi	r4,r4,360
 8400538:	2709883a 	add	r4,r4,fp
 840053c:	2087883a 	add	r3,r4,r2
 8400540:	008000b4 	movhi	r2,2
 8400544:	10bacc04 	addi	r2,r2,-5328
 8400548:	017ffef4 	movhi	r5,65531
 840054c:	29405a04 	addi	r5,r5,360
 8400550:	2f0b883a 	add	r5,r5,fp
 8400554:	2885883a 	add	r2,r5,r2
 8400558:	180b883a 	mov	r5,r3
 840055c:	1009883a 	mov	r4,r2
 8400560:	8402b6c0 	call	8402b6c <RectCopy>
   RectInflate(&rcTouch, -DOT_SIZE-2, -DOT_SIZE-2);
 8400564:	008000b4 	movhi	r2,2
 8400568:	10bacc04 	addi	r2,r2,-5328
 840056c:	01bffef4 	movhi	r6,65531
 8400570:	31805a04 	addi	r6,r6,360
 8400574:	370d883a 	add	r6,r6,fp
 8400578:	3085883a 	add	r2,r6,r2
 840057c:	01bffbc4 	movi	r6,-17
 8400580:	017ffbc4 	movi	r5,-17
 8400584:	1009883a 	mov	r4,r2
 8400588:	8402a540 	call	8402a54 <RectInflate>

   exp=NewExpression();
 840058c:	00800174 	movhi	r2,5
 8400590:	10bf9804 	addi	r2,r2,-416
 8400594:	01fffef4 	movhi	r7,65531
 8400598:	39c05a04 	addi	r7,r7,360
 840059c:	3f0f883a 	add	r7,r7,fp
 84005a0:	38a1883a 	add	r16,r7,r2
 84005a4:	00800174 	movhi	r2,5
 84005a8:	10bf9e04 	addi	r2,r2,-392
 84005ac:	00fffef4 	movhi	r3,65531
 84005b0:	18c05a04 	addi	r3,r3,360
 84005b4:	1f07883a 	add	r3,r3,fp
 84005b8:	1885883a 	add	r2,r3,r2
 84005bc:	1009883a 	mov	r4,r2
 84005c0:	8403bdc0 	call	8403bdc <NewExpression>
 84005c4:	00800174 	movhi	r2,5
 84005c8:	10bf9e04 	addi	r2,r2,-392
 84005cc:	013ffef4 	movhi	r4,65531
 84005d0:	21005a04 	addi	r4,r4,360
 84005d4:	2709883a 	add	r4,r4,fp
 84005d8:	2085883a 	add	r2,r4,r2
 84005dc:	10c00017 	ldw	r3,0(r2)
 84005e0:	80c00015 	stw	r3,0(r16)
 84005e4:	10c00117 	ldw	r3,4(r2)
 84005e8:	80c00115 	stw	r3,4(r16)
 84005ec:	10c00217 	ldw	r3,8(r2)
 84005f0:	80c00215 	stw	r3,8(r16)
 84005f4:	10c00317 	ldw	r3,12(r2)
 84005f8:	80c00315 	stw	r3,12(r16)
 84005fc:	10800417 	ldw	r2,16(r2)
 8400600:	80800415 	stw	r2,16(r16)
   Print(RECT_EXP, DeskInfo, exp.string);
 8400604:	008000b4 	movhi	r2,2
 8400608:	10bab304 	addi	r2,r2,-5428
 840060c:	017ffef4 	movhi	r5,65531
 8400610:	29405a04 	addi	r5,r5,360
 8400614:	2f0b883a 	add	r5,r5,fp
 8400618:	28a1883a 	add	r16,r5,r2
 840061c:	00800174 	movhi	r2,5
 8400620:	10bf9804 	addi	r2,r2,-416
 8400624:	01bffef4 	movhi	r6,65531
 8400628:	31805a04 	addi	r6,r6,360
 840062c:	370d883a 	add	r6,r6,fp
 8400630:	3085883a 	add	r2,r6,r2
 8400634:	10800344 	addi	r2,r2,13
 8400638:	d8801115 	stw	r2,68(sp)
 840063c:	d809883a 	mov	r4,sp
 8400640:	80800304 	addi	r2,r16,12
 8400644:	00c01104 	movi	r3,68
 8400648:	180d883a 	mov	r6,r3
 840064c:	100b883a 	mov	r5,r2
 8400650:	8409edc0 	call	8409edc <memcpy>
 8400654:	81400017 	ldw	r5,0(r16)
 8400658:	81800117 	ldw	r6,4(r16)
 840065c:	81c00217 	ldw	r7,8(r16)
 8400660:	01000184 	movi	r4,6
 8400664:	84034900 	call	8403490 <Print>

   while(1){
	   if(SLIDERS_DATA_REG & 0x01){
 8400668:	00804034 	movhi	r2,256
 840066c:	10801c04 	addi	r2,r2,112
 8400670:	10800017 	ldw	r2,0(r2)
 8400674:	1080004c 	andi	r2,r2,1
 8400678:	10010526 	beq	r2,zero,8400a90 <main+0x820>
		   ShowHelp(&Display, &DeskInfo, pTouch);
 840067c:	008000b4 	movhi	r2,2
 8400680:	10bab304 	addi	r2,r2,-5428
 8400684:	01fffef4 	movhi	r7,65531
 8400688:	39c05a04 	addi	r7,r7,360
 840068c:	3f0f883a 	add	r7,r7,fp
 8400690:	3887883a 	add	r3,r7,r2
 8400694:	008000b4 	movhi	r2,2
 8400698:	10bac704 	addi	r2,r2,-5348
 840069c:	013ffef4 	movhi	r4,65531
 84006a0:	21005a04 	addi	r4,r4,360
 84006a4:	2709883a 	add	r4,r4,fp
 84006a8:	2085883a 	add	r2,r4,r2
 84006ac:	017ffef4 	movhi	r5,65531
 84006b0:	29406304 	addi	r5,r5,396
 84006b4:	2f0b883a 	add	r5,r5,fp
 84006b8:	29800017 	ldw	r6,0(r5)
 84006bc:	180b883a 	mov	r5,r3
 84006c0:	1009883a 	mov	r4,r2
 84006c4:	84039c40 	call	84039c4 <ShowHelp>
		   Print(RECT_EXP, DeskInfo, exp.string);
 84006c8:	008000b4 	movhi	r2,2
 84006cc:	10bab304 	addi	r2,r2,-5428
 84006d0:	01bffef4 	movhi	r6,65531
 84006d4:	31805a04 	addi	r6,r6,360
 84006d8:	370d883a 	add	r6,r6,fp
 84006dc:	30a1883a 	add	r16,r6,r2
 84006e0:	00800174 	movhi	r2,5
 84006e4:	10bf9804 	addi	r2,r2,-416
 84006e8:	01fffef4 	movhi	r7,65531
 84006ec:	39c05a04 	addi	r7,r7,360
 84006f0:	3f0f883a 	add	r7,r7,fp
 84006f4:	3885883a 	add	r2,r7,r2
 84006f8:	10800344 	addi	r2,r2,13
 84006fc:	d8801115 	stw	r2,68(sp)
 8400700:	d809883a 	mov	r4,sp
 8400704:	80800304 	addi	r2,r16,12
 8400708:	00c01104 	movi	r3,68
 840070c:	180d883a 	mov	r6,r3
 8400710:	100b883a 	mov	r5,r2
 8400714:	8409edc0 	call	8409edc <memcpy>
 8400718:	81400017 	ldw	r5,0(r16)
 840071c:	81800117 	ldw	r6,4(r16)
 8400720:	81c00217 	ldw	r7,8(r16)
 8400724:	01000184 	movi	r4,6
 8400728:	84034900 	call	8403490 <Print>
		   writing=FALSE;
 840072c:	00bffef4 	movhi	r2,65531
 8400730:	10805d04 	addi	r2,r2,372
 8400734:	1705883a 	add	r2,r2,fp
 8400738:	10000015 	stw	zero,0(r2)
		   red_digit=FALSE;
 840073c:	00fffef4 	movhi	r3,65531
 8400740:	18c05c04 	addi	r3,r3,368
 8400744:	1f07883a 	add	r3,r3,fp
 8400748:	18000015 	stw	zero,0(r3)
		   for(int n=0; n<digits; n++)
 840074c:	013ffef4 	movhi	r4,65531
 8400750:	21005f04 	addi	r4,r4,380
 8400754:	2709883a 	add	r4,r4,fp
 8400758:	20000015 	stw	zero,0(r4)
 840075c:	00003806 	br	8400840 <main+0x5d0>
		   	   vid_print_char_alpha(DeskInfo.result.left+20+13*n, DeskInfo.result.top+9, BLACK_24, (char)(result[n]+48), WHITE_24, tahomabold_20);
 8400760:	008000b4 	movhi	r2,2
 8400764:	10bab304 	addi	r2,r2,-5428
 8400768:	017ffef4 	movhi	r5,65531
 840076c:	29405a04 	addi	r5,r5,360
 8400770:	2f0b883a 	add	r5,r5,fp
 8400774:	2885883a 	add	r2,r5,r2
 8400778:	10801017 	ldw	r2,64(r2)
 840077c:	10c00504 	addi	r3,r2,20
 8400780:	01bffef4 	movhi	r6,65531
 8400784:	31805f04 	addi	r6,r6,380
 8400788:	370d883a 	add	r6,r6,fp
 840078c:	30800017 	ldw	r2,0(r6)
 8400790:	10800364 	muli	r2,r2,13
 8400794:	1889883a 	add	r4,r3,r2
 8400798:	008000b4 	movhi	r2,2
 840079c:	10bab304 	addi	r2,r2,-5428
 84007a0:	01fffef4 	movhi	r7,65531
 84007a4:	39c05a04 	addi	r7,r7,360
 84007a8:	3f0f883a 	add	r7,r7,fp
 84007ac:	3885883a 	add	r2,r7,r2
 84007b0:	10801217 	ldw	r2,72(r2)
 84007b4:	11400244 	addi	r5,r2,9
 84007b8:	00800174 	movhi	r2,5
 84007bc:	10bf9d04 	addi	r2,r2,-396
 84007c0:	01bffef4 	movhi	r6,65531
 84007c4:	31805a04 	addi	r6,r6,360
 84007c8:	370d883a 	add	r6,r6,fp
 84007cc:	3087883a 	add	r3,r6,r2
 84007d0:	01fffef4 	movhi	r7,65531
 84007d4:	39c05f04 	addi	r7,r7,380
 84007d8:	3f0f883a 	add	r7,r7,fp
 84007dc:	38800017 	ldw	r2,0(r7)
 84007e0:	1885883a 	add	r2,r3,r2
 84007e4:	10800003 	ldbu	r2,0(r2)
 84007e8:	10800c04 	addi	r2,r2,48
 84007ec:	10c03fcc 	andi	r3,r2,255
 84007f0:	18c0201c 	xori	r3,r3,128
 84007f4:	18ffe004 	addi	r3,r3,-128
 84007f8:	00821134 	movhi	r2,2116
 84007fc:	10a3a804 	addi	r2,r2,-29024
 8400800:	d8800115 	stw	r2,4(sp)
 8400804:	00804034 	movhi	r2,256
 8400808:	10bfffc4 	addi	r2,r2,-1
 840080c:	d8800015 	stw	r2,0(sp)
 8400810:	180f883a 	mov	r7,r3
 8400814:	000d883a 	mov	r6,zero
 8400818:	8405edc0 	call	8405edc <vid_print_char_alpha>
	   if(SLIDERS_DATA_REG & 0x01){
		   ShowHelp(&Display, &DeskInfo, pTouch);
		   Print(RECT_EXP, DeskInfo, exp.string);
		   writing=FALSE;
		   red_digit=FALSE;
		   for(int n=0; n<digits; n++)
 840081c:	00fffef4 	movhi	r3,65531
 8400820:	18c05f04 	addi	r3,r3,380
 8400824:	1f07883a 	add	r3,r3,fp
 8400828:	18800017 	ldw	r2,0(r3)
 840082c:	10800044 	addi	r2,r2,1
 8400830:	013ffef4 	movhi	r4,65531
 8400834:	21005f04 	addi	r4,r4,380
 8400838:	2709883a 	add	r4,r4,fp
 840083c:	20800015 	stw	r2,0(r4)
 8400840:	017ffef4 	movhi	r5,65531
 8400844:	29405b44 	addi	r5,r5,365
 8400848:	2f0b883a 	add	r5,r5,fp
 840084c:	28800003 	ldbu	r2,0(r5)
 8400850:	01bffef4 	movhi	r6,65531
 8400854:	31805f04 	addi	r6,r6,380
 8400858:	370d883a 	add	r6,r6,fp
 840085c:	30c00017 	ldw	r3,0(r6)
 8400860:	18bfbf16 	blt	r3,r2,8400760 <__alt_data_end+0xfc400760>
		   	   vid_print_char_alpha(DeskInfo.result.left+20+13*n, DeskInfo.result.top+9, BLACK_24, (char)(result[n]+48), WHITE_24, tahomabold_20);

		   if(status==NEW_GAME){
 8400864:	01fffef4 	movhi	r7,65531
 8400868:	39c05a04 	addi	r7,r7,360
 840086c:	3f0f883a 	add	r7,r7,fp
 8400870:	38800017 	ldw	r2,0(r7)
 8400874:	10800118 	cmpnei	r2,r2,4
 8400878:	10007b1e 	bne	r2,zero,8400a68 <main+0x7f8>
			   vid_draw_box (DeskInfo.expression.left, DeskInfo.expression.top, DeskInfo.expression.right, DeskInfo.expression.bottom, YELLOW_24, DO_FILL, &Display);
 840087c:	008000b4 	movhi	r2,2
 8400880:	10bab304 	addi	r2,r2,-5428
 8400884:	00fffef4 	movhi	r3,65531
 8400888:	18c05a04 	addi	r3,r3,360
 840088c:	1f07883a 	add	r3,r3,fp
 8400890:	1885883a 	add	r2,r3,r2
 8400894:	10c00c17 	ldw	r3,48(r2)
 8400898:	008000b4 	movhi	r2,2
 840089c:	10bab304 	addi	r2,r2,-5428
 84008a0:	013ffef4 	movhi	r4,65531
 84008a4:	21005a04 	addi	r4,r4,360
 84008a8:	2709883a 	add	r4,r4,fp
 84008ac:	2085883a 	add	r2,r4,r2
 84008b0:	11000e17 	ldw	r4,56(r2)
 84008b4:	008000b4 	movhi	r2,2
 84008b8:	10bab304 	addi	r2,r2,-5428
 84008bc:	017ffef4 	movhi	r5,65531
 84008c0:	29405a04 	addi	r5,r5,360
 84008c4:	2f0b883a 	add	r5,r5,fp
 84008c8:	2885883a 	add	r2,r5,r2
 84008cc:	11400d17 	ldw	r5,52(r2)
 84008d0:	008000b4 	movhi	r2,2
 84008d4:	10bab304 	addi	r2,r2,-5428
 84008d8:	01bffef4 	movhi	r6,65531
 84008dc:	31805a04 	addi	r6,r6,360
 84008e0:	370d883a 	add	r6,r6,fp
 84008e4:	3085883a 	add	r2,r6,r2
 84008e8:	11800f17 	ldw	r6,60(r2)
 84008ec:	008000b4 	movhi	r2,2
 84008f0:	10bac704 	addi	r2,r2,-5348
 84008f4:	01fffef4 	movhi	r7,65531
 84008f8:	39c05a04 	addi	r7,r7,360
 84008fc:	3f0f883a 	add	r7,r7,fp
 8400900:	3885883a 	add	r2,r7,r2
 8400904:	d8800215 	stw	r2,8(sp)
 8400908:	00800044 	movi	r2,1
 840090c:	d8800115 	stw	r2,4(sp)
 8400910:	00804034 	movhi	r2,256
 8400914:	10bfc004 	addi	r2,r2,-256
 8400918:	d8800015 	stw	r2,0(sp)
 840091c:	300f883a 	mov	r7,r6
 8400920:	280d883a 	mov	r6,r5
 8400924:	200b883a 	mov	r5,r4
 8400928:	1809883a 	mov	r4,r3
 840092c:	84042880 	call	8404288 <vid_draw_box>
			   Print(BTN_NEWGAME, DeskInfo, "New game!");
 8400930:	008000b4 	movhi	r2,2
 8400934:	10bab304 	addi	r2,r2,-5428
 8400938:	00fffef4 	movhi	r3,65531
 840093c:	18c05a04 	addi	r3,r3,360
 8400940:	1f07883a 	add	r3,r3,fp
 8400944:	18a1883a 	add	r16,r3,r2
 8400948:	00821074 	movhi	r2,2113
 840094c:	10bed404 	addi	r2,r2,-1200
 8400950:	d8801115 	stw	r2,68(sp)
 8400954:	d809883a 	mov	r4,sp
 8400958:	80800304 	addi	r2,r16,12
 840095c:	00c01104 	movi	r3,68
 8400960:	180d883a 	mov	r6,r3
 8400964:	100b883a 	mov	r5,r2
 8400968:	8409edc0 	call	8409edc <memcpy>
 840096c:	81400017 	ldw	r5,0(r16)
 8400970:	81800117 	ldw	r6,4(r16)
 8400974:	81c00217 	ldw	r7,8(r16)
 8400978:	01000104 	movi	r4,4
 840097c:	84034900 	call	8403490 <Print>
			   if(answer==exp.answer && digits!=0)
 8400980:	013ffef4 	movhi	r4,65531
 8400984:	21005b04 	addi	r4,r4,364
 8400988:	2709883a 	add	r4,r4,fp
 840098c:	20c00003 	ldbu	r3,0(r4)
 8400990:	00800174 	movhi	r2,5
 8400994:	10bf9804 	addi	r2,r2,-416
 8400998:	017ffef4 	movhi	r5,65531
 840099c:	29405a04 	addi	r5,r5,360
 84009a0:	2f0b883a 	add	r5,r5,fp
 84009a4:	2885883a 	add	r2,r5,r2
 84009a8:	10800217 	ldw	r2,8(r2)
 84009ac:	18801a1e 	bne	r3,r2,8400a18 <main+0x7a8>
 84009b0:	01bffef4 	movhi	r6,65531
 84009b4:	31805b44 	addi	r6,r6,365
 84009b8:	370d883a 	add	r6,r6,fp
 84009bc:	30800003 	ldbu	r2,0(r6)
 84009c0:	10001526 	beq	r2,zero,8400a18 <main+0x7a8>
				   Print(RECT_PAINT, DeskInfo, "Nice");
 84009c4:	008000b4 	movhi	r2,2
 84009c8:	10bab304 	addi	r2,r2,-5428
 84009cc:	01fffef4 	movhi	r7,65531
 84009d0:	39c05a04 	addi	r7,r7,360
 84009d4:	3f0f883a 	add	r7,r7,fp
 84009d8:	38a1883a 	add	r16,r7,r2
 84009dc:	00821074 	movhi	r2,2113
 84009e0:	10bed704 	addi	r2,r2,-1188
 84009e4:	d8801115 	stw	r2,68(sp)
 84009e8:	d809883a 	mov	r4,sp
 84009ec:	80800304 	addi	r2,r16,12
 84009f0:	00c01104 	movi	r3,68
 84009f4:	180d883a 	mov	r6,r3
 84009f8:	100b883a 	mov	r5,r2
 84009fc:	8409edc0 	call	8409edc <memcpy>
 8400a00:	81400017 	ldw	r5,0(r16)
 8400a04:	81800117 	ldw	r6,4(r16)
 8400a08:	81c00217 	ldw	r7,8(r16)
 8400a0c:	01000144 	movi	r4,5
 8400a10:	84034900 	call	8403490 <Print>
 8400a14:	00001406 	br	8400a68 <main+0x7f8>
			   else
					Print(RECT_PAINT, DeskInfo, "Nope");
 8400a18:	008000b4 	movhi	r2,2
 8400a1c:	10bab304 	addi	r2,r2,-5428
 8400a20:	00fffef4 	movhi	r3,65531
 8400a24:	18c05a04 	addi	r3,r3,360
 8400a28:	1f07883a 	add	r3,r3,fp
 8400a2c:	18a1883a 	add	r16,r3,r2
 8400a30:	00821074 	movhi	r2,2113
 8400a34:	10bed904 	addi	r2,r2,-1180
 8400a38:	d8801115 	stw	r2,68(sp)
 8400a3c:	d809883a 	mov	r4,sp
 8400a40:	80800304 	addi	r2,r16,12
 8400a44:	00c01104 	movi	r3,68
 8400a48:	180d883a 	mov	r6,r3
 8400a4c:	100b883a 	mov	r5,r2
 8400a50:	8409edc0 	call	8409edc <memcpy>
 8400a54:	81400017 	ldw	r5,0(r16)
 8400a58:	81800117 	ldw	r6,4(r16)
 8400a5c:	81c00217 	ldw	r7,8(r16)
 8400a60:	01000144 	movi	r4,5
 8400a64:	84034900 	call	8403490 <Print>
		   }
		   if(status==CONFIRM)
 8400a68:	013ffef4 	movhi	r4,65531
 8400a6c:	21005a04 	addi	r4,r4,360
 8400a70:	2709883a 	add	r4,r4,fp
 8400a74:	20800017 	ldw	r2,0(r4)
 8400a78:	10800098 	cmpnei	r2,r2,2
 8400a7c:	1000041e 	bne	r2,zero,8400a90 <main+0x820>
			   status=NO_IMG;
 8400a80:	017ffef4 	movhi	r5,65531
 8400a84:	29405a04 	addi	r5,r5,360
 8400a88:	2f0b883a 	add	r5,r5,fp
 8400a8c:	28000015 	stw	zero,0(r5)
	   }

   		if (Touch_GetXY(pTouch, &X, &Y)){
 8400a90:	008000b4 	movhi	r2,2
 8400a94:	10bad304 	addi	r2,r2,-5300
 8400a98:	01bffef4 	movhi	r6,65531
 8400a9c:	31805a04 	addi	r6,r6,360
 8400aa0:	370d883a 	add	r6,r6,fp
 8400aa4:	3087883a 	add	r3,r6,r2
 8400aa8:	008000b4 	movhi	r2,2
 8400aac:	10bad204 	addi	r2,r2,-5304
 8400ab0:	01fffef4 	movhi	r7,65531
 8400ab4:	39c05a04 	addi	r7,r7,360
 8400ab8:	3f0f883a 	add	r7,r7,fp
 8400abc:	3885883a 	add	r2,r7,r2
 8400ac0:	180d883a 	mov	r6,r3
 8400ac4:	100b883a 	mov	r5,r2
 8400ac8:	00bffef4 	movhi	r2,65531
 8400acc:	10806304 	addi	r2,r2,396
 8400ad0:	1705883a 	add	r2,r2,fp
 8400ad4:	11000017 	ldw	r4,0(r2)
 8400ad8:	84063340 	call	8406334 <Touch_GetXY>
 8400adc:	1003a026 	beq	r2,zero,8401960 <main+0x16f0>

   			PtSet(&Pt, X, Y);
 8400ae0:	008000b4 	movhi	r2,2
 8400ae4:	10bad204 	addi	r2,r2,-5304
 8400ae8:	00fffef4 	movhi	r3,65531
 8400aec:	18c05a04 	addi	r3,r3,360
 8400af0:	1f07883a 	add	r3,r3,fp
 8400af4:	1885883a 	add	r2,r3,r2
 8400af8:	10c00017 	ldw	r3,0(r2)
 8400afc:	008000b4 	movhi	r2,2
 8400b00:	10bad304 	addi	r2,r2,-5300
 8400b04:	013ffef4 	movhi	r4,65531
 8400b08:	21005a04 	addi	r4,r4,360
 8400b0c:	2709883a 	add	r4,r4,fp
 8400b10:	2085883a 	add	r2,r4,r2
 8400b14:	11000017 	ldw	r4,0(r2)
 8400b18:	008000b4 	movhi	r2,2
 8400b1c:	10bad004 	addi	r2,r2,-5312
 8400b20:	017ffef4 	movhi	r5,65531
 8400b24:	29405a04 	addi	r5,r5,360
 8400b28:	2f0b883a 	add	r5,r5,fp
 8400b2c:	2885883a 	add	r2,r5,r2
 8400b30:	200d883a 	mov	r6,r4
 8400b34:	180b883a 	mov	r5,r3
 8400b38:	1009883a 	mov	r4,r2
 8400b3c:	84029b00 	call	84029b0 <PtSet>
   			ButtonId = GUI_CheckButton(&DeskInfo, &Pt);
 8400b40:	008000b4 	movhi	r2,2
 8400b44:	10bad004 	addi	r2,r2,-5312
 8400b48:	01bffef4 	movhi	r6,65531
 8400b4c:	31805a04 	addi	r6,r6,360
 8400b50:	370d883a 	add	r6,r6,fp
 8400b54:	3087883a 	add	r3,r6,r2
 8400b58:	008000b4 	movhi	r2,2
 8400b5c:	10bab304 	addi	r2,r2,-5428
 8400b60:	01fffef4 	movhi	r7,65531
 8400b64:	39c05a04 	addi	r7,r7,360
 8400b68:	3f0f883a 	add	r7,r7,fp
 8400b6c:	3885883a 	add	r2,r7,r2
 8400b70:	180b883a 	mov	r5,r3
 8400b74:	1009883a 	mov	r4,r2
 8400b78:	8402f880 	call	8402f88 <GUI_CheckButton>
 8400b7c:	00fffef4 	movhi	r3,65531
 8400b80:	18c06404 	addi	r3,r3,400
 8400b84:	1f07883a 	add	r3,r3,fp
 8400b88:	18800015 	stw	r2,0(r3)

   			/*se c' tocco nell'area buona, coloro il punto toccato*/
   			if(IsPtInRect(&Pt, &rcTouch)){
 8400b8c:	008000b4 	movhi	r2,2
 8400b90:	10bacc04 	addi	r2,r2,-5328
 8400b94:	013ffef4 	movhi	r4,65531
 8400b98:	21005a04 	addi	r4,r4,360
 8400b9c:	2709883a 	add	r4,r4,fp
 8400ba0:	2087883a 	add	r3,r4,r2
 8400ba4:	008000b4 	movhi	r2,2
 8400ba8:	10bad004 	addi	r2,r2,-5312
 8400bac:	017ffef4 	movhi	r5,65531
 8400bb0:	29405a04 	addi	r5,r5,360
 8400bb4:	2f0b883a 	add	r5,r5,fp
 8400bb8:	2885883a 	add	r2,r5,r2
 8400bbc:	180b883a 	mov	r5,r3
 8400bc0:	1009883a 	mov	r4,r2
 8400bc4:	840292c0 	call	840292c <IsPtInRect>
 8400bc8:	10006926 	beq	r2,zero,8400d70 <main+0xb00>
   				vid_draw_circle(Pt.x, Pt.y, DOT_SIZE, WHITE_24, DO_FILL, &Display);
 8400bcc:	008000b4 	movhi	r2,2
 8400bd0:	10bad004 	addi	r2,r2,-5312
 8400bd4:	01bffef4 	movhi	r6,65531
 8400bd8:	31805a04 	addi	r6,r6,360
 8400bdc:	370d883a 	add	r6,r6,fp
 8400be0:	3085883a 	add	r2,r6,r2
 8400be4:	10c00017 	ldw	r3,0(r2)
 8400be8:	008000b4 	movhi	r2,2
 8400bec:	10bad004 	addi	r2,r2,-5312
 8400bf0:	01fffef4 	movhi	r7,65531
 8400bf4:	39c05a04 	addi	r7,r7,360
 8400bf8:	3f0f883a 	add	r7,r7,fp
 8400bfc:	3885883a 	add	r2,r7,r2
 8400c00:	11000117 	ldw	r4,4(r2)
 8400c04:	008000b4 	movhi	r2,2
 8400c08:	10bac704 	addi	r2,r2,-5348
 8400c0c:	017ffef4 	movhi	r5,65531
 8400c10:	29405a04 	addi	r5,r5,360
 8400c14:	2f0b883a 	add	r5,r5,fp
 8400c18:	2885883a 	add	r2,r5,r2
 8400c1c:	d8800115 	stw	r2,4(sp)
 8400c20:	00800044 	movi	r2,1
 8400c24:	d8800015 	stw	r2,0(sp)
 8400c28:	01c04034 	movhi	r7,256
 8400c2c:	39ffffc4 	addi	r7,r7,-1
 8400c30:	018003c4 	movi	r6,15
 8400c34:	200b883a 	mov	r5,r4
 8400c38:	1809883a 	mov	r4,r3
 8400c3c:	8404a7c0 	call	8404a7c <vid_draw_circle>
   				Update_img(Pt, img, DeskInfo);
 8400c40:	008000b4 	movhi	r2,2
 8400c44:	10bab304 	addi	r2,r2,-5428
 8400c48:	01bffef4 	movhi	r6,65531
 8400c4c:	31805a04 	addi	r6,r6,360
 8400c50:	370d883a 	add	r6,r6,fp
 8400c54:	30a3883a 	add	r17,r6,r2
 8400c58:	008000b4 	movhi	r2,2
 8400c5c:	10bb9804 	addi	r2,r2,-4512
 8400c60:	01fffef4 	movhi	r7,65531
 8400c64:	39c05a04 	addi	r7,r7,360
 8400c68:	3f0f883a 	add	r7,r7,fp
 8400c6c:	38a5883a 	add	r18,r7,r2
 8400c70:	008000b4 	movhi	r2,2
 8400c74:	10bad004 	addi	r2,r2,-5312
 8400c78:	00fffef4 	movhi	r3,65531
 8400c7c:	18c05a04 	addi	r3,r3,360
 8400c80:	1f07883a 	add	r3,r3,fp
 8400c84:	18a1883a 	add	r16,r3,r2
 8400c88:	d809883a 	mov	r4,sp
 8400c8c:	88800104 	addi	r2,r17,4
 8400c90:	00c01304 	movi	r3,76
 8400c94:	180d883a 	mov	r6,r3
 8400c98:	100b883a 	mov	r5,r2
 8400c9c:	8409edc0 	call	8409edc <memcpy>
 8400ca0:	89c00017 	ldw	r7,0(r17)
 8400ca4:	900d883a 	mov	r6,r18
 8400ca8:	81000017 	ldw	r4,0(r16)
 8400cac:	81400117 	ldw	r5,4(r16)
 8400cb0:	84036980 	call	8403698 <Update_img>
   				if(writing==FALSE){
 8400cb4:	013ffef4 	movhi	r4,65531
 8400cb8:	21005d04 	addi	r4,r4,372
 8400cbc:	2709883a 	add	r4,r4,fp
 8400cc0:	20800017 	ldw	r2,0(r4)
 8400cc4:	1000241e 	bne	r2,zero,8400d58 <main+0xae8>
   					GUI_ClearRect(BTN_ENTER, &DeskInfo, &Display);
 8400cc8:	008000b4 	movhi	r2,2
 8400ccc:	10bac704 	addi	r2,r2,-5348
 8400cd0:	017ffef4 	movhi	r5,65531
 8400cd4:	29405a04 	addi	r5,r5,360
 8400cd8:	2f0b883a 	add	r5,r5,fp
 8400cdc:	2887883a 	add	r3,r5,r2
 8400ce0:	008000b4 	movhi	r2,2
 8400ce4:	10bab304 	addi	r2,r2,-5428
 8400ce8:	01bffef4 	movhi	r6,65531
 8400cec:	31805a04 	addi	r6,r6,360
 8400cf0:	370d883a 	add	r6,r6,fp
 8400cf4:	3085883a 	add	r2,r6,r2
 8400cf8:	180d883a 	mov	r6,r3
 8400cfc:	100b883a 	mov	r5,r2
 8400d00:	01000084 	movi	r4,2
 8400d04:	84032c80 	call	84032c8 <GUI_ClearRect>
   					Print(BTN_ENTER, DeskInfo, "Enter");
 8400d08:	008000b4 	movhi	r2,2
 8400d0c:	10bab304 	addi	r2,r2,-5428
 8400d10:	01fffef4 	movhi	r7,65531
 8400d14:	39c05a04 	addi	r7,r7,360
 8400d18:	3f0f883a 	add	r7,r7,fp
 8400d1c:	38a1883a 	add	r16,r7,r2
 8400d20:	00821074 	movhi	r2,2113
 8400d24:	10bedb04 	addi	r2,r2,-1172
 8400d28:	d8801115 	stw	r2,68(sp)
 8400d2c:	d809883a 	mov	r4,sp
 8400d30:	80800304 	addi	r2,r16,12
 8400d34:	00c01104 	movi	r3,68
 8400d38:	180d883a 	mov	r6,r3
 8400d3c:	100b883a 	mov	r5,r2
 8400d40:	8409edc0 	call	8409edc <memcpy>
 8400d44:	81400017 	ldw	r5,0(r16)
 8400d48:	81800117 	ldw	r6,4(r16)
 8400d4c:	81c00217 	ldw	r7,8(r16)
 8400d50:	01000084 	movi	r4,2
 8400d54:	84034900 	call	8403490 <Print>
   				}
   				writing=TRUE;
 8400d58:	00800044 	movi	r2,1
 8400d5c:	00fffef4 	movhi	r3,65531
 8400d60:	18c05d04 	addi	r3,r3,372
 8400d64:	1f07883a 	add	r3,r3,fp
 8400d68:	18800015 	stw	r2,0(r3)
 8400d6c:	0002fc06 	br	8401960 <main+0x16f0>
   			}

   			/*se ho cliccato clear, pulisco*/
   			else if (ButtonId == BTN_CLEAR){
 8400d70:	013ffef4 	movhi	r4,65531
 8400d74:	21006404 	addi	r4,r4,400
 8400d78:	2709883a 	add	r4,r4,fp
 8400d7c:	20800017 	ldw	r2,0(r4)
 8400d80:	10800058 	cmpnei	r2,r2,1
 8400d84:	1000c51e 	bne	r2,zero,840109c <main+0xe2c>
   				if(status != NEW_GAME)
 8400d88:	017ffef4 	movhi	r5,65531
 8400d8c:	29405a04 	addi	r5,r5,360
 8400d90:	2f0b883a 	add	r5,r5,fp
 8400d94:	28800017 	ldw	r2,0(r5)
 8400d98:	10800120 	cmpeqi	r2,r2,4
 8400d9c:	1000041e 	bne	r2,zero,8400db0 <main+0xb40>
   					status=NO_IMG;
 8400da0:	01bffef4 	movhi	r6,65531
 8400da4:	31805a04 	addi	r6,r6,360
 8400da8:	370d883a 	add	r6,r6,fp
 8400dac:	30000015 	stw	zero,0(r6)
   				writing=FALSE;
 8400db0:	01fffef4 	movhi	r7,65531
 8400db4:	39c05d04 	addi	r7,r7,372
 8400db8:	3f0f883a 	add	r7,r7,fp
 8400dbc:	38000015 	stw	zero,0(r7)
   				GUI_ClearRect(BTN_ENTER, &DeskInfo, &Display);
 8400dc0:	008000b4 	movhi	r2,2
 8400dc4:	10bac704 	addi	r2,r2,-5348
 8400dc8:	013ffef4 	movhi	r4,65531
 8400dcc:	21005a04 	addi	r4,r4,360
 8400dd0:	2709883a 	add	r4,r4,fp
 8400dd4:	2087883a 	add	r3,r4,r2
 8400dd8:	008000b4 	movhi	r2,2
 8400ddc:	10bab304 	addi	r2,r2,-5428
 8400de0:	017ffef4 	movhi	r5,65531
 8400de4:	29405a04 	addi	r5,r5,360
 8400de8:	2f0b883a 	add	r5,r5,fp
 8400dec:	2885883a 	add	r2,r5,r2
 8400df0:	180d883a 	mov	r6,r3
 8400df4:	100b883a 	mov	r5,r2
 8400df8:	01000084 	movi	r4,2
 8400dfc:	84032c80 	call	84032c8 <GUI_ClearRect>
   				Print(BTN_ENTER, DeskInfo, "Done");
 8400e00:	008000b4 	movhi	r2,2
 8400e04:	10bab304 	addi	r2,r2,-5428
 8400e08:	01bffef4 	movhi	r6,65531
 8400e0c:	31805a04 	addi	r6,r6,360
 8400e10:	370d883a 	add	r6,r6,fp
 8400e14:	30a1883a 	add	r16,r6,r2
 8400e18:	00821074 	movhi	r2,2113
 8400e1c:	10bedd04 	addi	r2,r2,-1164
 8400e20:	d8801115 	stw	r2,68(sp)
 8400e24:	d809883a 	mov	r4,sp
 8400e28:	80800304 	addi	r2,r16,12
 8400e2c:	00c01104 	movi	r3,68
 8400e30:	180d883a 	mov	r6,r3
 8400e34:	100b883a 	mov	r5,r2
 8400e38:	8409edc0 	call	8409edc <memcpy>
 8400e3c:	81400017 	ldw	r5,0(r16)
 8400e40:	81800117 	ldw	r6,4(r16)
 8400e44:	81c00217 	ldw	r7,8(r16)
 8400e48:	01000084 	movi	r4,2
 8400e4c:	84034900 	call	8403490 <Print>
   				GUI_ClearRect(RECT_PAINT, &DeskInfo, &Display);
 8400e50:	008000b4 	movhi	r2,2
 8400e54:	10bac704 	addi	r2,r2,-5348
 8400e58:	01fffef4 	movhi	r7,65531
 8400e5c:	39c05a04 	addi	r7,r7,360
 8400e60:	3f0f883a 	add	r7,r7,fp
 8400e64:	3887883a 	add	r3,r7,r2
 8400e68:	008000b4 	movhi	r2,2
 8400e6c:	10bab304 	addi	r2,r2,-5428
 8400e70:	013ffef4 	movhi	r4,65531
 8400e74:	21005a04 	addi	r4,r4,360
 8400e78:	2709883a 	add	r4,r4,fp
 8400e7c:	2085883a 	add	r2,r4,r2
 8400e80:	180d883a 	mov	r6,r3
 8400e84:	100b883a 	mov	r5,r2
 8400e88:	01000144 	movi	r4,5
 8400e8c:	84032c80 	call	84032c8 <GUI_ClearRect>
   				Touch_EmptyFifo(pTouch);
 8400e90:	017ffef4 	movhi	r5,65531
 8400e94:	29406304 	addi	r5,r5,396
 8400e98:	2f0b883a 	add	r5,r5,fp
 8400e9c:	29000017 	ldw	r4,0(r5)
 8400ea0:	84062f80 	call	84062f8 <Touch_EmptyFifo>
   				for(int i=0; i<DRAW_WIDTH*DRAW_WIDTH; i++)
 8400ea4:	01bffef4 	movhi	r6,65531
 8400ea8:	31806004 	addi	r6,r6,384
 8400eac:	370d883a 	add	r6,r6,fp
 8400eb0:	30000015 	stw	zero,0(r6)
 8400eb4:	00001706 	br	8400f14 <main+0xca4>
   					img[i]=0;
 8400eb8:	008000b4 	movhi	r2,2
 8400ebc:	10bb9804 	addi	r2,r2,-4512
 8400ec0:	01fffef4 	movhi	r7,65531
 8400ec4:	39c05a04 	addi	r7,r7,360
 8400ec8:	3f0f883a 	add	r7,r7,fp
 8400ecc:	3887883a 	add	r3,r7,r2
 8400ed0:	013ffef4 	movhi	r4,65531
 8400ed4:	21006004 	addi	r4,r4,384
 8400ed8:	2709883a 	add	r4,r4,fp
 8400edc:	20800017 	ldw	r2,0(r4)
 8400ee0:	1085883a 	add	r2,r2,r2
 8400ee4:	1085883a 	add	r2,r2,r2
 8400ee8:	1885883a 	add	r2,r3,r2
 8400eec:	10000015 	stw	zero,0(r2)
   				writing=FALSE;
   				GUI_ClearRect(BTN_ENTER, &DeskInfo, &Display);
   				Print(BTN_ENTER, DeskInfo, "Done");
   				GUI_ClearRect(RECT_PAINT, &DeskInfo, &Display);
   				Touch_EmptyFifo(pTouch);
   				for(int i=0; i<DRAW_WIDTH*DRAW_WIDTH; i++)
 8400ef0:	017ffef4 	movhi	r5,65531
 8400ef4:	29406004 	addi	r5,r5,384
 8400ef8:	2f0b883a 	add	r5,r5,fp
 8400efc:	28800017 	ldw	r2,0(r5)
 8400f00:	10800044 	addi	r2,r2,1
 8400f04:	01bffef4 	movhi	r6,65531
 8400f08:	31806004 	addi	r6,r6,384
 8400f0c:	370d883a 	add	r6,r6,fp
 8400f10:	30800015 	stw	r2,0(r6)
 8400f14:	01fffef4 	movhi	r7,65531
 8400f18:	39c06004 	addi	r7,r7,384
 8400f1c:	3f0f883a 	add	r7,r7,fp
 8400f20:	38800017 	ldw	r2,0(r7)
 8400f24:	00f0ffd4 	movui	r3,50175
 8400f28:	18bfe30e 	bge	r3,r2,8400eb8 <__alt_data_end+0xfc400eb8>
   					img[i]=0;

				if(red_digit){
 8400f2c:	00fffef4 	movhi	r3,65531
 8400f30:	18c05c04 	addi	r3,r3,368
 8400f34:	1f07883a 	add	r3,r3,fp
 8400f38:	18800017 	ldw	r2,0(r3)
 8400f3c:	10028826 	beq	r2,zero,8401960 <main+0x16f0>
					GUI_ClearRect(BTN_RESULT, &DeskInfo, &Display);
 8400f40:	008000b4 	movhi	r2,2
 8400f44:	10bac704 	addi	r2,r2,-5348
 8400f48:	013ffef4 	movhi	r4,65531
 8400f4c:	21005a04 	addi	r4,r4,360
 8400f50:	2709883a 	add	r4,r4,fp
 8400f54:	2087883a 	add	r3,r4,r2
 8400f58:	008000b4 	movhi	r2,2
 8400f5c:	10bab304 	addi	r2,r2,-5428
 8400f60:	017ffef4 	movhi	r5,65531
 8400f64:	29405a04 	addi	r5,r5,360
 8400f68:	2f0b883a 	add	r5,r5,fp
 8400f6c:	2885883a 	add	r2,r5,r2
 8400f70:	180d883a 	mov	r6,r3
 8400f74:	100b883a 	mov	r5,r2
 8400f78:	010000c4 	movi	r4,3
 8400f7c:	84032c80 	call	84032c8 <GUI_ClearRect>
					for(int n=0; n<digits; n++)
 8400f80:	01bffef4 	movhi	r6,65531
 8400f84:	31806104 	addi	r6,r6,388
 8400f88:	370d883a 	add	r6,r6,fp
 8400f8c:	30000015 	stw	zero,0(r6)
 8400f90:	00003806 	br	8401074 <main+0xe04>
						vid_print_char_alpha(DeskInfo.result.left+20+13*n, DeskInfo.result.top+9, BLACK_24, (char)(result[n]+48), WHITE_24, tahomabold_20);
 8400f94:	008000b4 	movhi	r2,2
 8400f98:	10bab304 	addi	r2,r2,-5428
 8400f9c:	01fffef4 	movhi	r7,65531
 8400fa0:	39c05a04 	addi	r7,r7,360
 8400fa4:	3f0f883a 	add	r7,r7,fp
 8400fa8:	3885883a 	add	r2,r7,r2
 8400fac:	10801017 	ldw	r2,64(r2)
 8400fb0:	10c00504 	addi	r3,r2,20
 8400fb4:	013ffef4 	movhi	r4,65531
 8400fb8:	21006104 	addi	r4,r4,388
 8400fbc:	2709883a 	add	r4,r4,fp
 8400fc0:	20800017 	ldw	r2,0(r4)
 8400fc4:	10800364 	muli	r2,r2,13
 8400fc8:	1889883a 	add	r4,r3,r2
 8400fcc:	008000b4 	movhi	r2,2
 8400fd0:	10bab304 	addi	r2,r2,-5428
 8400fd4:	017ffef4 	movhi	r5,65531
 8400fd8:	29405a04 	addi	r5,r5,360
 8400fdc:	2f0b883a 	add	r5,r5,fp
 8400fe0:	2885883a 	add	r2,r5,r2
 8400fe4:	10801217 	ldw	r2,72(r2)
 8400fe8:	11400244 	addi	r5,r2,9
 8400fec:	00800174 	movhi	r2,5
 8400ff0:	10bf9d04 	addi	r2,r2,-396
 8400ff4:	01bffef4 	movhi	r6,65531
 8400ff8:	31805a04 	addi	r6,r6,360
 8400ffc:	370d883a 	add	r6,r6,fp
 8401000:	3087883a 	add	r3,r6,r2
 8401004:	01fffef4 	movhi	r7,65531
 8401008:	39c06104 	addi	r7,r7,388
 840100c:	3f0f883a 	add	r7,r7,fp
 8401010:	38800017 	ldw	r2,0(r7)
 8401014:	1885883a 	add	r2,r3,r2
 8401018:	10800003 	ldbu	r2,0(r2)
 840101c:	10800c04 	addi	r2,r2,48
 8401020:	10c03fcc 	andi	r3,r2,255
 8401024:	18c0201c 	xori	r3,r3,128
 8401028:	18ffe004 	addi	r3,r3,-128
 840102c:	00821134 	movhi	r2,2116
 8401030:	10a3a804 	addi	r2,r2,-29024
 8401034:	d8800115 	stw	r2,4(sp)
 8401038:	00804034 	movhi	r2,256
 840103c:	10bfffc4 	addi	r2,r2,-1
 8401040:	d8800015 	stw	r2,0(sp)
 8401044:	180f883a 	mov	r7,r3
 8401048:	000d883a 	mov	r6,zero
 840104c:	8405edc0 	call	8405edc <vid_print_char_alpha>
   				for(int i=0; i<DRAW_WIDTH*DRAW_WIDTH; i++)
   					img[i]=0;

				if(red_digit){
					GUI_ClearRect(BTN_RESULT, &DeskInfo, &Display);
					for(int n=0; n<digits; n++)
 8401050:	00fffef4 	movhi	r3,65531
 8401054:	18c06104 	addi	r3,r3,388
 8401058:	1f07883a 	add	r3,r3,fp
 840105c:	18800017 	ldw	r2,0(r3)
 8401060:	10800044 	addi	r2,r2,1
 8401064:	013ffef4 	movhi	r4,65531
 8401068:	21006104 	addi	r4,r4,388
 840106c:	2709883a 	add	r4,r4,fp
 8401070:	20800015 	stw	r2,0(r4)
 8401074:	017ffef4 	movhi	r5,65531
 8401078:	29405b44 	addi	r5,r5,365
 840107c:	2f0b883a 	add	r5,r5,fp
 8401080:	28800003 	ldbu	r2,0(r5)
 8401084:	01bffef4 	movhi	r6,65531
 8401088:	31806104 	addi	r6,r6,388
 840108c:	370d883a 	add	r6,r6,fp
 8401090:	30c00017 	ldw	r3,0(r6)
 8401094:	18bfbf16 	blt	r3,r2,8400f94 <__alt_data_end+0xfc400f94>
 8401098:	00023106 	br	8401960 <main+0x16f0>
				}
   			}


   			/*se do conferma, avvio la rete neurale*/
   			else if (ButtonId == BTN_ENTER && status==NO_IMG){
 840109c:	01fffef4 	movhi	r7,65531
 84010a0:	39c06404 	addi	r7,r7,400
 84010a4:	3f0f883a 	add	r7,r7,fp
 84010a8:	38800017 	ldw	r2,0(r7)
 84010ac:	10800098 	cmpnei	r2,r2,2
 84010b0:	1001161e 	bne	r2,zero,840150c <main+0x129c>
 84010b4:	00fffef4 	movhi	r3,65531
 84010b8:	18c05a04 	addi	r3,r3,360
 84010bc:	1f07883a 	add	r3,r3,fp
 84010c0:	18800017 	ldw	r2,0(r3)
 84010c4:	1001111e 	bne	r2,zero,840150c <main+0x129c>

   				if(!red_digit && writing==FALSE){				//confermo il risultato finale
 84010c8:	013ffef4 	movhi	r4,65531
 84010cc:	21005c04 	addi	r4,r4,368
 84010d0:	2709883a 	add	r4,r4,fp
 84010d4:	20800017 	ldw	r2,0(r4)
 84010d8:	1000a51e 	bne	r2,zero,8401370 <main+0x1100>
 84010dc:	017ffef4 	movhi	r5,65531
 84010e0:	29405d04 	addi	r5,r5,372
 84010e4:	2f0b883a 	add	r5,r5,fp
 84010e8:	28800017 	ldw	r2,0(r5)
 84010ec:	1000a01e 	bne	r2,zero,8401370 <main+0x1100>
   					switch(digits){
 84010f0:	01bffef4 	movhi	r6,65531
 84010f4:	31805b44 	addi	r6,r6,365
 84010f8:	370d883a 	add	r6,r6,fp
 84010fc:	30800003 	ldbu	r2,0(r6)
 8401100:	10c00060 	cmpeqi	r3,r2,1
 8401104:	1800071e 	bne	r3,zero,8401124 <main+0xeb4>
 8401108:	10c00088 	cmpgei	r3,r2,2
 840110c:	18004726 	beq	r3,zero,840122c <main+0xfbc>
 8401110:	10c000a0 	cmpeqi	r3,r2,2
 8401114:	18000f1e 	bne	r3,zero,8401154 <main+0xee4>
 8401118:	108000e0 	cmpeqi	r2,r2,3
 840111c:	1000231e 	bne	r2,zero,84011ac <main+0xf3c>
 8401120:	00004306 	br	8401230 <main+0xfc0>
   						case 0:
   							break;
   						case 1:
   							answer=result[0];
 8401124:	00800174 	movhi	r2,5
 8401128:	10bf9d04 	addi	r2,r2,-396
 840112c:	01fffef4 	movhi	r7,65531
 8401130:	39c05a04 	addi	r7,r7,360
 8401134:	3f0f883a 	add	r7,r7,fp
 8401138:	3885883a 	add	r2,r7,r2
 840113c:	10800003 	ldbu	r2,0(r2)
 8401140:	00fffef4 	movhi	r3,65531
 8401144:	18c05b04 	addi	r3,r3,364
 8401148:	1f07883a 	add	r3,r3,fp
 840114c:	18800005 	stb	r2,0(r3)
   							break;
 8401150:	00003706 	br	8401230 <main+0xfc0>
   						case 2:
   							answer = result[0]*10+result[1];
 8401154:	00800174 	movhi	r2,5
 8401158:	10bf9d04 	addi	r2,r2,-396
 840115c:	013ffef4 	movhi	r4,65531
 8401160:	21005a04 	addi	r4,r4,360
 8401164:	2709883a 	add	r4,r4,fp
 8401168:	2085883a 	add	r2,r4,r2
 840116c:	10800003 	ldbu	r2,0(r2)
 8401170:	108002a4 	muli	r2,r2,10
 8401174:	1007883a 	mov	r3,r2
 8401178:	00800174 	movhi	r2,5
 840117c:	10bf9d04 	addi	r2,r2,-396
 8401180:	017ffef4 	movhi	r5,65531
 8401184:	29405a04 	addi	r5,r5,360
 8401188:	2f0b883a 	add	r5,r5,fp
 840118c:	2885883a 	add	r2,r5,r2
 8401190:	10800043 	ldbu	r2,1(r2)
 8401194:	1885883a 	add	r2,r3,r2
 8401198:	01bffef4 	movhi	r6,65531
 840119c:	31805b04 	addi	r6,r6,364
 84011a0:	370d883a 	add	r6,r6,fp
 84011a4:	30800005 	stb	r2,0(r6)
   							break;
 84011a8:	00002106 	br	8401230 <main+0xfc0>
   						case 3:
							answer = result[0]*100+result[1]*10+result[2];
 84011ac:	00800174 	movhi	r2,5
 84011b0:	10bf9d04 	addi	r2,r2,-396
 84011b4:	01fffef4 	movhi	r7,65531
 84011b8:	39c05a04 	addi	r7,r7,360
 84011bc:	3f0f883a 	add	r7,r7,fp
 84011c0:	3885883a 	add	r2,r7,r2
 84011c4:	10800003 	ldbu	r2,0(r2)
 84011c8:	10801924 	muli	r2,r2,100
 84011cc:	1007883a 	mov	r3,r2
 84011d0:	00800174 	movhi	r2,5
 84011d4:	10bf9d04 	addi	r2,r2,-396
 84011d8:	013ffef4 	movhi	r4,65531
 84011dc:	21005a04 	addi	r4,r4,360
 84011e0:	2709883a 	add	r4,r4,fp
 84011e4:	2085883a 	add	r2,r4,r2
 84011e8:	10800043 	ldbu	r2,1(r2)
 84011ec:	108002a4 	muli	r2,r2,10
 84011f0:	1885883a 	add	r2,r3,r2
 84011f4:	1007883a 	mov	r3,r2
 84011f8:	00800174 	movhi	r2,5
 84011fc:	10bf9d04 	addi	r2,r2,-396
 8401200:	017ffef4 	movhi	r5,65531
 8401204:	29405a04 	addi	r5,r5,360
 8401208:	2f0b883a 	add	r5,r5,fp
 840120c:	2885883a 	add	r2,r5,r2
 8401210:	10800083 	ldbu	r2,2(r2)
 8401214:	1885883a 	add	r2,r3,r2
 8401218:	01bffef4 	movhi	r6,65531
 840121c:	31805b04 	addi	r6,r6,364
 8401220:	370d883a 	add	r6,r6,fp
 8401224:	30800005 	stb	r2,0(r6)
							break;
 8401228:	00000106 	br	8401230 <main+0xfc0>
   			else if (ButtonId == BTN_ENTER && status==NO_IMG){

   				if(!red_digit && writing==FALSE){				//confermo il risultato finale
   					switch(digits){
   						case 0:
   							break;
 840122c:	0001883a 	nop
   						case 3:
							answer = result[0]*100+result[1]*10+result[2];
							break;
   					}

   					GUI_ClearRect(RECT_PAINT, &DeskInfo, &Display);
 8401230:	008000b4 	movhi	r2,2
 8401234:	10bac704 	addi	r2,r2,-5348
 8401238:	01fffef4 	movhi	r7,65531
 840123c:	39c05a04 	addi	r7,r7,360
 8401240:	3f0f883a 	add	r7,r7,fp
 8401244:	3887883a 	add	r3,r7,r2
 8401248:	008000b4 	movhi	r2,2
 840124c:	10bab304 	addi	r2,r2,-5428
 8401250:	013ffef4 	movhi	r4,65531
 8401254:	21005a04 	addi	r4,r4,360
 8401258:	2709883a 	add	r4,r4,fp
 840125c:	2085883a 	add	r2,r4,r2
 8401260:	180d883a 	mov	r6,r3
 8401264:	100b883a 	mov	r5,r2
 8401268:	01000144 	movi	r4,5
 840126c:	84032c80 	call	84032c8 <GUI_ClearRect>
   	   				if(answer==exp.answer && digits!=0)
 8401270:	017ffef4 	movhi	r5,65531
 8401274:	29405b04 	addi	r5,r5,364
 8401278:	2f0b883a 	add	r5,r5,fp
 840127c:	28c00003 	ldbu	r3,0(r5)
 8401280:	00800174 	movhi	r2,5
 8401284:	10bf9804 	addi	r2,r2,-416
 8401288:	01bffef4 	movhi	r6,65531
 840128c:	31805a04 	addi	r6,r6,360
 8401290:	370d883a 	add	r6,r6,fp
 8401294:	3085883a 	add	r2,r6,r2
 8401298:	10800217 	ldw	r2,8(r2)
 840129c:	18801a1e 	bne	r3,r2,8401308 <main+0x1098>
 84012a0:	01fffef4 	movhi	r7,65531
 84012a4:	39c05b44 	addi	r7,r7,365
 84012a8:	3f0f883a 	add	r7,r7,fp
 84012ac:	38800003 	ldbu	r2,0(r7)
 84012b0:	10001526 	beq	r2,zero,8401308 <main+0x1098>
   	   					Print(RECT_PAINT, DeskInfo, "Nice");
 84012b4:	008000b4 	movhi	r2,2
 84012b8:	10bab304 	addi	r2,r2,-5428
 84012bc:	00fffef4 	movhi	r3,65531
 84012c0:	18c05a04 	addi	r3,r3,360
 84012c4:	1f07883a 	add	r3,r3,fp
 84012c8:	18a1883a 	add	r16,r3,r2
 84012cc:	00821074 	movhi	r2,2113
 84012d0:	10bed704 	addi	r2,r2,-1188
 84012d4:	d8801115 	stw	r2,68(sp)
 84012d8:	d809883a 	mov	r4,sp
 84012dc:	80800304 	addi	r2,r16,12
 84012e0:	00c01104 	movi	r3,68
 84012e4:	180d883a 	mov	r6,r3
 84012e8:	100b883a 	mov	r5,r2
 84012ec:	8409edc0 	call	8409edc <memcpy>
 84012f0:	81400017 	ldw	r5,0(r16)
 84012f4:	81800117 	ldw	r6,4(r16)
 84012f8:	81c00217 	ldw	r7,8(r16)
 84012fc:	01000144 	movi	r4,5
 8401300:	84034900 	call	8403490 <Print>
 8401304:	00001406 	br	8401358 <main+0x10e8>
   	   				else
   	   					Print(RECT_PAINT, DeskInfo, "Nope");
 8401308:	008000b4 	movhi	r2,2
 840130c:	10bab304 	addi	r2,r2,-5428
 8401310:	013ffef4 	movhi	r4,65531
 8401314:	21005a04 	addi	r4,r4,360
 8401318:	2709883a 	add	r4,r4,fp
 840131c:	20a1883a 	add	r16,r4,r2
 8401320:	00821074 	movhi	r2,2113
 8401324:	10bed904 	addi	r2,r2,-1180
 8401328:	d8801115 	stw	r2,68(sp)
 840132c:	d809883a 	mov	r4,sp
 8401330:	80800304 	addi	r2,r16,12
 8401334:	00c01104 	movi	r3,68
 8401338:	180d883a 	mov	r6,r3
 840133c:	100b883a 	mov	r5,r2
 8401340:	8409edc0 	call	8409edc <memcpy>
 8401344:	81400017 	ldw	r5,0(r16)
 8401348:	81800117 	ldw	r6,4(r16)
 840134c:	81c00217 	ldw	r7,8(r16)
 8401350:	01000144 	movi	r4,5
 8401354:	84034900 	call	8403490 <Print>
   	   				status=FINISHED;
 8401358:	008000c4 	movi	r2,3
 840135c:	017ffef4 	movhi	r5,65531
 8401360:	29405a04 	addi	r5,r5,360
 8401364:	2f0b883a 	add	r5,r5,fp
 8401368:	28800015 	stw	r2,0(r5)


   			/*se do conferma, avvio la rete neurale*/
   			else if (ButtonId == BTN_ENTER && status==NO_IMG){

   				if(!red_digit && writing==FALSE){				//confermo il risultato finale
 840136c:	00017c06 	br	8401960 <main+0x16f0>
   	   				else
   	   					Print(RECT_PAINT, DeskInfo, "Nope");
   	   				status=FINISHED;
				}
   				else{
   					if(digits>=3){
 8401370:	01bffef4 	movhi	r6,65531
 8401374:	31805b44 	addi	r6,r6,365
 8401378:	370d883a 	add	r6,r6,fp
 840137c:	30800003 	ldbu	r2,0(r6)
 8401380:	108000f0 	cmpltui	r2,r2,3
 8401384:	10002a1e 	bne	r2,zero,8401430 <main+0x11c0>
   						status=FINISHED;
 8401388:	008000c4 	movi	r2,3
 840138c:	01fffef4 	movhi	r7,65531
 8401390:	39c05a04 	addi	r7,r7,360
 8401394:	3f0f883a 	add	r7,r7,fp
 8401398:	38800015 	stw	r2,0(r7)
   						GUI_ClearRect(RECT_PAINT, &DeskInfo, &Display);
 840139c:	008000b4 	movhi	r2,2
 84013a0:	10bac704 	addi	r2,r2,-5348
 84013a4:	013ffef4 	movhi	r4,65531
 84013a8:	21005a04 	addi	r4,r4,360
 84013ac:	2709883a 	add	r4,r4,fp
 84013b0:	2087883a 	add	r3,r4,r2
 84013b4:	008000b4 	movhi	r2,2
 84013b8:	10bab304 	addi	r2,r2,-5428
 84013bc:	017ffef4 	movhi	r5,65531
 84013c0:	29405a04 	addi	r5,r5,360
 84013c4:	2f0b883a 	add	r5,r5,fp
 84013c8:	2885883a 	add	r2,r5,r2
 84013cc:	180d883a 	mov	r6,r3
 84013d0:	100b883a 	mov	r5,r2
 84013d4:	01000144 	movi	r4,5
 84013d8:	84032c80 	call	84032c8 <GUI_ClearRect>
   	   	   				Print(RECT_PAINT, DeskInfo, "Un c'entra!");
 84013dc:	008000b4 	movhi	r2,2
 84013e0:	10bab304 	addi	r2,r2,-5428
 84013e4:	01bffef4 	movhi	r6,65531
 84013e8:	31805a04 	addi	r6,r6,360
 84013ec:	370d883a 	add	r6,r6,fp
 84013f0:	30a1883a 	add	r16,r6,r2
 84013f4:	00821074 	movhi	r2,2113
 84013f8:	10bedf04 	addi	r2,r2,-1156
 84013fc:	d8801115 	stw	r2,68(sp)
 8401400:	d809883a 	mov	r4,sp
 8401404:	80800304 	addi	r2,r16,12
 8401408:	00c01104 	movi	r3,68
 840140c:	180d883a 	mov	r6,r3
 8401410:	100b883a 	mov	r5,r2
 8401414:	8409edc0 	call	8409edc <memcpy>
 8401418:	81400017 	ldw	r5,0(r16)
 840141c:	81800117 	ldw	r6,4(r16)
 8401420:	81c00217 	ldw	r7,8(r16)
 8401424:	01000144 	movi	r4,5
 8401428:	84034900 	call	8403490 <Print>


   			/*se do conferma, avvio la rete neurale*/
   			else if (ButtonId == BTN_ENTER && status==NO_IMG){

   				if(!red_digit && writing==FALSE){				//confermo il risultato finale
 840142c:	00014c06 	br	8401960 <main+0x16f0>
   						status=FINISHED;
   						GUI_ClearRect(RECT_PAINT, &DeskInfo, &Display);
   	   	   				Print(RECT_PAINT, DeskInfo, "Un c'entra!");
   					}
   					else{
						Resize_image(img, &mnist_img);				//catturo l'immagine da mandare alla rete neurale
 8401430:	008000b4 	movhi	r2,2
 8401434:	10bad404 	addi	r2,r2,-5296
 8401438:	01fffef4 	movhi	r7,65531
 840143c:	39c05a04 	addi	r7,r7,360
 8401440:	3f0f883a 	add	r7,r7,fp
 8401444:	3887883a 	add	r3,r7,r2
 8401448:	008000b4 	movhi	r2,2
 840144c:	10bb9804 	addi	r2,r2,-4512
 8401450:	013ffef4 	movhi	r4,65531
 8401454:	21005a04 	addi	r4,r4,360
 8401458:	2709883a 	add	r4,r4,fp
 840145c:	2085883a 	add	r2,r4,r2
 8401460:	180b883a 	mov	r5,r3
 8401464:	1009883a 	mov	r4,r2
 8401468:	840379c0 	call	840379c <Resize_image>
						status = IMG_READY;
 840146c:	00800044 	movi	r2,1
 8401470:	017ffef4 	movhi	r5,65531
 8401474:	29405a04 	addi	r5,r5,360
 8401478:	2f0b883a 	add	r5,r5,fp
 840147c:	28800015 	stw	r2,0(r5)
						for(int i=0; i<DRAW_WIDTH*DRAW_WIDTH; i++)
 8401480:	01bffef4 	movhi	r6,65531
 8401484:	31806204 	addi	r6,r6,392
 8401488:	370d883a 	add	r6,r6,fp
 840148c:	30000015 	stw	zero,0(r6)
 8401490:	00001706 	br	84014f0 <main+0x1280>
							img[i]=0;
 8401494:	008000b4 	movhi	r2,2
 8401498:	10bb9804 	addi	r2,r2,-4512
 840149c:	01fffef4 	movhi	r7,65531
 84014a0:	39c05a04 	addi	r7,r7,360
 84014a4:	3f0f883a 	add	r7,r7,fp
 84014a8:	3887883a 	add	r3,r7,r2
 84014ac:	013ffef4 	movhi	r4,65531
 84014b0:	21006204 	addi	r4,r4,392
 84014b4:	2709883a 	add	r4,r4,fp
 84014b8:	20800017 	ldw	r2,0(r4)
 84014bc:	1085883a 	add	r2,r2,r2
 84014c0:	1085883a 	add	r2,r2,r2
 84014c4:	1885883a 	add	r2,r3,r2
 84014c8:	10000015 	stw	zero,0(r2)
   	   	   				Print(RECT_PAINT, DeskInfo, "Un c'entra!");
   					}
   					else{
						Resize_image(img, &mnist_img);				//catturo l'immagine da mandare alla rete neurale
						status = IMG_READY;
						for(int i=0; i<DRAW_WIDTH*DRAW_WIDTH; i++)
 84014cc:	017ffef4 	movhi	r5,65531
 84014d0:	29406204 	addi	r5,r5,392
 84014d4:	2f0b883a 	add	r5,r5,fp
 84014d8:	28800017 	ldw	r2,0(r5)
 84014dc:	10800044 	addi	r2,r2,1
 84014e0:	01bffef4 	movhi	r6,65531
 84014e4:	31806204 	addi	r6,r6,392
 84014e8:	370d883a 	add	r6,r6,fp
 84014ec:	30800015 	stw	r2,0(r6)
 84014f0:	01fffef4 	movhi	r7,65531
 84014f4:	39c06204 	addi	r7,r7,392
 84014f8:	3f0f883a 	add	r7,r7,fp
 84014fc:	38800017 	ldw	r2,0(r7)
 8401500:	00f0ffd4 	movui	r3,50175
 8401504:	18bfe30e 	bge	r3,r2,8401494 <__alt_data_end+0xfc401494>


   			/*se do conferma, avvio la rete neurale*/
   			else if (ButtonId == BTN_ENTER && status==NO_IMG){

   				if(!red_digit && writing==FALSE){				//confermo il risultato finale
 8401508:	00011506 	br	8401960 <main+0x16f0>
   					}
   				}
   			}


   			else if(ButtonId==BTN_RESULT && status==CONFIRM){
 840150c:	00fffef4 	movhi	r3,65531
 8401510:	18c06404 	addi	r3,r3,400
 8401514:	1f07883a 	add	r3,r3,fp
 8401518:	18800017 	ldw	r2,0(r3)
 840151c:	108000d8 	cmpnei	r2,r2,3
 8401520:	10007f1e 	bne	r2,zero,8401720 <main+0x14b0>
 8401524:	013ffef4 	movhi	r4,65531
 8401528:	21005a04 	addi	r4,r4,360
 840152c:	2709883a 	add	r4,r4,fp
 8401530:	20800017 	ldw	r2,0(r4)
 8401534:	10800098 	cmpnei	r2,r2,2
 8401538:	1000791e 	bne	r2,zero,8401720 <main+0x14b0>
   				status=NO_IMG;
 840153c:	017ffef4 	movhi	r5,65531
 8401540:	29405a04 	addi	r5,r5,360
 8401544:	2f0b883a 	add	r5,r5,fp
 8401548:	28000015 	stw	zero,0(r5)
   				writing=FALSE;
 840154c:	01bffef4 	movhi	r6,65531
 8401550:	31805d04 	addi	r6,r6,372
 8401554:	370d883a 	add	r6,r6,fp
 8401558:	30000015 	stw	zero,0(r6)
				red_digit=FALSE;
 840155c:	01fffef4 	movhi	r7,65531
 8401560:	39c05c04 	addi	r7,r7,368
 8401564:	3f0f883a 	add	r7,r7,fp
 8401568:	38000015 	stw	zero,0(r7)

				GUI_ClearRect(RECT_PAINT, &DeskInfo, &Display);
 840156c:	008000b4 	movhi	r2,2
 8401570:	10bac704 	addi	r2,r2,-5348
 8401574:	013ffef4 	movhi	r4,65531
 8401578:	21005a04 	addi	r4,r4,360
 840157c:	2709883a 	add	r4,r4,fp
 8401580:	2087883a 	add	r3,r4,r2
 8401584:	008000b4 	movhi	r2,2
 8401588:	10bab304 	addi	r2,r2,-5428
 840158c:	017ffef4 	movhi	r5,65531
 8401590:	29405a04 	addi	r5,r5,360
 8401594:	2f0b883a 	add	r5,r5,fp
 8401598:	2885883a 	add	r2,r5,r2
 840159c:	180d883a 	mov	r6,r3
 84015a0:	100b883a 	mov	r5,r2
 84015a4:	01000144 	movi	r4,5
 84015a8:	84032c80 	call	84032c8 <GUI_ClearRect>
				vid_print_char_alpha(DeskInfo.result.left+20+13*digits, DeskInfo.result.top+9, BLACK_24, (char)(result[digits]+48), WHITE_24, tahomabold_20);
 84015ac:	008000b4 	movhi	r2,2
 84015b0:	10bab304 	addi	r2,r2,-5428
 84015b4:	01bffef4 	movhi	r6,65531
 84015b8:	31805a04 	addi	r6,r6,360
 84015bc:	370d883a 	add	r6,r6,fp
 84015c0:	3085883a 	add	r2,r6,r2
 84015c4:	10801017 	ldw	r2,64(r2)
 84015c8:	10c00504 	addi	r3,r2,20
 84015cc:	01fffef4 	movhi	r7,65531
 84015d0:	39c05b44 	addi	r7,r7,365
 84015d4:	3f0f883a 	add	r7,r7,fp
 84015d8:	38800003 	ldbu	r2,0(r7)
 84015dc:	10800364 	muli	r2,r2,13
 84015e0:	1889883a 	add	r4,r3,r2
 84015e4:	008000b4 	movhi	r2,2
 84015e8:	10bab304 	addi	r2,r2,-5428
 84015ec:	00fffef4 	movhi	r3,65531
 84015f0:	18c05a04 	addi	r3,r3,360
 84015f4:	1f07883a 	add	r3,r3,fp
 84015f8:	1885883a 	add	r2,r3,r2
 84015fc:	10801217 	ldw	r2,72(r2)
 8401600:	11400244 	addi	r5,r2,9
 8401604:	01bffef4 	movhi	r6,65531
 8401608:	31805b44 	addi	r6,r6,365
 840160c:	370d883a 	add	r6,r6,fp
 8401610:	30c00003 	ldbu	r3,0(r6)
 8401614:	00800174 	movhi	r2,5
 8401618:	10bf9d04 	addi	r2,r2,-396
 840161c:	01fffef4 	movhi	r7,65531
 8401620:	39c05a04 	addi	r7,r7,360
 8401624:	3f0f883a 	add	r7,r7,fp
 8401628:	3885883a 	add	r2,r7,r2
 840162c:	10c5883a 	add	r2,r2,r3
 8401630:	10800003 	ldbu	r2,0(r2)
 8401634:	10800c04 	addi	r2,r2,48
 8401638:	10c03fcc 	andi	r3,r2,255
 840163c:	18c0201c 	xori	r3,r3,128
 8401640:	18ffe004 	addi	r3,r3,-128
 8401644:	00821134 	movhi	r2,2116
 8401648:	10a3a804 	addi	r2,r2,-29024
 840164c:	d8800115 	stw	r2,4(sp)
 8401650:	00804034 	movhi	r2,256
 8401654:	10bfffc4 	addi	r2,r2,-1
 8401658:	d8800015 	stw	r2,0(sp)
 840165c:	180f883a 	mov	r7,r3
 8401660:	000d883a 	mov	r6,zero
 8401664:	8405edc0 	call	8405edc <vid_print_char_alpha>
				GUI_ClearRect(BTN_ENTER, &DeskInfo, &Display);
 8401668:	008000b4 	movhi	r2,2
 840166c:	10bac704 	addi	r2,r2,-5348
 8401670:	013ffef4 	movhi	r4,65531
 8401674:	21005a04 	addi	r4,r4,360
 8401678:	2709883a 	add	r4,r4,fp
 840167c:	2087883a 	add	r3,r4,r2
 8401680:	008000b4 	movhi	r2,2
 8401684:	10bab304 	addi	r2,r2,-5428
 8401688:	017ffef4 	movhi	r5,65531
 840168c:	29405a04 	addi	r5,r5,360
 8401690:	2f0b883a 	add	r5,r5,fp
 8401694:	2885883a 	add	r2,r5,r2
 8401698:	180d883a 	mov	r6,r3
 840169c:	100b883a 	mov	r5,r2
 84016a0:	01000084 	movi	r4,2
 84016a4:	84032c80 	call	84032c8 <GUI_ClearRect>
				Print(BTN_ENTER, DeskInfo, "Done");
 84016a8:	008000b4 	movhi	r2,2
 84016ac:	10bab304 	addi	r2,r2,-5428
 84016b0:	01bffef4 	movhi	r6,65531
 84016b4:	31805a04 	addi	r6,r6,360
 84016b8:	370d883a 	add	r6,r6,fp
 84016bc:	30a1883a 	add	r16,r6,r2
 84016c0:	00821074 	movhi	r2,2113
 84016c4:	10bedd04 	addi	r2,r2,-1164
 84016c8:	d8801115 	stw	r2,68(sp)
 84016cc:	d809883a 	mov	r4,sp
 84016d0:	80800304 	addi	r2,r16,12
 84016d4:	00c01104 	movi	r3,68
 84016d8:	180d883a 	mov	r6,r3
 84016dc:	100b883a 	mov	r5,r2
 84016e0:	8409edc0 	call	8409edc <memcpy>
 84016e4:	81400017 	ldw	r5,0(r16)
 84016e8:	81800117 	ldw	r6,4(r16)
 84016ec:	81c00217 	ldw	r7,8(r16)
 84016f0:	01000084 	movi	r4,2
 84016f4:	84034900 	call	8403490 <Print>
				digits++;
 84016f8:	01fffef4 	movhi	r7,65531
 84016fc:	39c05b44 	addi	r7,r7,365
 8401700:	3f0f883a 	add	r7,r7,fp
 8401704:	38800003 	ldbu	r2,0(r7)
 8401708:	10800044 	addi	r2,r2,1
 840170c:	00fffef4 	movhi	r3,65531
 8401710:	18c05b44 	addi	r3,r3,365
 8401714:	1f07883a 	add	r3,r3,fp
 8401718:	18800005 	stb	r2,0(r3)
 840171c:	00009006 	br	8401960 <main+0x16f0>
   			}


   			else if(ButtonId==BTN_NEWGAME && status==NEW_GAME){
 8401720:	013ffef4 	movhi	r4,65531
 8401724:	21006404 	addi	r4,r4,400
 8401728:	2709883a 	add	r4,r4,fp
 840172c:	20800017 	ldw	r2,0(r4)
 8401730:	10800118 	cmpnei	r2,r2,4
 8401734:	10008a1e 	bne	r2,zero,8401960 <main+0x16f0>
 8401738:	017ffef4 	movhi	r5,65531
 840173c:	29405a04 	addi	r5,r5,360
 8401740:	2f0b883a 	add	r5,r5,fp
 8401744:	28800017 	ldw	r2,0(r5)
 8401748:	10800118 	cmpnei	r2,r2,4
 840174c:	1000841e 	bne	r2,zero,8401960 <main+0x16f0>
   				status=NO_IMG;
 8401750:	01bffef4 	movhi	r6,65531
 8401754:	31805a04 	addi	r6,r6,360
 8401758:	370d883a 	add	r6,r6,fp
 840175c:	30000015 	stw	zero,0(r6)
   				result[0]=0;
 8401760:	00800174 	movhi	r2,5
 8401764:	10bf9d04 	addi	r2,r2,-396
 8401768:	01fffef4 	movhi	r7,65531
 840176c:	39c05a04 	addi	r7,r7,360
 8401770:	3f0f883a 	add	r7,r7,fp
 8401774:	3885883a 	add	r2,r7,r2
 8401778:	10000005 	stb	zero,0(r2)
				result[1]=0;
 840177c:	00800174 	movhi	r2,5
 8401780:	10bf9d04 	addi	r2,r2,-396
 8401784:	00fffef4 	movhi	r3,65531
 8401788:	18c05a04 	addi	r3,r3,360
 840178c:	1f07883a 	add	r3,r3,fp
 8401790:	1885883a 	add	r2,r3,r2
 8401794:	10000045 	stb	zero,1(r2)
				result[2]=0;
 8401798:	00800174 	movhi	r2,5
 840179c:	10bf9d04 	addi	r2,r2,-396
 84017a0:	013ffef4 	movhi	r4,65531
 84017a4:	21005a04 	addi	r4,r4,360
 84017a8:	2709883a 	add	r4,r4,fp
 84017ac:	2085883a 	add	r2,r4,r2
 84017b0:	10000085 	stb	zero,2(r2)
				digits=0;
 84017b4:	017ffef4 	movhi	r5,65531
 84017b8:	29405b44 	addi	r5,r5,365
 84017bc:	2f0b883a 	add	r5,r5,fp
 84017c0:	28000005 	stb	zero,0(r5)

   				exp=NewExpression();
 84017c4:	00800174 	movhi	r2,5
 84017c8:	10bf9804 	addi	r2,r2,-416
 84017cc:	01bffef4 	movhi	r6,65531
 84017d0:	31805a04 	addi	r6,r6,360
 84017d4:	370d883a 	add	r6,r6,fp
 84017d8:	30a1883a 	add	r16,r6,r2
 84017dc:	00800174 	movhi	r2,5
 84017e0:	10bf9e04 	addi	r2,r2,-392
 84017e4:	01fffef4 	movhi	r7,65531
 84017e8:	39c05a04 	addi	r7,r7,360
 84017ec:	3f0f883a 	add	r7,r7,fp
 84017f0:	3885883a 	add	r2,r7,r2
 84017f4:	1009883a 	mov	r4,r2
 84017f8:	8403bdc0 	call	8403bdc <NewExpression>
 84017fc:	00800174 	movhi	r2,5
 8401800:	10bf9e04 	addi	r2,r2,-392
 8401804:	00fffef4 	movhi	r3,65531
 8401808:	18c05a04 	addi	r3,r3,360
 840180c:	1f07883a 	add	r3,r3,fp
 8401810:	1885883a 	add	r2,r3,r2
 8401814:	10c00017 	ldw	r3,0(r2)
 8401818:	80c00015 	stw	r3,0(r16)
 840181c:	10c00117 	ldw	r3,4(r2)
 8401820:	80c00115 	stw	r3,4(r16)
 8401824:	10c00217 	ldw	r3,8(r2)
 8401828:	80c00215 	stw	r3,8(r16)
 840182c:	10c00317 	ldw	r3,12(r2)
 8401830:	80c00315 	stw	r3,12(r16)
 8401834:	10800417 	ldw	r2,16(r2)
 8401838:	80800415 	stw	r2,16(r16)
   				GUI_ClearRect(RECT_EXP, &DeskInfo, &Display);
 840183c:	008000b4 	movhi	r2,2
 8401840:	10bac704 	addi	r2,r2,-5348
 8401844:	013ffef4 	movhi	r4,65531
 8401848:	21005a04 	addi	r4,r4,360
 840184c:	2709883a 	add	r4,r4,fp
 8401850:	2087883a 	add	r3,r4,r2
 8401854:	008000b4 	movhi	r2,2
 8401858:	10bab304 	addi	r2,r2,-5428
 840185c:	017ffef4 	movhi	r5,65531
 8401860:	29405a04 	addi	r5,r5,360
 8401864:	2f0b883a 	add	r5,r5,fp
 8401868:	2885883a 	add	r2,r5,r2
 840186c:	180d883a 	mov	r6,r3
 8401870:	100b883a 	mov	r5,r2
 8401874:	01000184 	movi	r4,6
 8401878:	84032c80 	call	84032c8 <GUI_ClearRect>
   				Print(RECT_EXP, DeskInfo, exp.string);
 840187c:	008000b4 	movhi	r2,2
 8401880:	10bab304 	addi	r2,r2,-5428
 8401884:	01bffef4 	movhi	r6,65531
 8401888:	31805a04 	addi	r6,r6,360
 840188c:	370d883a 	add	r6,r6,fp
 8401890:	30a1883a 	add	r16,r6,r2
 8401894:	00800174 	movhi	r2,5
 8401898:	10bf9804 	addi	r2,r2,-416
 840189c:	01fffef4 	movhi	r7,65531
 84018a0:	39c05a04 	addi	r7,r7,360
 84018a4:	3f0f883a 	add	r7,r7,fp
 84018a8:	3885883a 	add	r2,r7,r2
 84018ac:	10800344 	addi	r2,r2,13
 84018b0:	d8801115 	stw	r2,68(sp)
 84018b4:	d809883a 	mov	r4,sp
 84018b8:	80800304 	addi	r2,r16,12
 84018bc:	00c01104 	movi	r3,68
 84018c0:	180d883a 	mov	r6,r3
 84018c4:	100b883a 	mov	r5,r2
 84018c8:	8409edc0 	call	8409edc <memcpy>
 84018cc:	81400017 	ldw	r5,0(r16)
 84018d0:	81800117 	ldw	r6,4(r16)
 84018d4:	81c00217 	ldw	r7,8(r16)
 84018d8:	01000184 	movi	r4,6
 84018dc:	84034900 	call	8403490 <Print>
   				GUI_ClearRect(BTN_RESULT, &DeskInfo, &Display);
 84018e0:	008000b4 	movhi	r2,2
 84018e4:	10bac704 	addi	r2,r2,-5348
 84018e8:	013ffef4 	movhi	r4,65531
 84018ec:	21005a04 	addi	r4,r4,360
 84018f0:	2709883a 	add	r4,r4,fp
 84018f4:	2087883a 	add	r3,r4,r2
 84018f8:	008000b4 	movhi	r2,2
 84018fc:	10bab304 	addi	r2,r2,-5428
 8401900:	017ffef4 	movhi	r5,65531
 8401904:	29405a04 	addi	r5,r5,360
 8401908:	2f0b883a 	add	r5,r5,fp
 840190c:	2885883a 	add	r2,r5,r2
 8401910:	180d883a 	mov	r6,r3
 8401914:	100b883a 	mov	r5,r2
 8401918:	010000c4 	movi	r4,3
 840191c:	84032c80 	call	84032c8 <GUI_ClearRect>
   				GUI_ClearRect(RECT_PAINT, &DeskInfo, &Display);
 8401920:	008000b4 	movhi	r2,2
 8401924:	10bac704 	addi	r2,r2,-5348
 8401928:	01bffef4 	movhi	r6,65531
 840192c:	31805a04 	addi	r6,r6,360
 8401930:	370d883a 	add	r6,r6,fp
 8401934:	3087883a 	add	r3,r6,r2
 8401938:	008000b4 	movhi	r2,2
 840193c:	10bab304 	addi	r2,r2,-5428
 8401940:	01fffef4 	movhi	r7,65531
 8401944:	39c05a04 	addi	r7,r7,360
 8401948:	3f0f883a 	add	r7,r7,fp
 840194c:	3885883a 	add	r2,r7,r2
 8401950:	180d883a 	mov	r6,r3
 8401954:	100b883a 	mov	r5,r2
 8401958:	01000144 	movi	r4,5
 840195c:	84032c80 	call	84032c8 <GUI_ClearRect>
   			}

   		} // if touch

   		if(status==IMG_READY){
 8401960:	00fffef4 	movhi	r3,65531
 8401964:	18c05a04 	addi	r3,r3,360
 8401968:	1f07883a 	add	r3,r3,fp
 840196c:	18800017 	ldw	r2,0(r3)
 8401970:	10800058 	cmpnei	r2,r2,1
 8401974:	1000521e 	bne	r2,zero,8401ac0 <main+0x1850>
   			status=CONFIRM;
 8401978:	00800084 	movi	r2,2
 840197c:	013ffef4 	movhi	r4,65531
 8401980:	21005a04 	addi	r4,r4,360
 8401984:	2709883a 	add	r4,r4,fp
 8401988:	20800015 	stw	r2,0(r4)
   			red_digit=TRUE;
 840198c:	00800044 	movi	r2,1
 8401990:	017ffef4 	movhi	r5,65531
 8401994:	29405c04 	addi	r5,r5,368
 8401998:	2f0b883a 	add	r5,r5,fp
 840199c:	28800015 	stw	r2,0(r5)
   			result[digits]=testLayer(&nn_layer, &mnist_img);
 84019a0:	01bffef4 	movhi	r6,65531
 84019a4:	31805b44 	addi	r6,r6,365
 84019a8:	370d883a 	add	r6,r6,fp
 84019ac:	34000003 	ldbu	r16,0(r6)
 84019b0:	008000b4 	movhi	r2,2
 84019b4:	10bad404 	addi	r2,r2,-5296
 84019b8:	01fffef4 	movhi	r7,65531
 84019bc:	39c05a04 	addi	r7,r7,360
 84019c0:	3f0f883a 	add	r7,r7,fp
 84019c4:	3887883a 	add	r3,r7,r2
 84019c8:	013ffef4 	movhi	r4,65531
 84019cc:	21006504 	addi	r4,r4,404
 84019d0:	e105883a 	add	r2,fp,r4
 84019d4:	180b883a 	mov	r5,r3
 84019d8:	1009883a 	mov	r4,r2
 84019dc:	8401fe80 	call	8401fe8 <testLayer>
 84019e0:	1007883a 	mov	r3,r2
 84019e4:	00800174 	movhi	r2,5
 84019e8:	10bf9d04 	addi	r2,r2,-396
 84019ec:	017ffef4 	movhi	r5,65531
 84019f0:	29405a04 	addi	r5,r5,360
 84019f4:	2f0b883a 	add	r5,r5,fp
 84019f8:	2885883a 	add	r2,r5,r2
 84019fc:	1405883a 	add	r2,r2,r16
 8401a00:	10c00005 	stb	r3,0(r2)
   			/*visualizzo in rosso la cifra intuita dalla rete neurale*/
   			vid_print_char_alpha(DeskInfo.result.left+20+13*digits, DeskInfo.result.top+9, RED_24, (char)(result[digits]+48), WHITE_24, tahomabold_20);
 8401a04:	008000b4 	movhi	r2,2
 8401a08:	10bab304 	addi	r2,r2,-5428
 8401a0c:	01bffef4 	movhi	r6,65531
 8401a10:	31805a04 	addi	r6,r6,360
 8401a14:	370d883a 	add	r6,r6,fp
 8401a18:	3085883a 	add	r2,r6,r2
 8401a1c:	10801017 	ldw	r2,64(r2)
 8401a20:	10c00504 	addi	r3,r2,20
 8401a24:	01fffef4 	movhi	r7,65531
 8401a28:	39c05b44 	addi	r7,r7,365
 8401a2c:	3f0f883a 	add	r7,r7,fp
 8401a30:	38800003 	ldbu	r2,0(r7)
 8401a34:	10800364 	muli	r2,r2,13
 8401a38:	1889883a 	add	r4,r3,r2
 8401a3c:	008000b4 	movhi	r2,2
 8401a40:	10bab304 	addi	r2,r2,-5428
 8401a44:	00fffef4 	movhi	r3,65531
 8401a48:	18c05a04 	addi	r3,r3,360
 8401a4c:	1f07883a 	add	r3,r3,fp
 8401a50:	1885883a 	add	r2,r3,r2
 8401a54:	10801217 	ldw	r2,72(r2)
 8401a58:	11400244 	addi	r5,r2,9
 8401a5c:	01bffef4 	movhi	r6,65531
 8401a60:	31805b44 	addi	r6,r6,365
 8401a64:	370d883a 	add	r6,r6,fp
 8401a68:	30c00003 	ldbu	r3,0(r6)
 8401a6c:	00800174 	movhi	r2,5
 8401a70:	10bf9d04 	addi	r2,r2,-396
 8401a74:	01fffef4 	movhi	r7,65531
 8401a78:	39c05a04 	addi	r7,r7,360
 8401a7c:	3f0f883a 	add	r7,r7,fp
 8401a80:	3885883a 	add	r2,r7,r2
 8401a84:	10c5883a 	add	r2,r2,r3
 8401a88:	10800003 	ldbu	r2,0(r2)
 8401a8c:	10800c04 	addi	r2,r2,48
 8401a90:	10c03fcc 	andi	r3,r2,255
 8401a94:	18c0201c 	xori	r3,r3,128
 8401a98:	18ffe004 	addi	r3,r3,-128
 8401a9c:	00821134 	movhi	r2,2116
 8401aa0:	10a3a804 	addi	r2,r2,-29024
 8401aa4:	d8800115 	stw	r2,4(sp)
 8401aa8:	00804034 	movhi	r2,256
 8401aac:	10bfffc4 	addi	r2,r2,-1
 8401ab0:	d8800015 	stw	r2,0(sp)
 8401ab4:	180f883a 	mov	r7,r3
 8401ab8:	01803ff4 	movhi	r6,255
 8401abc:	8405edc0 	call	8405edc <vid_print_char_alpha>
   		}

   		if(status==FINISHED){
 8401ac0:	00fffef4 	movhi	r3,65531
 8401ac4:	18c05a04 	addi	r3,r3,360
 8401ac8:	1f07883a 	add	r3,r3,fp
 8401acc:	18800017 	ldw	r2,0(r3)
 8401ad0:	108000d8 	cmpnei	r2,r2,3
 8401ad4:	103ae41e 	bne	r2,zero,8400668 <__alt_data_end+0xfc400668>
   			status=NEW_GAME;
 8401ad8:	00800104 	movi	r2,4
 8401adc:	013ffef4 	movhi	r4,65531
 8401ae0:	21005a04 	addi	r4,r4,360
 8401ae4:	2709883a 	add	r4,r4,fp
 8401ae8:	20800015 	stw	r2,0(r4)
   			red_digit=FALSE;
 8401aec:	017ffef4 	movhi	r5,65531
 8401af0:	29405c04 	addi	r5,r5,368
 8401af4:	2f0b883a 	add	r5,r5,fp
 8401af8:	28000015 	stw	zero,0(r5)
   			writing=FALSE;
 8401afc:	01bffef4 	movhi	r6,65531
 8401b00:	31805d04 	addi	r6,r6,372
 8401b04:	370d883a 	add	r6,r6,fp
 8401b08:	30000015 	stw	zero,0(r6)
			vid_draw_box (DeskInfo.expression.left, DeskInfo.expression.top, DeskInfo.expression.right, DeskInfo.expression.bottom, YELLOW_24, DO_FILL, &Display);
 8401b0c:	008000b4 	movhi	r2,2
 8401b10:	10bab304 	addi	r2,r2,-5428
 8401b14:	01fffef4 	movhi	r7,65531
 8401b18:	39c05a04 	addi	r7,r7,360
 8401b1c:	3f0f883a 	add	r7,r7,fp
 8401b20:	3885883a 	add	r2,r7,r2
 8401b24:	10c00c17 	ldw	r3,48(r2)
 8401b28:	008000b4 	movhi	r2,2
 8401b2c:	10bab304 	addi	r2,r2,-5428
 8401b30:	013ffef4 	movhi	r4,65531
 8401b34:	21005a04 	addi	r4,r4,360
 8401b38:	2709883a 	add	r4,r4,fp
 8401b3c:	2085883a 	add	r2,r4,r2
 8401b40:	11000e17 	ldw	r4,56(r2)
 8401b44:	008000b4 	movhi	r2,2
 8401b48:	10bab304 	addi	r2,r2,-5428
 8401b4c:	017ffef4 	movhi	r5,65531
 8401b50:	29405a04 	addi	r5,r5,360
 8401b54:	2f0b883a 	add	r5,r5,fp
 8401b58:	2885883a 	add	r2,r5,r2
 8401b5c:	11400d17 	ldw	r5,52(r2)
 8401b60:	008000b4 	movhi	r2,2
 8401b64:	10bab304 	addi	r2,r2,-5428
 8401b68:	01bffef4 	movhi	r6,65531
 8401b6c:	31805a04 	addi	r6,r6,360
 8401b70:	370d883a 	add	r6,r6,fp
 8401b74:	3085883a 	add	r2,r6,r2
 8401b78:	11800f17 	ldw	r6,60(r2)
 8401b7c:	008000b4 	movhi	r2,2
 8401b80:	10bac704 	addi	r2,r2,-5348
 8401b84:	01fffef4 	movhi	r7,65531
 8401b88:	39c05a04 	addi	r7,r7,360
 8401b8c:	3f0f883a 	add	r7,r7,fp
 8401b90:	3885883a 	add	r2,r7,r2
 8401b94:	d8800215 	stw	r2,8(sp)
 8401b98:	00800044 	movi	r2,1
 8401b9c:	d8800115 	stw	r2,4(sp)
 8401ba0:	00804034 	movhi	r2,256
 8401ba4:	10bfc004 	addi	r2,r2,-256
 8401ba8:	d8800015 	stw	r2,0(sp)
 8401bac:	300f883a 	mov	r7,r6
 8401bb0:	280d883a 	mov	r6,r5
 8401bb4:	200b883a 	mov	r5,r4
 8401bb8:	1809883a 	mov	r4,r3
 8401bbc:	84042880 	call	8404288 <vid_draw_box>
			Print(BTN_NEWGAME, DeskInfo, "New game!");
 8401bc0:	008000b4 	movhi	r2,2
 8401bc4:	10bab304 	addi	r2,r2,-5428
 8401bc8:	00fffef4 	movhi	r3,65531
 8401bcc:	18c05a04 	addi	r3,r3,360
 8401bd0:	1f07883a 	add	r3,r3,fp
 8401bd4:	18a1883a 	add	r16,r3,r2
 8401bd8:	00821074 	movhi	r2,2113
 8401bdc:	10bed404 	addi	r2,r2,-1200
 8401be0:	d8801115 	stw	r2,68(sp)
 8401be4:	d809883a 	mov	r4,sp
 8401be8:	80800304 	addi	r2,r16,12
 8401bec:	00c01104 	movi	r3,68
 8401bf0:	180d883a 	mov	r6,r3
 8401bf4:	100b883a 	mov	r5,r2
 8401bf8:	8409edc0 	call	8409edc <memcpy>
 8401bfc:	81400017 	ldw	r5,0(r16)
 8401c00:	81800117 	ldw	r6,4(r16)
 8401c04:	81c00217 	ldw	r7,8(r16)
 8401c08:	01000104 	movi	r4,4
 8401c0c:	84034900 	call	8403490 <Print>
   		}

   } // while
 8401c10:	003a9506 	br	8400668 <__alt_data_end+0xfc400668>

08401c14 <initLayer>:
 * @attention It actually makes no difference whether the weights are
 * initialized to a constant (e.g. 0.5) or to a random number.
 * The result (85% success rate) will not change significantly.
 */

void initLayer(Layer *l){
 8401c14:	defffc04 	addi	sp,sp,-16
 8401c18:	df000315 	stw	fp,12(sp)
 8401c1c:	df000304 	addi	fp,sp,12
 8401c20:	e13fff15 	stw	r4,-4(fp)
    
    for (int o=0; o<NUMBER_OF_OUTPUT_CELLS; o++){
 8401c24:	e03ffd15 	stw	zero,-12(fp)
 8401c28:	00003606 	br	8401d04 <initLayer+0xf0>
        
        for (int i=0; i<NUMBER_OF_INPUT_CELLS; i++){
 8401c2c:	e03ffe15 	stw	zero,-8(fp)
 8401c30:	00002006 	br	8401cb4 <initLayer+0xa0>
            l->cell[o].input[i]=0;
 8401c34:	e0ffff17 	ldw	r3,-4(fp)
 8401c38:	e0bffd17 	ldw	r2,-12(fp)
 8401c3c:	110188a4 	muli	r4,r2,1570
 8401c40:	e0bffe17 	ldw	r2,-8(fp)
 8401c44:	2085883a 	add	r2,r4,r2
 8401c48:	100490fa 	slli	r2,r2,3
 8401c4c:	1885883a 	add	r2,r3,r2
 8401c50:	10000015 	stw	zero,0(r2)
 8401c54:	10000115 	stw	zero,4(r2)
            l->cell[o].weight[i]=WEIGHTS[o*NUMBER_OF_INPUT_CELLS + i];
 8401c58:	e0bffd17 	ldw	r2,-12(fp)
 8401c5c:	10c0c424 	muli	r3,r2,784
 8401c60:	e0bffe17 	ldw	r2,-8(fp)
 8401c64:	1887883a 	add	r3,r3,r2
 8401c68:	00821074 	movhi	r2,2113
 8401c6c:	10bee204 	addi	r2,r2,-1144
 8401c70:	180690fa 	slli	r3,r3,3
 8401c74:	10c9883a 	add	r4,r2,r3
 8401c78:	20800017 	ldw	r2,0(r4)
 8401c7c:	20c00117 	ldw	r3,4(r4)
 8401c80:	e17fff17 	ldw	r5,-4(fp)
 8401c84:	e13ffd17 	ldw	r4,-12(fp)
 8401c88:	218188a4 	muli	r6,r4,1570
 8401c8c:	e13ffe17 	ldw	r4,-8(fp)
 8401c90:	3109883a 	add	r4,r6,r4
 8401c94:	2100c404 	addi	r4,r4,784
 8401c98:	200890fa 	slli	r4,r4,3
 8401c9c:	2909883a 	add	r4,r5,r4
 8401ca0:	20800015 	stw	r2,0(r4)
 8401ca4:	20c00115 	stw	r3,4(r4)

void initLayer(Layer *l){
    
    for (int o=0; o<NUMBER_OF_OUTPUT_CELLS; o++){
        
        for (int i=0; i<NUMBER_OF_INPUT_CELLS; i++){
 8401ca8:	e0bffe17 	ldw	r2,-8(fp)
 8401cac:	10800044 	addi	r2,r2,1
 8401cb0:	e0bffe15 	stw	r2,-8(fp)
 8401cb4:	e0bffe17 	ldw	r2,-8(fp)
 8401cb8:	1080c410 	cmplti	r2,r2,784
 8401cbc:	103fdd1e 	bne	r2,zero,8401c34 <__alt_data_end+0xfc401c34>
            l->cell[o].input[i]=0;
            l->cell[o].weight[i]=WEIGHTS[o*NUMBER_OF_INPUT_CELLS + i];
        }
        
        l->cell[o].output = 0;
 8401cc0:	e0ffff17 	ldw	r3,-4(fp)
 8401cc4:	e0bffd17 	ldw	r2,-12(fp)
 8401cc8:	108c4424 	muli	r2,r2,12560
 8401ccc:	1885883a 	add	r2,r3,r2
 8401cd0:	108c4004 	addi	r2,r2,12544
 8401cd4:	10000015 	stw	zero,0(r2)
 8401cd8:	10000115 	stw	zero,4(r2)
        l->cell[o].bias = 0;
 8401cdc:	e0ffff17 	ldw	r3,-4(fp)
 8401ce0:	e0bffd17 	ldw	r2,-12(fp)
 8401ce4:	108c4424 	muli	r2,r2,12560
 8401ce8:	1885883a 	add	r2,r3,r2
 8401cec:	108c4204 	addi	r2,r2,12552
 8401cf0:	10000015 	stw	zero,0(r2)
 8401cf4:	10000115 	stw	zero,4(r2)
 * The result (85% success rate) will not change significantly.
 */

void initLayer(Layer *l){
    
    for (int o=0; o<NUMBER_OF_OUTPUT_CELLS; o++){
 8401cf8:	e0bffd17 	ldw	r2,-12(fp)
 8401cfc:	10800044 	addi	r2,r2,1
 8401d00:	e0bffd15 	stw	r2,-12(fp)
 8401d04:	e0bffd17 	ldw	r2,-12(fp)
 8401d08:	10800290 	cmplti	r2,r2,10
 8401d0c:	103fc71e 	bne	r2,zero,8401c2c <__alt_data_end+0xfc401c2c>
        }
        
        l->cell[o].output = 0;
        l->cell[o].bias = 0;
    }
}
 8401d10:	0001883a 	nop
 8401d14:	e037883a 	mov	sp,fp
 8401d18:	df000017 	ldw	fp,0(sp)
 8401d1c:	dec00104 	addi	sp,sp,4
 8401d20:	f800283a 	ret

08401d24 <getLayerPrediction>:
/**
 * @details The output prediction is derived by simply sorting all output values
 * and using the index (=0-9 number) of the highest value as the prediction.
 */

uint8_t getLayerPrediction(Layer *l){
 8401d24:	defff904 	addi	sp,sp,-28
 8401d28:	dfc00615 	stw	ra,24(sp)
 8401d2c:	df000515 	stw	fp,20(sp)
 8401d30:	df000504 	addi	fp,sp,20
 8401d34:	e13fff15 	stw	r4,-4(fp)
    
    double maxOut = 0;
 8401d38:	e03ffb15 	stw	zero,-20(fp)
 8401d3c:	e03ffc15 	stw	zero,-16(fp)
    uint8_t maxInd = 0;
 8401d40:	e03ffd05 	stb	zero,-12(fp)
    
    for (int i=0; i<NUMBER_OF_OUTPUT_CELLS; i++){
 8401d44:	e03ffe15 	stw	zero,-8(fp)
 8401d48:	00001b06 	br	8401db8 <getLayerPrediction+0x94>
        if (l->cell[i].output > maxOut){
 8401d4c:	e0ffff17 	ldw	r3,-4(fp)
 8401d50:	e0bffe17 	ldw	r2,-8(fp)
 8401d54:	108c4424 	muli	r2,r2,12560
 8401d58:	1885883a 	add	r2,r3,r2
 8401d5c:	110c4004 	addi	r4,r2,12544
 8401d60:	20800017 	ldw	r2,0(r4)
 8401d64:	20c00117 	ldw	r3,4(r4)
 8401d68:	e1bffb17 	ldw	r6,-20(fp)
 8401d6c:	e1fffc17 	ldw	r7,-16(fp)
 8401d70:	1009883a 	mov	r4,r2
 8401d74:	180b883a 	mov	r5,r3
 8401d78:	84082f40 	call	84082f4 <__gedf2>
 8401d7c:	00800b0e 	bge	zero,r2,8401dac <getLayerPrediction+0x88>
            maxOut = l->cell[i].output;
 8401d80:	e0ffff17 	ldw	r3,-4(fp)
 8401d84:	e0bffe17 	ldw	r2,-8(fp)
 8401d88:	108c4424 	muli	r2,r2,12560
 8401d8c:	1885883a 	add	r2,r3,r2
 8401d90:	108c4004 	addi	r2,r2,12544
 8401d94:	10c00017 	ldw	r3,0(r2)
 8401d98:	e0fffb15 	stw	r3,-20(fp)
 8401d9c:	10800117 	ldw	r2,4(r2)
 8401da0:	e0bffc15 	stw	r2,-16(fp)
            maxInd = i;
 8401da4:	e0bffe17 	ldw	r2,-8(fp)
 8401da8:	e0bffd05 	stb	r2,-12(fp)
uint8_t getLayerPrediction(Layer *l){
    
    double maxOut = 0;
    uint8_t maxInd = 0;
    
    for (int i=0; i<NUMBER_OF_OUTPUT_CELLS; i++){
 8401dac:	e0bffe17 	ldw	r2,-8(fp)
 8401db0:	10800044 	addi	r2,r2,1
 8401db4:	e0bffe15 	stw	r2,-8(fp)
 8401db8:	e0bffe17 	ldw	r2,-8(fp)
 8401dbc:	10800290 	cmplti	r2,r2,10
 8401dc0:	103fe21e 	bne	r2,zero,8401d4c <__alt_data_end+0xfc401d4c>
            maxOut = l->cell[i].output;
            maxInd = i;
        }
    }
    
    return maxInd;
 8401dc4:	e0bffd03 	ldbu	r2,-12(fp)
    
}
 8401dc8:	e037883a 	mov	sp,fp
 8401dcc:	dfc00117 	ldw	ra,4(sp)
 8401dd0:	df000017 	ldw	fp,0(sp)
 8401dd4:	dec00204 	addi	sp,sp,8
 8401dd8:	f800283a 	ret

08401ddc <setCellInput>:
 * of a given MNIST image, setting input vector cells to [0,1]
 * based on the pixels of the image.
 * Scalar pixel intensity [=grey-scale] is ignored, only 0 or 1 [=black-white].
 */

void setCellInput(Cell *c, MNIST_Image *img){
 8401ddc:	defffc04 	addi	sp,sp,-16
 8401de0:	df000315 	stw	fp,12(sp)
 8401de4:	df000304 	addi	fp,sp,12
 8401de8:	e13ffe15 	stw	r4,-8(fp)
 8401dec:	e17fff15 	stw	r5,-4(fp)
    
    for (int i=0; i<NUMBER_OF_INPUT_CELLS; i++){
 8401df0:	e03ffd15 	stw	zero,-12(fp)
 8401df4:	00001406 	br	8401e48 <setCellInput+0x6c>
        c->input[i] = img->pixel[i] ? 1 : 0;
 8401df8:	e0ffff17 	ldw	r3,-4(fp)
 8401dfc:	e0bffd17 	ldw	r2,-12(fp)
 8401e00:	1885883a 	add	r2,r3,r2
 8401e04:	10800003 	ldbu	r2,0(r2)
 8401e08:	10803fcc 	andi	r2,r2,255
 8401e0c:	10000326 	beq	r2,zero,8401e1c <setCellInput+0x40>
 8401e10:	0005883a 	mov	r2,zero
 8401e14:	00cffc34 	movhi	r3,16368
 8401e18:	00000206 	br	8401e24 <setCellInput+0x48>
 8401e1c:	0005883a 	mov	r2,zero
 8401e20:	0007883a 	mov	r3,zero
 8401e24:	e17ffe17 	ldw	r5,-8(fp)
 8401e28:	e13ffd17 	ldw	r4,-12(fp)
 8401e2c:	200890fa 	slli	r4,r4,3
 8401e30:	2909883a 	add	r4,r5,r4
 8401e34:	20800015 	stw	r2,0(r4)
 8401e38:	20c00115 	stw	r3,4(r4)
 * Scalar pixel intensity [=grey-scale] is ignored, only 0 or 1 [=black-white].
 */

void setCellInput(Cell *c, MNIST_Image *img){
    
    for (int i=0; i<NUMBER_OF_INPUT_CELLS; i++){
 8401e3c:	e0bffd17 	ldw	r2,-12(fp)
 8401e40:	10800044 	addi	r2,r2,1
 8401e44:	e0bffd15 	stw	r2,-12(fp)
 8401e48:	e0bffd17 	ldw	r2,-12(fp)
 8401e4c:	1080c410 	cmplti	r2,r2,784
 8401e50:	103fe91e 	bne	r2,zero,8401df8 <__alt_data_end+0xfc401df8>
        c->input[i] = img->pixel[i] ? 1 : 0;

    }
}
 8401e54:	0001883a 	nop
 8401e58:	e037883a 	mov	sp,fp
 8401e5c:	df000017 	ldw	fp,0(sp)
 8401e60:	dec00104 	addi	sp,sp,4
 8401e64:	f800283a 	ret

08401e68 <calcCellOutput>:
/**
 * @details Calculates a cell's output by suming all input-weight-products
 * and normalizes to [0-1].
 */

void calcCellOutput(Cell *c){
 8401e68:	defffa04 	addi	sp,sp,-24
 8401e6c:	dfc00515 	stw	ra,20(sp)
 8401e70:	df000415 	stw	fp,16(sp)
 8401e74:	dc400315 	stw	r17,12(sp)
 8401e78:	dc000215 	stw	r16,8(sp)
 8401e7c:	df000404 	addi	fp,sp,16
 8401e80:	e13ffd15 	stw	r4,-12(fp)
    
    c->output=0;
 8401e84:	e0bffd17 	ldw	r2,-12(fp)
 8401e88:	100c4015 	stw	zero,12544(r2)
 8401e8c:	100c4115 	stw	zero,12548(r2)
    
    for (int i=0; i<NUMBER_OF_INPUT_CELLS; i++){
 8401e90:	e03ffc15 	stw	zero,-16(fp)
 8401e94:	00002806 	br	8401f38 <calcCellOutput+0xd0>
        c->output += c->input[i] * c->weight[i];
 8401e98:	e0bffd17 	ldw	r2,-12(fp)
 8401e9c:	140c4017 	ldw	r16,12544(r2)
 8401ea0:	144c4117 	ldw	r17,12548(r2)
 8401ea4:	e0fffd17 	ldw	r3,-12(fp)
 8401ea8:	e0bffc17 	ldw	r2,-16(fp)
 8401eac:	100490fa 	slli	r2,r2,3
 8401eb0:	1889883a 	add	r4,r3,r2
 8401eb4:	20800017 	ldw	r2,0(r4)
 8401eb8:	20c00117 	ldw	r3,4(r4)
 8401ebc:	e17ffd17 	ldw	r5,-12(fp)
 8401ec0:	e13ffc17 	ldw	r4,-16(fp)
 8401ec4:	2100c404 	addi	r4,r4,784
 8401ec8:	200890fa 	slli	r4,r4,3
 8401ecc:	290d883a 	add	r6,r5,r4
 8401ed0:	31000017 	ldw	r4,0(r6)
 8401ed4:	31400117 	ldw	r5,4(r6)
 8401ed8:	200d883a 	mov	r6,r4
 8401edc:	280f883a 	mov	r7,r5
 8401ee0:	1009883a 	mov	r4,r2
 8401ee4:	180b883a 	mov	r5,r3
 8401ee8:	84084c40 	call	84084c4 <__muldf3>
 8401eec:	1009883a 	mov	r4,r2
 8401ef0:	180b883a 	mov	r5,r3
 8401ef4:	2005883a 	mov	r2,r4
 8401ef8:	2807883a 	mov	r3,r5
 8401efc:	100d883a 	mov	r6,r2
 8401f00:	180f883a 	mov	r7,r3
 8401f04:	8009883a 	mov	r4,r16
 8401f08:	880b883a 	mov	r5,r17
 8401f0c:	84071600 	call	8407160 <__adddf3>
 8401f10:	1009883a 	mov	r4,r2
 8401f14:	180b883a 	mov	r5,r3
 8401f18:	2005883a 	mov	r2,r4
 8401f1c:	2807883a 	mov	r3,r5
 8401f20:	e13ffd17 	ldw	r4,-12(fp)
 8401f24:	208c4015 	stw	r2,12544(r4)
 8401f28:	20cc4115 	stw	r3,12548(r4)

void calcCellOutput(Cell *c){
    
    c->output=0;
    
    for (int i=0; i<NUMBER_OF_INPUT_CELLS; i++){
 8401f2c:	e0bffc17 	ldw	r2,-16(fp)
 8401f30:	10800044 	addi	r2,r2,1
 8401f34:	e0bffc15 	stw	r2,-16(fp)
 8401f38:	e0bffc17 	ldw	r2,-16(fp)
 8401f3c:	1080c410 	cmplti	r2,r2,784
 8401f40:	103fd51e 	bne	r2,zero,8401e98 <__alt_data_end+0xfc401e98>
        c->output += c->input[i] * c->weight[i];
    }
    
    c->output /= NUMBER_OF_INPUT_CELLS;             // normalize output (0-1)
 8401f44:	e13ffd17 	ldw	r4,-12(fp)
 8401f48:	208c4017 	ldw	r2,12544(r4)
 8401f4c:	20cc4117 	ldw	r3,12548(r4)
 8401f50:	000d883a 	mov	r6,zero
 8401f54:	01d02274 	movhi	r7,16521
 8401f58:	39e00004 	addi	r7,r7,-32768
 8401f5c:	1009883a 	mov	r4,r2
 8401f60:	180b883a 	mov	r5,r3
 8401f64:	8407a0c0 	call	8407a0c <__divdf3>
 8401f68:	1009883a 	mov	r4,r2
 8401f6c:	180b883a 	mov	r5,r3
 8401f70:	2005883a 	mov	r2,r4
 8401f74:	2807883a 	mov	r3,r5
 8401f78:	e13ffd17 	ldw	r4,-12(fp)
 8401f7c:	208c4015 	stw	r2,12544(r4)
 8401f80:	20cc4115 	stw	r3,12548(r4)
}
 8401f84:	0001883a 	nop
 8401f88:	e6fffe04 	addi	sp,fp,-8
 8401f8c:	dfc00317 	ldw	ra,12(sp)
 8401f90:	df000217 	ldw	fp,8(sp)
 8401f94:	dc400117 	ldw	r17,4(sp)
 8401f98:	dc000017 	ldw	r16,0(sp)
 8401f9c:	dec00404 	addi	sp,sp,16
 8401fa0:	f800283a 	ret

08401fa4 <testCell>:
/**
 * @details Performs the testing of the trained network
 * Same as training a cell, but without updating weights (learning)
 */

void testCell(Cell *c, MNIST_Image *img){
 8401fa4:	defffc04 	addi	sp,sp,-16
 8401fa8:	dfc00315 	stw	ra,12(sp)
 8401fac:	df000215 	stw	fp,8(sp)
 8401fb0:	df000204 	addi	fp,sp,8
 8401fb4:	e13ffe15 	stw	r4,-8(fp)
 8401fb8:	e17fff15 	stw	r5,-4(fp)
    
    setCellInput(c, img);
 8401fbc:	e17fff17 	ldw	r5,-4(fp)
 8401fc0:	e13ffe17 	ldw	r4,-8(fp)
 8401fc4:	8401ddc0 	call	8401ddc <setCellInput>
    calcCellOutput(c);
 8401fc8:	e13ffe17 	ldw	r4,-8(fp)
 8401fcc:	8401e680 	call	8401e68 <calcCellOutput>
    
}
 8401fd0:	0001883a 	nop
 8401fd4:	e037883a 	mov	sp,fp
 8401fd8:	dfc00117 	ldw	ra,4(sp)
 8401fdc:	df000017 	ldw	fp,0(sp)
 8401fe0:	dec00204 	addi	sp,sp,8
 8401fe4:	f800283a 	ret

08401fe8 <testLayer>:
 * @details Tests a layer by looping through and testing its cells
 * Exactly the same as TrainLayer() but WITHOUT LEARNING.
 * @param l A pointer to the layer that is to be training
 */

int testLayer(Layer *l, MNIST_Image *img){
 8401fe8:	defffa04 	addi	sp,sp,-24
 8401fec:	dfc00515 	stw	ra,20(sp)
 8401ff0:	df000415 	stw	fp,16(sp)
 8401ff4:	df000404 	addi	fp,sp,16
 8401ff8:	e13ffe15 	stw	r4,-8(fp)
 8401ffc:	e17fff15 	stw	r5,-4(fp)

	// loop through all output cells for the given image
	for (int i=0; i < NUMBER_OF_OUTPUT_CELLS; i++){
 8402000:	e03ffc15 	stw	zero,-16(fp)
 8402004:	00000a06 	br	8402030 <testLayer+0x48>
		testCell(&l->cell[i], img);
 8402008:	e0bffc17 	ldw	r2,-16(fp)
 840200c:	108c4424 	muli	r2,r2,12560
 8402010:	e0fffe17 	ldw	r3,-8(fp)
 8402014:	1885883a 	add	r2,r3,r2
 8402018:	e17fff17 	ldw	r5,-4(fp)
 840201c:	1009883a 	mov	r4,r2
 8402020:	8401fa40 	call	8401fa4 <testCell>
 */

int testLayer(Layer *l, MNIST_Image *img){

	// loop through all output cells for the given image
	for (int i=0; i < NUMBER_OF_OUTPUT_CELLS; i++){
 8402024:	e0bffc17 	ldw	r2,-16(fp)
 8402028:	10800044 	addi	r2,r2,1
 840202c:	e0bffc15 	stw	r2,-16(fp)
 8402030:	e0bffc17 	ldw	r2,-16(fp)
 8402034:	10800290 	cmplti	r2,r2,10
 8402038:	103ff31e 	bne	r2,zero,8402008 <__alt_data_end+0xfc402008>
		testCell(&l->cell[i], img);
	}

	uint8_t predictedNum = getLayerPrediction(l);
 840203c:	e13ffe17 	ldw	r4,-8(fp)
 8402040:	8401d240 	call	8401d24 <getLayerPrediction>
 8402044:	e0bffd05 	stb	r2,-12(fp)

    return predictedNum;
 8402048:	e0bffd03 	ldbu	r2,-12(fp)

}
 840204c:	e037883a 	mov	sp,fp
 8402050:	dfc00117 	ldw	ra,4(sp)
 8402054:	df000017 	ldw	fp,0(sp)
 8402058:	dec00204 	addi	sp,sp,8
 840205c:	f800283a 	ret

08402060 <Delay_Ms>:
#define BLUE 0x001f
#define BLACK  0x0000
#define WHITE 0xffff

void Delay_Ms(alt_u16 count_ms)
{
 8402060:	defffd04 	addi	sp,sp,-12
 8402064:	dfc00215 	stw	ra,8(sp)
 8402068:	df000115 	stw	fp,4(sp)
 840206c:	df000104 	addi	fp,sp,4
 8402070:	2005883a 	mov	r2,r4
 8402074:	e0bfff0d 	sth	r2,-4(fp)
    while(count_ms--)
 8402078:	00000206 	br	8402084 <Delay_Ms+0x24>
    {
        usleep(1000);
 840207c:	0100fa04 	movi	r4,1000
 8402080:	840d82c0 	call	840d82c <usleep>
#define BLACK  0x0000
#define WHITE 0xffff

void Delay_Ms(alt_u16 count_ms)
{
    while(count_ms--)
 8402084:	e0bfff0b 	ldhu	r2,-4(fp)
 8402088:	10ffffc4 	addi	r3,r2,-1
 840208c:	e0ffff0d 	sth	r3,-4(fp)
 8402090:	10bfffcc 	andi	r2,r2,65535
 8402094:	103ff91e 	bne	r2,zero,840207c <__alt_data_end+0xfc40207c>
    {
        usleep(1000);
    }
}
 8402098:	0001883a 	nop
 840209c:	e037883a 	mov	sp,fp
 84020a0:	dfc00117 	ldw	ra,4(sp)
 84020a4:	df000017 	ldw	fp,0(sp)
 84020a8:	dec00204 	addi	sp,sp,8
 84020ac:	f800283a 	ret

084020b0 <LCD_SetCursor>:


void LCD_SetCursor(alt_u16 Xpos, alt_u16 Ypos)
{
 84020b0:	defffd04 	addi	sp,sp,-12
 84020b4:	df000215 	stw	fp,8(sp)
 84020b8:	df000204 	addi	fp,sp,8
 84020bc:	2007883a 	mov	r3,r4
 84020c0:	2805883a 	mov	r2,r5
 84020c4:	e0fffe0d 	sth	r3,-8(fp)
 84020c8:	e0bfff0d 	sth	r2,-4(fp)
	 LCD_WR_REG(0x002A);
 84020cc:	00c00a84 	movi	r3,42
 84020d0:	00800404 	movi	r2,16
 84020d4:	10c00035 	stwio	r3,0(r2)
		 LCD_WR_DATA(Xpos>>8);
 84020d8:	e0bffe0b 	ldhu	r2,-8(fp)
 84020dc:	1004d23a 	srli	r2,r2,8
 84020e0:	10ffffcc 	andi	r3,r2,65535
 84020e4:	00800504 	movi	r2,20
 84020e8:	10c00035 	stwio	r3,0(r2)
		 LCD_WR_DATA(Xpos&0XFF);
 84020ec:	e0bffe0b 	ldhu	r2,-8(fp)
 84020f0:	10c03fcc 	andi	r3,r2,255
 84020f4:	00800504 	movi	r2,20
 84020f8:	10c00035 	stwio	r3,0(r2)
	 LCD_WR_REG(0x002B);
 84020fc:	00c00ac4 	movi	r3,43
 8402100:	00800404 	movi	r2,16
 8402104:	10c00035 	stwio	r3,0(r2)
		 LCD_WR_DATA(Ypos>>8);
 8402108:	e0bfff0b 	ldhu	r2,-4(fp)
 840210c:	1004d23a 	srli	r2,r2,8
 8402110:	10ffffcc 	andi	r3,r2,65535
 8402114:	00800504 	movi	r2,20
 8402118:	10c00035 	stwio	r3,0(r2)
		 LCD_WR_DATA(Ypos&0XFF);
 840211c:	e0bfff0b 	ldhu	r2,-4(fp)
 8402120:	10c03fcc 	andi	r3,r2,255
 8402124:	00800504 	movi	r2,20
 8402128:	10c00035 	stwio	r3,0(r2)
	 LCD_WR_REG(0x002C);
 840212c:	00c00b04 	movi	r3,44
 8402130:	00800404 	movi	r2,16
 8402134:	10c00035 	stwio	r3,0(r2)
}
 8402138:	0001883a 	nop
 840213c:	e037883a 	mov	sp,fp
 8402140:	df000017 	ldw	fp,0(sp)
 8402144:	dec00104 	addi	sp,sp,4
 8402148:	f800283a 	ret

0840214c <LCD_Clear>:

void LCD_Clear(alt_u16 Color)
{
 840214c:	defffc04 	addi	sp,sp,-16
 8402150:	dfc00315 	stw	ra,12(sp)
 8402154:	df000215 	stw	fp,8(sp)
 8402158:	df000204 	addi	fp,sp,8
 840215c:	2005883a 	mov	r2,r4
 8402160:	e0bfff0d 	sth	r2,-4(fp)
        alt_u32 index=0;
 8402164:	e03ffe15 	stw	zero,-8(fp)
        LCD_SetCursor(0x00,0x0000);
 8402168:	000b883a 	mov	r5,zero
 840216c:	0009883a 	mov	r4,zero
 8402170:	84020b00 	call	84020b0 <LCD_SetCursor>
        LCD_WR_REG(0x002C);
 8402174:	00c00b04 	movi	r3,44
 8402178:	00800404 	movi	r2,16
 840217c:	10c00035 	stwio	r3,0(r2)
        for(index=0;index<76800;index++)
 8402180:	e03ffe15 	stw	zero,-8(fp)
 8402184:	00000606 	br	84021a0 <LCD_Clear+0x54>
        {
        	LCD_WR_DATA(Color);
 8402188:	e0ffff0b 	ldhu	r3,-4(fp)
 840218c:	00800504 	movi	r2,20
 8402190:	10c00035 	stwio	r3,0(r2)
void LCD_Clear(alt_u16 Color)
{
        alt_u32 index=0;
        LCD_SetCursor(0x00,0x0000);
        LCD_WR_REG(0x002C);
        for(index=0;index<76800;index++)
 8402194:	e0bffe17 	ldw	r2,-8(fp)
 8402198:	10800044 	addi	r2,r2,1
 840219c:	e0bffe15 	stw	r2,-8(fp)
 84021a0:	e0fffe17 	ldw	r3,-8(fp)
 84021a4:	00800074 	movhi	r2,1
 84021a8:	108affc4 	addi	r2,r2,11263
 84021ac:	10fff62e 	bgeu	r2,r3,8402188 <__alt_data_end+0xfc402188>
        {
        	LCD_WR_DATA(Color);
        }
}
 84021b0:	0001883a 	nop
 84021b4:	e037883a 	mov	sp,fp
 84021b8:	dfc00117 	ldw	ra,4(sp)
 84021bc:	df000017 	ldw	fp,0(sp)
 84021c0:	dec00204 	addi	sp,sp,8
 84021c4:	f800283a 	ret

084021c8 <LCD_DrawPoint>:

void LCD_DrawPoint(alt_u16 x,alt_u16 y,alt_u16 color )
{
 84021c8:	defffb04 	addi	sp,sp,-20
 84021cc:	dfc00415 	stw	ra,16(sp)
 84021d0:	df000315 	stw	fp,12(sp)
 84021d4:	df000304 	addi	fp,sp,12
 84021d8:	2807883a 	mov	r3,r5
 84021dc:	3005883a 	mov	r2,r6
 84021e0:	e13ffd0d 	sth	r4,-12(fp)
 84021e4:	e0fffe0d 	sth	r3,-8(fp)
 84021e8:	e0bfff0d 	sth	r2,-4(fp)
        LCD_SetCursor(x,y);
 84021ec:	e0bffd0b 	ldhu	r2,-12(fp)
 84021f0:	e0fffe0b 	ldhu	r3,-8(fp)
 84021f4:	180b883a 	mov	r5,r3
 84021f8:	1009883a 	mov	r4,r2
 84021fc:	84020b00 	call	84020b0 <LCD_SetCursor>
        LCD_WR_REG(0x002C);			//Memory Write
 8402200:	00c00b04 	movi	r3,44
 8402204:	00800404 	movi	r2,16
 8402208:	10c00035 	stwio	r3,0(r2)
        LCD_WR_DATA(color);
 840220c:	e0ffff0b 	ldhu	r3,-4(fp)
 8402210:	00800504 	movi	r2,20
 8402214:	10c00035 	stwio	r3,0(r2)
}
 8402218:	0001883a 	nop
 840221c:	e037883a 	mov	sp,fp
 8402220:	dfc00117 	ldw	ra,4(sp)
 8402224:	df000017 	ldw	fp,0(sp)
 8402228:	dec00204 	addi	sp,sp,8
 840222c:	f800283a 	ret

08402230 <LCD_Init>:
			}
		}
}*/

void LCD_Init()
{
 8402230:	defffe04 	addi	sp,sp,-8
 8402234:	dfc00115 	stw	ra,4(sp)
 8402238:	df000015 	stw	fp,0(sp)
 840223c:	d839883a 	mov	fp,sp
	Set_LCD_RST;
 8402240:	00c00044 	movi	r3,1
 8402244:	00804034 	movhi	r2,256
 8402248:	10802004 	addi	r2,r2,128
 840224c:	10c00035 	stwio	r3,0(r2)
	Delay_Ms(1);
 8402250:	01000044 	movi	r4,1
 8402254:	84020600 	call	8402060 <Delay_Ms>
	Clr_LCD_RST;
 8402258:	0007883a 	mov	r3,zero
 840225c:	00804034 	movhi	r2,256
 8402260:	10802004 	addi	r2,r2,128
 8402264:	10c00035 	stwio	r3,0(r2)
	Delay_Ms(10);       // Delay 10ms // This delay time is necessary
 8402268:	01000284 	movi	r4,10
 840226c:	84020600 	call	8402060 <Delay_Ms>
	Set_LCD_RST;
 8402270:	00c00044 	movi	r3,1
 8402274:	00804034 	movhi	r2,256
 8402278:	10802004 	addi	r2,r2,128
 840227c:	10c00035 	stwio	r3,0(r2)
	Delay_Ms(120);       // Delay 120 ms
 8402280:	01001e04 	movi	r4,120
 8402284:	84020600 	call	8402060 <Delay_Ms>
//	Clr_LCD_CS;



	LCD_WR_REG(0x0011); //Exit Sleep
 8402288:	00c00444 	movi	r3,17
 840228c:	00800404 	movi	r2,16
 8402290:	10c00035 	stwio	r3,0(r2)
	LCD_WR_REG(0x00CF);
 8402294:	00c033c4 	movi	r3,207
 8402298:	00800404 	movi	r2,16
 840229c:	10c00035 	stwio	r3,0(r2)
		LCD_WR_DATA(0x0000);
 84022a0:	0007883a 	mov	r3,zero
 84022a4:	00800504 	movi	r2,20
 84022a8:	10c00035 	stwio	r3,0(r2)
		LCD_WR_DATA(0x0081);
 84022ac:	00c02044 	movi	r3,129
 84022b0:	00800504 	movi	r2,20
 84022b4:	10c00035 	stwio	r3,0(r2)
		LCD_WR_DATA(0X00c0);
 84022b8:	00c03004 	movi	r3,192
 84022bc:	00800504 	movi	r2,20
 84022c0:	10c00035 	stwio	r3,0(r2)

	LCD_WR_REG(0x00ED);
 84022c4:	00c03b44 	movi	r3,237
 84022c8:	00800404 	movi	r2,16
 84022cc:	10c00035 	stwio	r3,0(r2)
		LCD_WR_DATA(0x0064);
 84022d0:	00c01904 	movi	r3,100
 84022d4:	00800504 	movi	r2,20
 84022d8:	10c00035 	stwio	r3,0(r2)
		LCD_WR_DATA(0x0003);
 84022dc:	00c000c4 	movi	r3,3
 84022e0:	00800504 	movi	r2,20
 84022e4:	10c00035 	stwio	r3,0(r2)
		LCD_WR_DATA(0X0012);
 84022e8:	00c00484 	movi	r3,18
 84022ec:	00800504 	movi	r2,20
 84022f0:	10c00035 	stwio	r3,0(r2)
		LCD_WR_DATA(0X0081);
 84022f4:	00c02044 	movi	r3,129
 84022f8:	00800504 	movi	r2,20
 84022fc:	10c00035 	stwio	r3,0(r2)

	LCD_WR_REG(0x00E8);
 8402300:	00c03a04 	movi	r3,232
 8402304:	00800404 	movi	r2,16
 8402308:	10c00035 	stwio	r3,0(r2)
		LCD_WR_DATA(0x0085);
 840230c:	00c02144 	movi	r3,133
 8402310:	00800504 	movi	r2,20
 8402314:	10c00035 	stwio	r3,0(r2)
		LCD_WR_DATA(0x0001);
 8402318:	00c00044 	movi	r3,1
 840231c:	00800504 	movi	r2,20
 8402320:	10c00035 	stwio	r3,0(r2)
		LCD_WR_DATA(0x00798);
 8402324:	00c1e604 	movi	r3,1944
 8402328:	00800504 	movi	r2,20
 840232c:	10c00035 	stwio	r3,0(r2)

	LCD_WR_REG(0x00CB);
 8402330:	00c032c4 	movi	r3,203
 8402334:	00800404 	movi	r2,16
 8402338:	10c00035 	stwio	r3,0(r2)
		LCD_WR_DATA(0x0039);
 840233c:	00c00e44 	movi	r3,57
 8402340:	00800504 	movi	r2,20
 8402344:	10c00035 	stwio	r3,0(r2)
		LCD_WR_DATA(0x002C);
 8402348:	00c00b04 	movi	r3,44
 840234c:	00800504 	movi	r2,20
 8402350:	10c00035 	stwio	r3,0(r2)
		LCD_WR_DATA(0x0000);
 8402354:	0007883a 	mov	r3,zero
 8402358:	00800504 	movi	r2,20
 840235c:	10c00035 	stwio	r3,0(r2)
		LCD_WR_DATA(0x0034);
 8402360:	00c00d04 	movi	r3,52
 8402364:	00800504 	movi	r2,20
 8402368:	10c00035 	stwio	r3,0(r2)
		LCD_WR_DATA(0x0002);
 840236c:	00c00084 	movi	r3,2
 8402370:	00800504 	movi	r2,20
 8402374:	10c00035 	stwio	r3,0(r2)

	LCD_WR_REG(0x00F7);
 8402378:	00c03dc4 	movi	r3,247
 840237c:	00800404 	movi	r2,16
 8402380:	10c00035 	stwio	r3,0(r2)
		LCD_WR_DATA(0x0020);
 8402384:	00c00804 	movi	r3,32
 8402388:	00800504 	movi	r2,20
 840238c:	10c00035 	stwio	r3,0(r2)

	LCD_WR_REG(0x00EA);
 8402390:	00c03a84 	movi	r3,234
 8402394:	00800404 	movi	r2,16
 8402398:	10c00035 	stwio	r3,0(r2)
		LCD_WR_DATA(0x0000);
 840239c:	0007883a 	mov	r3,zero
 84023a0:	00800504 	movi	r2,20
 84023a4:	10c00035 	stwio	r3,0(r2)
		LCD_WR_DATA(0x0000);
 84023a8:	0007883a 	mov	r3,zero
 84023ac:	00800504 	movi	r2,20
 84023b0:	10c00035 	stwio	r3,0(r2)

	LCD_WR_REG(0x00B1);
 84023b4:	00c02c44 	movi	r3,177
 84023b8:	00800404 	movi	r2,16
 84023bc:	10c00035 	stwio	r3,0(r2)
		LCD_WR_DATA(0x0000);
 84023c0:	0007883a 	mov	r3,zero
 84023c4:	00800504 	movi	r2,20
 84023c8:	10c00035 	stwio	r3,0(r2)
		LCD_WR_DATA(0x001b);
 84023cc:	00c006c4 	movi	r3,27
 84023d0:	00800504 	movi	r2,20
 84023d4:	10c00035 	stwio	r3,0(r2)

	LCD_WR_REG(0x00B6);
 84023d8:	00c02d84 	movi	r3,182
 84023dc:	00800404 	movi	r2,16
 84023e0:	10c00035 	stwio	r3,0(r2)
		LCD_WR_DATA(0x000A);
 84023e4:	00c00284 	movi	r3,10
 84023e8:	00800504 	movi	r2,20
 84023ec:	10c00035 	stwio	r3,0(r2)
		LCD_WR_DATA(0x00A2);
 84023f0:	00c02884 	movi	r3,162
 84023f4:	00800504 	movi	r2,20
 84023f8:	10c00035 	stwio	r3,0(r2)

	LCD_WR_REG(0x00C0);    //Power control
 84023fc:	00c03004 	movi	r3,192
 8402400:	00800404 	movi	r2,16
 8402404:	10c00035 	stwio	r3,0(r2)
		LCD_WR_DATA(0x0005);   //VRH[5:0]
 8402408:	00c00144 	movi	r3,5
 840240c:	00800504 	movi	r2,20
 8402410:	10c00035 	stwio	r3,0(r2)

	LCD_WR_REG(0x00C1);    //Power control
 8402414:	00c03044 	movi	r3,193
 8402418:	00800404 	movi	r2,16
 840241c:	10c00035 	stwio	r3,0(r2)
		LCD_WR_DATA(0x0011);   //SAP[2:0];BT[3:0]
 8402420:	00c00444 	movi	r3,17
 8402424:	00800504 	movi	r2,20
 8402428:	10c00035 	stwio	r3,0(r2)

	LCD_WR_REG(0x00C5);    //VCM control
 840242c:	00c03144 	movi	r3,197
 8402430:	00800404 	movi	r2,16
 8402434:	10c00035 	stwio	r3,0(r2)
		LCD_WR_DATA(0x0045);       //3F
 8402438:	00c01144 	movi	r3,69
 840243c:	00800504 	movi	r2,20
 8402440:	10c00035 	stwio	r3,0(r2)
		LCD_WR_DATA(0x0045);       //3C
 8402444:	00c01144 	movi	r3,69
 8402448:	00800504 	movi	r2,20
 840244c:	10c00035 	stwio	r3,0(r2)

	 LCD_WR_REG(0x00C7);    //VCM control2
 8402450:	00c031c4 	movi	r3,199
 8402454:	00800404 	movi	r2,16
 8402458:	10c00035 	stwio	r3,0(r2)
		 LCD_WR_DATA(0X00a2);
 840245c:	00c02884 	movi	r3,162
 8402460:	00800504 	movi	r2,20
 8402464:	10c00035 	stwio	r3,0(r2)

	LCD_WR_REG(0x0036);    // Memory Access Control
 8402468:	00c00d84 	movi	r3,54
 840246c:	00800404 	movi	r2,16
 8402470:	10c00035 	stwio	r3,0(r2)
		LCD_WR_DATA(0x0008);//48
 8402474:	00c00204 	movi	r3,8
 8402478:	00800504 	movi	r2,20
 840247c:	10c00035 	stwio	r3,0(r2)

	LCD_WR_REG(0x00F2);    // 3Gamma Function Disable
 8402480:	00c03c84 	movi	r3,242
 8402484:	00800404 	movi	r2,16
 8402488:	10c00035 	stwio	r3,0(r2)
		LCD_WR_DATA(0x0000);
 840248c:	0007883a 	mov	r3,zero
 8402490:	00800504 	movi	r2,20
 8402494:	10c00035 	stwio	r3,0(r2)

	LCD_WR_REG(0x0026);    //Gamma curve selected
 8402498:	00c00984 	movi	r3,38
 840249c:	00800404 	movi	r2,16
 84024a0:	10c00035 	stwio	r3,0(r2)
		LCD_WR_DATA(0x0001);
 84024a4:	00c00044 	movi	r3,1
 84024a8:	00800504 	movi	r2,20
 84024ac:	10c00035 	stwio	r3,0(r2)

	LCD_WR_REG(0x00E0);    //Set Gamma
 84024b0:	00c03804 	movi	r3,224
 84024b4:	00800404 	movi	r2,16
 84024b8:	10c00035 	stwio	r3,0(r2)
		LCD_WR_DATA(0x000F);
 84024bc:	00c003c4 	movi	r3,15
 84024c0:	00800504 	movi	r2,20
 84024c4:	10c00035 	stwio	r3,0(r2)
		LCD_WR_DATA(0x0026);
 84024c8:	00c00984 	movi	r3,38
 84024cc:	00800504 	movi	r2,20
 84024d0:	10c00035 	stwio	r3,0(r2)
		LCD_WR_DATA(0x0024);
 84024d4:	00c00904 	movi	r3,36
 84024d8:	00800504 	movi	r2,20
 84024dc:	10c00035 	stwio	r3,0(r2)
		LCD_WR_DATA(0x000b);
 84024e0:	00c002c4 	movi	r3,11
 84024e4:	00800504 	movi	r2,20
 84024e8:	10c00035 	stwio	r3,0(r2)
		LCD_WR_DATA(0x000E);
 84024ec:	00c00384 	movi	r3,14
 84024f0:	00800504 	movi	r2,20
 84024f4:	10c00035 	stwio	r3,0(r2)
		LCD_WR_DATA(0x0008);
 84024f8:	00c00204 	movi	r3,8
 84024fc:	00800504 	movi	r2,20
 8402500:	10c00035 	stwio	r3,0(r2)
		LCD_WR_DATA(0x004b);
 8402504:	00c012c4 	movi	r3,75
 8402508:	00800504 	movi	r2,20
 840250c:	10c00035 	stwio	r3,0(r2)
		LCD_WR_DATA(0X00a8);
 8402510:	00c02a04 	movi	r3,168
 8402514:	00800504 	movi	r2,20
 8402518:	10c00035 	stwio	r3,0(r2)
		LCD_WR_DATA(0x003b);
 840251c:	00c00ec4 	movi	r3,59
 8402520:	00800504 	movi	r2,20
 8402524:	10c00035 	stwio	r3,0(r2)
		LCD_WR_DATA(0x000a);
 8402528:	00c00284 	movi	r3,10
 840252c:	00800504 	movi	r2,20
 8402530:	10c00035 	stwio	r3,0(r2)
		LCD_WR_DATA(0x0014);
 8402534:	00c00504 	movi	r3,20
 8402538:	00800504 	movi	r2,20
 840253c:	10c00035 	stwio	r3,0(r2)
		LCD_WR_DATA(0x0006);
 8402540:	00c00184 	movi	r3,6
 8402544:	00800504 	movi	r2,20
 8402548:	10c00035 	stwio	r3,0(r2)
		LCD_WR_DATA(0x0010);
 840254c:	00c00404 	movi	r3,16
 8402550:	00800504 	movi	r2,20
 8402554:	10c00035 	stwio	r3,0(r2)
		LCD_WR_DATA(0x0009);
 8402558:	00c00244 	movi	r3,9
 840255c:	00800504 	movi	r2,20
 8402560:	10c00035 	stwio	r3,0(r2)
		LCD_WR_DATA(0x0000);
 8402564:	0007883a 	mov	r3,zero
 8402568:	00800504 	movi	r2,20
 840256c:	10c00035 	stwio	r3,0(r2)

	LCD_WR_REG(0X00E1);    //Set Gamma
 8402570:	00c03844 	movi	r3,225
 8402574:	00800404 	movi	r2,16
 8402578:	10c00035 	stwio	r3,0(r2)
		LCD_WR_DATA(0x0000);
 840257c:	0007883a 	mov	r3,zero
 8402580:	00800504 	movi	r2,20
 8402584:	10c00035 	stwio	r3,0(r2)
		LCD_WR_DATA(0x001c);
 8402588:	00c00704 	movi	r3,28
 840258c:	00800504 	movi	r2,20
 8402590:	10c00035 	stwio	r3,0(r2)
		LCD_WR_DATA(0x0020);
 8402594:	00c00804 	movi	r3,32
 8402598:	00800504 	movi	r2,20
 840259c:	10c00035 	stwio	r3,0(r2)
		LCD_WR_DATA(0x0004);
 84025a0:	00c00104 	movi	r3,4
 84025a4:	00800504 	movi	r2,20
 84025a8:	10c00035 	stwio	r3,0(r2)
		LCD_WR_DATA(0x0010);
 84025ac:	00c00404 	movi	r3,16
 84025b0:	00800504 	movi	r2,20
 84025b4:	10c00035 	stwio	r3,0(r2)
		LCD_WR_DATA(0x0008);
 84025b8:	00c00204 	movi	r3,8
 84025bc:	00800504 	movi	r2,20
 84025c0:	10c00035 	stwio	r3,0(r2)
		LCD_WR_DATA(0x0034);
 84025c4:	00c00d04 	movi	r3,52
 84025c8:	00800504 	movi	r2,20
 84025cc:	10c00035 	stwio	r3,0(r2)
		LCD_WR_DATA(0x0047);
 84025d0:	00c011c4 	movi	r3,71
 84025d4:	00800504 	movi	r2,20
 84025d8:	10c00035 	stwio	r3,0(r2)
		LCD_WR_DATA(0x0044);
 84025dc:	00c01104 	movi	r3,68
 84025e0:	00800504 	movi	r2,20
 84025e4:	10c00035 	stwio	r3,0(r2)
		LCD_WR_DATA(0x0005);
 84025e8:	00c00144 	movi	r3,5
 84025ec:	00800504 	movi	r2,20
 84025f0:	10c00035 	stwio	r3,0(r2)
		LCD_WR_DATA(0x000b);
 84025f4:	00c002c4 	movi	r3,11
 84025f8:	00800504 	movi	r2,20
 84025fc:	10c00035 	stwio	r3,0(r2)
		LCD_WR_DATA(0x0009);
 8402600:	00c00244 	movi	r3,9
 8402604:	00800504 	movi	r2,20
 8402608:	10c00035 	stwio	r3,0(r2)
		LCD_WR_DATA(0x002f);
 840260c:	00c00bc4 	movi	r3,47
 8402610:	00800504 	movi	r2,20
 8402614:	10c00035 	stwio	r3,0(r2)
		LCD_WR_DATA(0x0036);
 8402618:	00c00d84 	movi	r3,54
 840261c:	00800504 	movi	r2,20
 8402620:	10c00035 	stwio	r3,0(r2)
		LCD_WR_DATA(0x000f);
 8402624:	00c003c4 	movi	r3,15
 8402628:	00800504 	movi	r2,20
 840262c:	10c00035 	stwio	r3,0(r2)

	LCD_WR_REG(0x002A);
 8402630:	00c00a84 	movi	r3,42
 8402634:	00800404 	movi	r2,16
 8402638:	10c00035 	stwio	r3,0(r2)
		LCD_WR_DATA(0x0000);
 840263c:	0007883a 	mov	r3,zero
 8402640:	00800504 	movi	r2,20
 8402644:	10c00035 	stwio	r3,0(r2)
		LCD_WR_DATA(0x0000);
 8402648:	0007883a 	mov	r3,zero
 840264c:	00800504 	movi	r2,20
 8402650:	10c00035 	stwio	r3,0(r2)
		LCD_WR_DATA(0x0000);
 8402654:	0007883a 	mov	r3,zero
 8402658:	00800504 	movi	r2,20
 840265c:	10c00035 	stwio	r3,0(r2)
		LCD_WR_DATA(0x00ef);
 8402660:	00c03bc4 	movi	r3,239
 8402664:	00800504 	movi	r2,20
 8402668:	10c00035 	stwio	r3,0(r2)

	 LCD_WR_REG(0x002B);
 840266c:	00c00ac4 	movi	r3,43
 8402670:	00800404 	movi	r2,16
 8402674:	10c00035 	stwio	r3,0(r2)
		LCD_WR_DATA(0x0000);
 8402678:	0007883a 	mov	r3,zero
 840267c:	00800504 	movi	r2,20
 8402680:	10c00035 	stwio	r3,0(r2)
		LCD_WR_DATA(0x0000);
 8402684:	0007883a 	mov	r3,zero
 8402688:	00800504 	movi	r2,20
 840268c:	10c00035 	stwio	r3,0(r2)
		LCD_WR_DATA(0x0001);
 8402690:	00c00044 	movi	r3,1
 8402694:	00800504 	movi	r2,20
 8402698:	10c00035 	stwio	r3,0(r2)
		LCD_WR_DATA(0x003f);
 840269c:	00c00fc4 	movi	r3,63
 84026a0:	00800504 	movi	r2,20
 84026a4:	10c00035 	stwio	r3,0(r2)

	LCD_WR_REG(0x003A);
 84026a8:	00c00e84 	movi	r3,58
 84026ac:	00800404 	movi	r2,16
 84026b0:	10c00035 	stwio	r3,0(r2)
		LCD_WR_DATA(0x0055);
 84026b4:	00c01544 	movi	r3,85
 84026b8:	00800504 	movi	r2,20
 84026bc:	10c00035 	stwio	r3,0(r2)

	LCD_WR_REG(0x00f6);
 84026c0:	00c03d84 	movi	r3,246
 84026c4:	00800404 	movi	r2,16
 84026c8:	10c00035 	stwio	r3,0(r2)
		LCD_WR_DATA(0x0001);
 84026cc:	00c00044 	movi	r3,1
 84026d0:	00800504 	movi	r2,20
 84026d4:	10c00035 	stwio	r3,0(r2)
		LCD_WR_DATA(0x0030);
 84026d8:	00c00c04 	movi	r3,48
 84026dc:	00800504 	movi	r2,20
 84026e0:	10c00035 	stwio	r3,0(r2)
		LCD_WR_DATA(0x0000);
 84026e4:	0007883a 	mov	r3,zero
 84026e8:	00800504 	movi	r2,20
 84026ec:	10c00035 	stwio	r3,0(r2)

	LCD_WR_REG(0x0029); //display on
 84026f0:	00c00a44 	movi	r3,41
 84026f4:	00800404 	movi	r2,16
 84026f8:	10c00035 	stwio	r3,0(r2)

	LCD_WR_REG(0x002c);    // 0x2C
 84026fc:	00c00b04 	movi	r3,44
 8402700:	00800404 	movi	r2,16
 8402704:	10c00035 	stwio	r3,0(r2)

}
 8402708:	0001883a 	nop
 840270c:	e037883a 	mov	sp,fp
 8402710:	dfc00117 	ldw	ra,4(sp)
 8402714:	df000017 	ldw	fp,0(sp)
 8402718:	dec00204 	addi	sp,sp,8
 840271c:	f800283a 	ret

08402720 <LCD_Pattern_Horizon>:


void LCD_Pattern_Horizon(void)
{
 8402720:	defffc04 	addi	sp,sp,-16
 8402724:	dfc00315 	stw	ra,12(sp)
 8402728:	df000215 	stw	fp,8(sp)
 840272c:	df000204 	addi	fp,sp,8
        alt_u32 index=0;
 8402730:	e03ffe15 	stw	zero,-8(fp)
        alt_u16  data=0;
 8402734:	e03fff0d 	sth	zero,-4(fp)
        LCD_SetCursor(0x00,0x0000);
 8402738:	000b883a 	mov	r5,zero
 840273c:	0009883a 	mov	r4,zero
 8402740:	84020b00 	call	84020b0 <LCD_SetCursor>
        data=0x0000;
 8402744:	e03fff0d 	sth	zero,-4(fp)
        for(index=0;index<240*80;index++)
 8402748:	e03ffe15 	stw	zero,-8(fp)
 840274c:	00000606 	br	8402768 <LCD_Pattern_Horizon+0x48>
        {
        	LCD_WR_DATA(data);
 8402750:	e0ffff0b 	ldhu	r3,-4(fp)
 8402754:	00800504 	movi	r2,20
 8402758:	10c00035 	stwio	r3,0(r2)
{
        alt_u32 index=0;
        alt_u16  data=0;
        LCD_SetCursor(0x00,0x0000);
        data=0x0000;
        for(index=0;index<240*80;index++)
 840275c:	e0bffe17 	ldw	r2,-8(fp)
 8402760:	10800044 	addi	r2,r2,1
 8402764:	e0bffe15 	stw	r2,-8(fp)
 8402768:	e0bffe17 	ldw	r2,-8(fp)
 840276c:	1092c030 	cmpltui	r2,r2,19200
 8402770:	103ff71e 	bne	r2,zero,8402750 <__alt_data_end+0xfc402750>
        {
        	LCD_WR_DATA(data);
        }
        LCD_SetCursor(0x00,80);
 8402774:	01401404 	movi	r5,80
 8402778:	0009883a 	mov	r4,zero
 840277c:	84020b00 	call	84020b0 <LCD_SetCursor>
        data=RED;
 8402780:	00be0004 	movi	r2,-2048
 8402784:	e0bfff0d 	sth	r2,-4(fp)
		for(index=0;index<240*80;index++)
 8402788:	e03ffe15 	stw	zero,-8(fp)
 840278c:	00000606 	br	84027a8 <LCD_Pattern_Horizon+0x88>
		{
			LCD_WR_DATA(data);
 8402790:	e0ffff0b 	ldhu	r3,-4(fp)
 8402794:	00800504 	movi	r2,20
 8402798:	10c00035 	stwio	r3,0(r2)
        {
        	LCD_WR_DATA(data);
        }
        LCD_SetCursor(0x00,80);
        data=RED;
		for(index=0;index<240*80;index++)
 840279c:	e0bffe17 	ldw	r2,-8(fp)
 84027a0:	10800044 	addi	r2,r2,1
 84027a4:	e0bffe15 	stw	r2,-8(fp)
 84027a8:	e0bffe17 	ldw	r2,-8(fp)
 84027ac:	1092c030 	cmpltui	r2,r2,19200
 84027b0:	103ff71e 	bne	r2,zero,8402790 <__alt_data_end+0xfc402790>
		{
			LCD_WR_DATA(data);
		}
	    LCD_SetCursor(0x00,160);
 84027b4:	01402804 	movi	r5,160
 84027b8:	0009883a 	mov	r4,zero
 84027bc:	84020b00 	call	84020b0 <LCD_SetCursor>
		data=GREEN;
 84027c0:	0081f804 	movi	r2,2016
 84027c4:	e0bfff0d 	sth	r2,-4(fp)
		for(index=0;index<240*80;index++)
 84027c8:	e03ffe15 	stw	zero,-8(fp)
 84027cc:	00000606 	br	84027e8 <LCD_Pattern_Horizon+0xc8>
		{
			LCD_WR_DATA(data);
 84027d0:	e0ffff0b 	ldhu	r3,-4(fp)
 84027d4:	00800504 	movi	r2,20
 84027d8:	10c00035 	stwio	r3,0(r2)
		{
			LCD_WR_DATA(data);
		}
	    LCD_SetCursor(0x00,160);
		data=GREEN;
		for(index=0;index<240*80;index++)
 84027dc:	e0bffe17 	ldw	r2,-8(fp)
 84027e0:	10800044 	addi	r2,r2,1
 84027e4:	e0bffe15 	stw	r2,-8(fp)
 84027e8:	e0bffe17 	ldw	r2,-8(fp)
 84027ec:	1092c030 	cmpltui	r2,r2,19200
 84027f0:	103ff71e 	bne	r2,zero,84027d0 <__alt_data_end+0xfc4027d0>
		{
			LCD_WR_DATA(data);
		}
		LCD_SetCursor(0x00,240);
 84027f4:	01403c04 	movi	r5,240
 84027f8:	0009883a 	mov	r4,zero
 84027fc:	84020b00 	call	84020b0 <LCD_SetCursor>
		data=BLUE;
 8402800:	008007c4 	movi	r2,31
 8402804:	e0bfff0d 	sth	r2,-4(fp)
		for(index=0;index<240*80;index++)
 8402808:	e03ffe15 	stw	zero,-8(fp)
 840280c:	00000606 	br	8402828 <LCD_Pattern_Horizon+0x108>
		{
			LCD_WR_DATA(data);
 8402810:	e0ffff0b 	ldhu	r3,-4(fp)
 8402814:	00800504 	movi	r2,20
 8402818:	10c00035 	stwio	r3,0(r2)
		{
			LCD_WR_DATA(data);
		}
		LCD_SetCursor(0x00,240);
		data=BLUE;
		for(index=0;index<240*80;index++)
 840281c:	e0bffe17 	ldw	r2,-8(fp)
 8402820:	10800044 	addi	r2,r2,1
 8402824:	e0bffe15 	stw	r2,-8(fp)
 8402828:	e0bffe17 	ldw	r2,-8(fp)
 840282c:	1092c030 	cmpltui	r2,r2,19200
 8402830:	103ff71e 	bne	r2,zero,8402810 <__alt_data_end+0xfc402810>
		{
			LCD_WR_DATA(data);
		}
}
 8402834:	0001883a 	nop
 8402838:	e037883a 	mov	sp,fp
 840283c:	dfc00117 	ldw	ra,4(sp)
 8402840:	df000017 	ldw	fp,0(sp)
 8402844:	dec00204 	addi	sp,sp,8
 8402848:	f800283a 	ret

0840284c <LCD_Pattern_Vertical>:

void LCD_Pattern_Vertical(void)
{
 840284c:	defff804 	addi	sp,sp,-32
 8402850:	dfc00715 	stw	ra,28(sp)
 8402854:	df000615 	stw	fp,24(sp)
 8402858:	df000604 	addi	fp,sp,24
        int i,j,m;
        alt_u16  data=0;
 840285c:	e03ffd0d 	sth	zero,-12(fp)
        alt_u16  color[4]={WHITE,BLUE,GREEN,RED};
 8402860:	00bfffc4 	movi	r2,-1
 8402864:	e0bffd8d 	sth	r2,-10(fp)
 8402868:	008007c4 	movi	r2,31
 840286c:	e0bffe0d 	sth	r2,-8(fp)
 8402870:	0081f804 	movi	r2,2016
 8402874:	e0bffe8d 	sth	r2,-6(fp)
 8402878:	00be0004 	movi	r2,-2048
 840287c:	e0bfff0d 	sth	r2,-4(fp)
        LCD_SetCursor(0x00,0x0000);
 8402880:	000b883a 	mov	r5,zero
 8402884:	0009883a 	mov	r4,zero
 8402888:	84020b00 	call	84020b0 <LCD_SetCursor>
        for(m=0;m<320;m++)
 840288c:	e03ffc15 	stw	zero,-16(fp)
 8402890:	00001d06 	br	8402908 <LCD_Pattern_Vertical+0xbc>
        {
			for(i=0;i<4;i++)
 8402894:	e03ffa15 	stw	zero,-24(fp)
 8402898:	00001506 	br	84028f0 <LCD_Pattern_Vertical+0xa4>
			{
				data=color[i];
 840289c:	e0bffa17 	ldw	r2,-24(fp)
 84028a0:	1085883a 	add	r2,r2,r2
 84028a4:	e0fffa04 	addi	r3,fp,-24
 84028a8:	1885883a 	add	r2,r3,r2
 84028ac:	10800384 	addi	r2,r2,14
 84028b0:	1080000b 	ldhu	r2,0(r2)
 84028b4:	e0bffd0d 	sth	r2,-12(fp)
				for(j=0;j<60;j++)
 84028b8:	e03ffb15 	stw	zero,-20(fp)
 84028bc:	00000606 	br	84028d8 <LCD_Pattern_Vertical+0x8c>
				{
					LCD_WR_DATA(data);
 84028c0:	e0fffd0b 	ldhu	r3,-12(fp)
 84028c4:	00800504 	movi	r2,20
 84028c8:	10c00035 	stwio	r3,0(r2)
        for(m=0;m<320;m++)
        {
			for(i=0;i<4;i++)
			{
				data=color[i];
				for(j=0;j<60;j++)
 84028cc:	e0bffb17 	ldw	r2,-20(fp)
 84028d0:	10800044 	addi	r2,r2,1
 84028d4:	e0bffb15 	stw	r2,-20(fp)
 84028d8:	e0bffb17 	ldw	r2,-20(fp)
 84028dc:	10800f10 	cmplti	r2,r2,60
 84028e0:	103ff71e 	bne	r2,zero,84028c0 <__alt_data_end+0xfc4028c0>
        alt_u16  data=0;
        alt_u16  color[4]={WHITE,BLUE,GREEN,RED};
        LCD_SetCursor(0x00,0x0000);
        for(m=0;m<320;m++)
        {
			for(i=0;i<4;i++)
 84028e4:	e0bffa17 	ldw	r2,-24(fp)
 84028e8:	10800044 	addi	r2,r2,1
 84028ec:	e0bffa15 	stw	r2,-24(fp)
 84028f0:	e0bffa17 	ldw	r2,-24(fp)
 84028f4:	10800110 	cmplti	r2,r2,4
 84028f8:	103fe81e 	bne	r2,zero,840289c <__alt_data_end+0xfc40289c>
{
        int i,j,m;
        alt_u16  data=0;
        alt_u16  color[4]={WHITE,BLUE,GREEN,RED};
        LCD_SetCursor(0x00,0x0000);
        for(m=0;m<320;m++)
 84028fc:	e0bffc17 	ldw	r2,-16(fp)
 8402900:	10800044 	addi	r2,r2,1
 8402904:	e0bffc15 	stw	r2,-16(fp)
 8402908:	e0bffc17 	ldw	r2,-16(fp)
 840290c:	10805010 	cmplti	r2,r2,320
 8402910:	103fe01e 	bne	r2,zero,8402894 <__alt_data_end+0xfc402894>
				{
					LCD_WR_DATA(data);
				}
			}
        }
}
 8402914:	0001883a 	nop
 8402918:	e037883a 	mov	sp,fp
 840291c:	dfc00117 	ldw	ra,4(sp)
 8402920:	df000017 	ldw	fp,0(sp)
 8402924:	dec00204 	addi	sp,sp,8
 8402928:	f800283a 	ret

0840292c <IsPtInRect>:

//#define BOUND(x, mini, maxi) ((x<(mini)?(mini):( (x>(maxi))?(maxi):(x) )))

//#define COPY_POINT(pt_des, pt_src)  memcpy(&pt_des, &pt_src,sizeof(POINT))

bool IsPtInRect(POINT *pt, RECT *rc){
 840292c:	defffc04 	addi	sp,sp,-16
 8402930:	df000315 	stw	fp,12(sp)
 8402934:	df000304 	addi	fp,sp,12
 8402938:	e13ffe15 	stw	r4,-8(fp)
 840293c:	e17fff15 	stw	r5,-4(fp)
    bool bYes = FALSE;
 8402940:	e03ffd15 	stw	zero,-12(fp)
    
    if (pt->x >= rc->left && pt->x <= rc->right && pt->y >= rc->top && pt->y <= rc->bottom)
 8402944:	e0bffe17 	ldw	r2,-8(fp)
 8402948:	10c00017 	ldw	r3,0(r2)
 840294c:	e0bfff17 	ldw	r2,-4(fp)
 8402950:	10800017 	ldw	r2,0(r2)
 8402954:	18801116 	blt	r3,r2,840299c <IsPtInRect+0x70>
 8402958:	e0bffe17 	ldw	r2,-8(fp)
 840295c:	10800017 	ldw	r2,0(r2)
 8402960:	e0ffff17 	ldw	r3,-4(fp)
 8402964:	18c00117 	ldw	r3,4(r3)
 8402968:	18800c16 	blt	r3,r2,840299c <IsPtInRect+0x70>
 840296c:	e0bffe17 	ldw	r2,-8(fp)
 8402970:	10c00117 	ldw	r3,4(r2)
 8402974:	e0bfff17 	ldw	r2,-4(fp)
 8402978:	10800217 	ldw	r2,8(r2)
 840297c:	18800716 	blt	r3,r2,840299c <IsPtInRect+0x70>
 8402980:	e0bffe17 	ldw	r2,-8(fp)
 8402984:	10800117 	ldw	r2,4(r2)
 8402988:	e0ffff17 	ldw	r3,-4(fp)
 840298c:	18c00317 	ldw	r3,12(r3)
 8402990:	18800216 	blt	r3,r2,840299c <IsPtInRect+0x70>
        bYes = TRUE;
 8402994:	00800044 	movi	r2,1
 8402998:	e0bffd15 	stw	r2,-12(fp)
    
    return bYes;
 840299c:	e0bffd17 	ldw	r2,-12(fp)
}
 84029a0:	e037883a 	mov	sp,fp
 84029a4:	df000017 	ldw	fp,0(sp)
 84029a8:	dec00104 	addi	sp,sp,4
 84029ac:	f800283a 	ret

084029b0 <PtSet>:

void PtSet(POINT *pt, int x, int y){
 84029b0:	defffc04 	addi	sp,sp,-16
 84029b4:	df000315 	stw	fp,12(sp)
 84029b8:	df000304 	addi	fp,sp,12
 84029bc:	e13ffd15 	stw	r4,-12(fp)
 84029c0:	e17ffe15 	stw	r5,-8(fp)
 84029c4:	e1bfff15 	stw	r6,-4(fp)
    pt->x = x;
 84029c8:	e0bffd17 	ldw	r2,-12(fp)
 84029cc:	e0fffe17 	ldw	r3,-8(fp)
 84029d0:	10c00015 	stw	r3,0(r2)
    pt->y = y;
 84029d4:	e0bffd17 	ldw	r2,-12(fp)
 84029d8:	e0ffff17 	ldw	r3,-4(fp)
 84029dc:	10c00115 	stw	r3,4(r2)
}
 84029e0:	0001883a 	nop
 84029e4:	e037883a 	mov	sp,fp
 84029e8:	df000017 	ldw	fp,0(sp)
 84029ec:	dec00104 	addi	sp,sp,4
 84029f0:	f800283a 	ret

084029f4 <RectSet>:

void RectSet(RECT *rc, int left, int right, int top, int bottom){
 84029f4:	defffb04 	addi	sp,sp,-20
 84029f8:	df000415 	stw	fp,16(sp)
 84029fc:	df000404 	addi	fp,sp,16
 8402a00:	e13ffc15 	stw	r4,-16(fp)
 8402a04:	e17ffd15 	stw	r5,-12(fp)
 8402a08:	e1bffe15 	stw	r6,-8(fp)
 8402a0c:	e1ffff15 	stw	r7,-4(fp)
    rc->left = left;
 8402a10:	e0bffc17 	ldw	r2,-16(fp)
 8402a14:	e0fffd17 	ldw	r3,-12(fp)
 8402a18:	10c00015 	stw	r3,0(r2)
    rc->right = right;
 8402a1c:	e0bffc17 	ldw	r2,-16(fp)
 8402a20:	e0fffe17 	ldw	r3,-8(fp)
 8402a24:	10c00115 	stw	r3,4(r2)
    rc->top = top;
 8402a28:	e0bffc17 	ldw	r2,-16(fp)
 8402a2c:	e0ffff17 	ldw	r3,-4(fp)
 8402a30:	10c00215 	stw	r3,8(r2)
    rc->bottom = bottom;
 8402a34:	e0bffc17 	ldw	r2,-16(fp)
 8402a38:	e0c00117 	ldw	r3,4(fp)
 8402a3c:	10c00315 	stw	r3,12(r2)
}
 8402a40:	0001883a 	nop
 8402a44:	e037883a 	mov	sp,fp
 8402a48:	df000017 	ldw	fp,0(sp)
 8402a4c:	dec00104 	addi	sp,sp,4
 8402a50:	f800283a 	ret

08402a54 <RectInflate>:

void RectInflate(RECT *rc, int x, int y){
 8402a54:	defffc04 	addi	sp,sp,-16
 8402a58:	df000315 	stw	fp,12(sp)
 8402a5c:	df000304 	addi	fp,sp,12
 8402a60:	e13ffd15 	stw	r4,-12(fp)
 8402a64:	e17ffe15 	stw	r5,-8(fp)
 8402a68:	e1bfff15 	stw	r6,-4(fp)
    rc->left -= x;
 8402a6c:	e0bffd17 	ldw	r2,-12(fp)
 8402a70:	10c00017 	ldw	r3,0(r2)
 8402a74:	e0bffe17 	ldw	r2,-8(fp)
 8402a78:	1887c83a 	sub	r3,r3,r2
 8402a7c:	e0bffd17 	ldw	r2,-12(fp)
 8402a80:	10c00015 	stw	r3,0(r2)
    rc->right += x;
 8402a84:	e0bffd17 	ldw	r2,-12(fp)
 8402a88:	10c00117 	ldw	r3,4(r2)
 8402a8c:	e0bffe17 	ldw	r2,-8(fp)
 8402a90:	1887883a 	add	r3,r3,r2
 8402a94:	e0bffd17 	ldw	r2,-12(fp)
 8402a98:	10c00115 	stw	r3,4(r2)
    rc->top -= y;
 8402a9c:	e0bffd17 	ldw	r2,-12(fp)
 8402aa0:	10c00217 	ldw	r3,8(r2)
 8402aa4:	e0bfff17 	ldw	r2,-4(fp)
 8402aa8:	1887c83a 	sub	r3,r3,r2
 8402aac:	e0bffd17 	ldw	r2,-12(fp)
 8402ab0:	10c00215 	stw	r3,8(r2)
    rc->bottom += y;
 8402ab4:	e0bffd17 	ldw	r2,-12(fp)
 8402ab8:	10c00317 	ldw	r3,12(r2)
 8402abc:	e0bfff17 	ldw	r2,-4(fp)
 8402ac0:	1887883a 	add	r3,r3,r2
 8402ac4:	e0bffd17 	ldw	r2,-12(fp)
 8402ac8:	10c00315 	stw	r3,12(r2)
}
 8402acc:	0001883a 	nop
 8402ad0:	e037883a 	mov	sp,fp
 8402ad4:	df000017 	ldw	fp,0(sp)
 8402ad8:	dec00104 	addi	sp,sp,4
 8402adc:	f800283a 	ret

08402ae0 <RectOffset>:

void RectOffset(RECT *rc, int x, int y){
 8402ae0:	defffc04 	addi	sp,sp,-16
 8402ae4:	df000315 	stw	fp,12(sp)
 8402ae8:	df000304 	addi	fp,sp,12
 8402aec:	e13ffd15 	stw	r4,-12(fp)
 8402af0:	e17ffe15 	stw	r5,-8(fp)
 8402af4:	e1bfff15 	stw	r6,-4(fp)
    rc->left += x;
 8402af8:	e0bffd17 	ldw	r2,-12(fp)
 8402afc:	10c00017 	ldw	r3,0(r2)
 8402b00:	e0bffe17 	ldw	r2,-8(fp)
 8402b04:	1887883a 	add	r3,r3,r2
 8402b08:	e0bffd17 	ldw	r2,-12(fp)
 8402b0c:	10c00015 	stw	r3,0(r2)
    rc->right += x;
 8402b10:	e0bffd17 	ldw	r2,-12(fp)
 8402b14:	10c00117 	ldw	r3,4(r2)
 8402b18:	e0bffe17 	ldw	r2,-8(fp)
 8402b1c:	1887883a 	add	r3,r3,r2
 8402b20:	e0bffd17 	ldw	r2,-12(fp)
 8402b24:	10c00115 	stw	r3,4(r2)
    rc->top += y;
 8402b28:	e0bffd17 	ldw	r2,-12(fp)
 8402b2c:	10c00217 	ldw	r3,8(r2)
 8402b30:	e0bfff17 	ldw	r2,-4(fp)
 8402b34:	1887883a 	add	r3,r3,r2
 8402b38:	e0bffd17 	ldw	r2,-12(fp)
 8402b3c:	10c00215 	stw	r3,8(r2)
    rc->bottom += y;
 8402b40:	e0bffd17 	ldw	r2,-12(fp)
 8402b44:	10c00317 	ldw	r3,12(r2)
 8402b48:	e0bfff17 	ldw	r2,-4(fp)
 8402b4c:	1887883a 	add	r3,r3,r2
 8402b50:	e0bffd17 	ldw	r2,-12(fp)
 8402b54:	10c00315 	stw	r3,12(r2)
}
 8402b58:	0001883a 	nop
 8402b5c:	e037883a 	mov	sp,fp
 8402b60:	df000017 	ldw	fp,0(sp)
 8402b64:	dec00104 	addi	sp,sp,4
 8402b68:	f800283a 	ret

08402b6c <RectCopy>:

void RectCopy(RECT *rcDes, RECT *rcSrc){
 8402b6c:	defffd04 	addi	sp,sp,-12
 8402b70:	df000215 	stw	fp,8(sp)
 8402b74:	df000204 	addi	fp,sp,8
 8402b78:	e13ffe15 	stw	r4,-8(fp)
 8402b7c:	e17fff15 	stw	r5,-4(fp)
    rcDes->left = rcSrc->left;
 8402b80:	e0bfff17 	ldw	r2,-4(fp)
 8402b84:	10c00017 	ldw	r3,0(r2)
 8402b88:	e0bffe17 	ldw	r2,-8(fp)
 8402b8c:	10c00015 	stw	r3,0(r2)
    rcDes->right = rcSrc->right;
 8402b90:	e0bfff17 	ldw	r2,-4(fp)
 8402b94:	10c00117 	ldw	r3,4(r2)
 8402b98:	e0bffe17 	ldw	r2,-8(fp)
 8402b9c:	10c00115 	stw	r3,4(r2)
    rcDes->top = rcSrc->top;
 8402ba0:	e0bfff17 	ldw	r2,-4(fp)
 8402ba4:	10c00217 	ldw	r3,8(r2)
 8402ba8:	e0bffe17 	ldw	r2,-8(fp)
 8402bac:	10c00215 	stw	r3,8(r2)
    rcDes->bottom = rcSrc->bottom;
 8402bb0:	e0bfff17 	ldw	r2,-4(fp)
 8402bb4:	10c00317 	ldw	r3,12(r2)
 8402bb8:	e0bffe17 	ldw	r2,-8(fp)
 8402bbc:	10c00315 	stw	r3,12(r2)
}
 8402bc0:	0001883a 	nop
 8402bc4:	e037883a 	mov	sp,fp
 8402bc8:	df000017 	ldw	fp,0(sp)
 8402bcc:	dec00104 	addi	sp,sp,4
 8402bd0:	f800283a 	ret

08402bd4 <RectWidth>:

int RectWidth(RECT *rc){
 8402bd4:	defffe04 	addi	sp,sp,-8
 8402bd8:	df000115 	stw	fp,4(sp)
 8402bdc:	df000104 	addi	fp,sp,4
 8402be0:	e13fff15 	stw	r4,-4(fp)
    return (rc->right-rc->left);
 8402be4:	e0bfff17 	ldw	r2,-4(fp)
 8402be8:	10c00117 	ldw	r3,4(r2)
 8402bec:	e0bfff17 	ldw	r2,-4(fp)
 8402bf0:	10800017 	ldw	r2,0(r2)
 8402bf4:	1885c83a 	sub	r2,r3,r2
}
 8402bf8:	e037883a 	mov	sp,fp
 8402bfc:	df000017 	ldw	fp,0(sp)
 8402c00:	dec00104 	addi	sp,sp,4
 8402c04:	f800283a 	ret

08402c08 <RectHeight>:

int RectHeight(RECT *rc){
 8402c08:	defffe04 	addi	sp,sp,-8
 8402c0c:	df000115 	stw	fp,4(sp)
 8402c10:	df000104 	addi	fp,sp,4
 8402c14:	e13fff15 	stw	r4,-4(fp)
    return (rc->bottom-rc->top);
 8402c18:	e0bfff17 	ldw	r2,-4(fp)
 8402c1c:	10c00317 	ldw	r3,12(r2)
 8402c20:	e0bfff17 	ldw	r2,-4(fp)
 8402c24:	10800217 	ldw	r2,8(r2)
 8402c28:	1885c83a 	sub	r2,r3,r2
}
 8402c2c:	e037883a 	mov	sp,fp
 8402c30:	df000017 	ldw	fp,0(sp)
 8402c34:	dec00104 	addi	sp,sp,4
 8402c38:	f800283a 	ret

08402c3c <PtDistance>:

int PtDistance(POINT *pt1, POINT *pt2){
 8402c3c:	defff904 	addi	sp,sp,-28
 8402c40:	dfc00615 	stw	ra,24(sp)
 8402c44:	df000515 	stw	fp,20(sp)
 8402c48:	df000504 	addi	fp,sp,20
 8402c4c:	e13ffe15 	stw	r4,-8(fp)
 8402c50:	e17fff15 	stw	r5,-4(fp)
    int nDistance;
    int a, b;
    a = pt1->x - pt2->x;
 8402c54:	e0bffe17 	ldw	r2,-8(fp)
 8402c58:	10c00017 	ldw	r3,0(r2)
 8402c5c:	e0bfff17 	ldw	r2,-4(fp)
 8402c60:	10800017 	ldw	r2,0(r2)
 8402c64:	1885c83a 	sub	r2,r3,r2
 8402c68:	e0bffb15 	stw	r2,-20(fp)
    b = pt1->y - pt2->y;
 8402c6c:	e0bffe17 	ldw	r2,-8(fp)
 8402c70:	10c00117 	ldw	r3,4(r2)
 8402c74:	e0bfff17 	ldw	r2,-4(fp)
 8402c78:	10800117 	ldw	r2,4(r2)
 8402c7c:	1885c83a 	sub	r2,r3,r2
 8402c80:	e0bffc15 	stw	r2,-16(fp)
    nDistance = a*a + b*b;
 8402c84:	e0fffb17 	ldw	r3,-20(fp)
 8402c88:	e0bffb17 	ldw	r2,-20(fp)
 8402c8c:	1887383a 	mul	r3,r3,r2
 8402c90:	e13ffc17 	ldw	r4,-16(fp)
 8402c94:	e0bffc17 	ldw	r2,-16(fp)
 8402c98:	2085383a 	mul	r2,r4,r2
 8402c9c:	1885883a 	add	r2,r3,r2
 8402ca0:	e0bffd15 	stw	r2,-12(fp)
    nDistance = sqrt(nDistance);
 8402ca4:	e13ffd17 	ldw	r4,-12(fp)
 8402ca8:	84095580 	call	8409558 <__floatsidf>
 8402cac:	100b883a 	mov	r5,r2
 8402cb0:	180d883a 	mov	r6,r3
 8402cb4:	2809883a 	mov	r4,r5
 8402cb8:	300b883a 	mov	r5,r6
 8402cbc:	8406b780 	call	8406b78 <sqrt>
 8402cc0:	100b883a 	mov	r5,r2
 8402cc4:	180d883a 	mov	r6,r3
 8402cc8:	2809883a 	mov	r4,r5
 8402ccc:	300b883a 	mov	r5,r6
 8402cd0:	84094d80 	call	84094d8 <__fixdfsi>
 8402cd4:	e0bffd15 	stw	r2,-12(fp)
    
    return nDistance;
 8402cd8:	e0bffd17 	ldw	r2,-12(fp)
}
 8402cdc:	e037883a 	mov	sp,fp
 8402ce0:	dfc00117 	ldw	ra,4(sp)
 8402ce4:	df000017 	ldw	fp,0(sp)
 8402ce8:	dec00204 	addi	sp,sp,8
 8402cec:	f800283a 	ret

08402cf0 <PtCopy>:

void PtCopy(POINT *ptDes, POINT *ptSrc){
 8402cf0:	defffd04 	addi	sp,sp,-12
 8402cf4:	df000215 	stw	fp,8(sp)
 8402cf8:	df000204 	addi	fp,sp,8
 8402cfc:	e13ffe15 	stw	r4,-8(fp)
 8402d00:	e17fff15 	stw	r5,-4(fp)
    ptDes->x = ptSrc->x;
 8402d04:	e0bfff17 	ldw	r2,-4(fp)
 8402d08:	10c00017 	ldw	r3,0(r2)
 8402d0c:	e0bffe17 	ldw	r2,-8(fp)
 8402d10:	10c00015 	stw	r3,0(r2)
    ptDes->y = ptSrc->y;
 8402d14:	e0bfff17 	ldw	r2,-4(fp)
 8402d18:	10c00117 	ldw	r3,4(r2)
 8402d1c:	e0bffe17 	ldw	r2,-8(fp)
 8402d20:	10c00115 	stw	r3,4(r2)
}
 8402d24:	0001883a 	nop
 8402d28:	e037883a 	mov	sp,fp
 8402d2c:	df000017 	ldw	fp,0(sp)
 8402d30:	dec00104 	addi	sp,sp,4
 8402d34:	f800283a 	ret

08402d38 <GUI_ShowWelcome>:

#include "gui.h"
#include "simple_graphics.h"


void GUI_ShowWelcome(alt_video_display *pDisplay){
 8402d38:	defff904 	addi	sp,sp,-28
 8402d3c:	dfc00615 	stw	ra,24(sp)
 8402d40:	df000515 	stw	fp,20(sp)
 8402d44:	df000504 	addi	fp,sp,20
 8402d48:	e13fff15 	stw	r4,-4(fp)
	int x, y;

	x = 7;
 8402d4c:	008001c4 	movi	r2,7
 8402d50:	e0bffd15 	stw	r2,-12(fp)
	y = pDisplay->height / 2 - 10;
 8402d54:	e0bfff17 	ldw	r2,-4(fp)
 8402d58:	10800217 	ldw	r2,8(r2)
 8402d5c:	1006d7fa 	srli	r3,r2,31
 8402d60:	1885883a 	add	r2,r3,r2
 8402d64:	1005d07a 	srai	r2,r2,1
 8402d68:	10bffd84 	addi	r2,r2,-10
 8402d6c:	e0bffe15 	stw	r2,-8(fp)

	vid_print_string_alpha(x, y, BLUE_24, BLACK_24, tahomabold_32, "Math Training");
 8402d70:	008210b4 	movhi	r2,2114
 8402d74:	10bc2204 	addi	r2,r2,-3960
 8402d78:	d8800115 	stw	r2,4(sp)
 8402d7c:	00821134 	movhi	r2,2116
 8402d80:	10a69804 	addi	r2,r2,-26016
 8402d84:	d8800015 	stw	r2,0(sp)
 8402d88:	000f883a 	mov	r7,zero
 8402d8c:	01803fc4 	movi	r6,255
 8402d90:	e17ffe17 	ldw	r5,-8(fp)
 8402d94:	e13ffd17 	ldw	r4,-12(fp)
 8402d98:	84057780 	call	8405778 <vid_print_string_alpha>

}
 8402d9c:	0001883a 	nop
 8402da0:	e037883a 	mov	sp,fp
 8402da4:	dfc00117 	ldw	ra,4(sp)
 8402da8:	df000017 	ldw	fp,0(sp)
 8402dac:	dec00204 	addi	sp,sp,8
 8402db0:	f800283a 	ret

08402db4 <GUI_DeskInit>:

void GUI_DeskInit(alt_video_display *pDisplay, DESK_INFO *pDeskInfo){
 8402db4:	defff504 	addi	sp,sp,-44
 8402db8:	dfc00a15 	stw	ra,40(sp)
 8402dbc:	df000915 	stw	fp,36(sp)
 8402dc0:	df000904 	addi	fp,sp,36
 8402dc4:	e13ffe15 	stw	r4,-8(fp)
 8402dc8:	e17fff15 	stw	r5,-4(fp)
    /*dimensioni pulsanti*/
    const int BoxH = 40;
 8402dcc:	00800a04 	movi	r2,40
 8402dd0:	e0bff815 	stw	r2,-32(fp)
    const int BoxW = 110;
 8402dd4:	00801b84 	movi	r2,110
 8402dd8:	e0bff915 	stw	r2,-28(fp)
    const int BoxW_quiz = 140;
 8402ddc:	00802304 	movi	r2,140
 8402de0:	e0bffa15 	stw	r2,-24(fp)

    const int GapH = 5;
 8402de4:	00800144 	movi	r2,5
 8402de8:	e0bffb15 	stw	r2,-20(fp)
    const int GapW = 4;
 8402dec:	00800104 	movi	r2,4
 8402df0:	e0bffc15 	stw	r2,-16(fp)
    const int DrawBorder = 8;
 8402df4:	00800204 	movi	r2,8
 8402df8:	e0bffd15 	stw	r2,-12(fp)

    RectSet(&pDeskInfo->clear, DrawBorder, DrawBorder+BoxW, pDisplay->height-BoxH-GapH, pDisplay->height-GapH);
 8402dfc:	e0bfff17 	ldw	r2,-4(fp)
 8402e00:	11000404 	addi	r4,r2,16
 8402e04:	e0fffd17 	ldw	r3,-12(fp)
 8402e08:	e0bff917 	ldw	r2,-28(fp)
 8402e0c:	188b883a 	add	r5,r3,r2
 8402e10:	e0bffe17 	ldw	r2,-8(fp)
 8402e14:	10c00217 	ldw	r3,8(r2)
 8402e18:	e0bff817 	ldw	r2,-32(fp)
 8402e1c:	1887c83a 	sub	r3,r3,r2
 8402e20:	e0bffb17 	ldw	r2,-20(fp)
 8402e24:	188dc83a 	sub	r6,r3,r2
 8402e28:	e0bffe17 	ldw	r2,-8(fp)
 8402e2c:	10c00217 	ldw	r3,8(r2)
 8402e30:	e0bffb17 	ldw	r2,-20(fp)
 8402e34:	1885c83a 	sub	r2,r3,r2
 8402e38:	d8800015 	stw	r2,0(sp)
 8402e3c:	300f883a 	mov	r7,r6
 8402e40:	280d883a 	mov	r6,r5
 8402e44:	e17ffd17 	ldw	r5,-12(fp)
 8402e48:	84029f40 	call	84029f4 <RectSet>

    RectSet(&pDeskInfo->enter, DrawBorder+BoxW+GapW, DrawBorder+2*BoxW+GapW, pDisplay->height-BoxH-GapH, pDisplay->height-GapH);
 8402e4c:	e0bfff17 	ldw	r2,-4(fp)
 8402e50:	11000804 	addi	r4,r2,32
 8402e54:	e0fffd17 	ldw	r3,-12(fp)
 8402e58:	e0bff917 	ldw	r2,-28(fp)
 8402e5c:	1887883a 	add	r3,r3,r2
 8402e60:	e0bffc17 	ldw	r2,-16(fp)
 8402e64:	188b883a 	add	r5,r3,r2
 8402e68:	e0bff917 	ldw	r2,-28(fp)
 8402e6c:	1085883a 	add	r2,r2,r2
 8402e70:	1007883a 	mov	r3,r2
 8402e74:	e0bffd17 	ldw	r2,-12(fp)
 8402e78:	1887883a 	add	r3,r3,r2
 8402e7c:	e0bffc17 	ldw	r2,-16(fp)
 8402e80:	188d883a 	add	r6,r3,r2
 8402e84:	e0bffe17 	ldw	r2,-8(fp)
 8402e88:	10c00217 	ldw	r3,8(r2)
 8402e8c:	e0bff817 	ldw	r2,-32(fp)
 8402e90:	1887c83a 	sub	r3,r3,r2
 8402e94:	e0bffb17 	ldw	r2,-20(fp)
 8402e98:	188fc83a 	sub	r7,r3,r2
 8402e9c:	e0bffe17 	ldw	r2,-8(fp)
 8402ea0:	10c00217 	ldw	r3,8(r2)
 8402ea4:	e0bffb17 	ldw	r2,-20(fp)
 8402ea8:	1885c83a 	sub	r2,r3,r2
 8402eac:	d8800015 	stw	r2,0(sp)
 8402eb0:	84029f40 	call	84029f4 <RectSet>

    RectSet(&pDeskInfo->expression, DrawBorder, DrawBorder+BoxW_quiz, GapH, GapH+BoxH);
 8402eb4:	e0bfff17 	ldw	r2,-4(fp)
 8402eb8:	11000c04 	addi	r4,r2,48
 8402ebc:	e0fffd17 	ldw	r3,-12(fp)
 8402ec0:	e0bffa17 	ldw	r2,-24(fp)
 8402ec4:	188b883a 	add	r5,r3,r2
 8402ec8:	e0fffb17 	ldw	r3,-20(fp)
 8402ecc:	e0bff817 	ldw	r2,-32(fp)
 8402ed0:	1885883a 	add	r2,r3,r2
 8402ed4:	d8800015 	stw	r2,0(sp)
 8402ed8:	e1fffb17 	ldw	r7,-20(fp)
 8402edc:	280d883a 	mov	r6,r5
 8402ee0:	e17ffd17 	ldw	r5,-12(fp)
 8402ee4:	84029f40 	call	84029f4 <RectSet>

    RectSet(&pDeskInfo->result, 12+BoxW_quiz, 12+BoxW_quiz+2*BoxH, GapH, GapH+BoxH);
 8402ee8:	e0bfff17 	ldw	r2,-4(fp)
 8402eec:	11001004 	addi	r4,r2,64
 8402ef0:	e0bffa17 	ldw	r2,-24(fp)
 8402ef4:	11400304 	addi	r5,r2,12
 8402ef8:	e0bffa17 	ldw	r2,-24(fp)
 8402efc:	10c00304 	addi	r3,r2,12
 8402f00:	e0bff817 	ldw	r2,-32(fp)
 8402f04:	1085883a 	add	r2,r2,r2
 8402f08:	188d883a 	add	r6,r3,r2
 8402f0c:	e0fffb17 	ldw	r3,-20(fp)
 8402f10:	e0bff817 	ldw	r2,-32(fp)
 8402f14:	1885883a 	add	r2,r3,r2
 8402f18:	d8800015 	stw	r2,0(sp)
 8402f1c:	e1fffb17 	ldw	r7,-20(fp)
 8402f20:	84029f40 	call	84029f4 <RectSet>

    // desk drawing area
    RectSet(&pDeskInfo->rcPaint, DrawBorder, pDisplay->width-DrawBorder, BoxH+DrawBorder, pDisplay->height-DrawBorder-BoxH);
 8402f24:	e13fff17 	ldw	r4,-4(fp)
 8402f28:	e0bffe17 	ldw	r2,-8(fp)
 8402f2c:	10c00117 	ldw	r3,4(r2)
 8402f30:	e0bffd17 	ldw	r2,-12(fp)
 8402f34:	188bc83a 	sub	r5,r3,r2
 8402f38:	e0fff817 	ldw	r3,-32(fp)
 8402f3c:	e0bffd17 	ldw	r2,-12(fp)
 8402f40:	188d883a 	add	r6,r3,r2
 8402f44:	e0bffe17 	ldw	r2,-8(fp)
 8402f48:	10c00217 	ldw	r3,8(r2)
 8402f4c:	e0bffd17 	ldw	r2,-12(fp)
 8402f50:	1887c83a 	sub	r3,r3,r2
 8402f54:	e0bff817 	ldw	r2,-32(fp)
 8402f58:	1885c83a 	sub	r2,r3,r2
 8402f5c:	d8800015 	stw	r2,0(sp)
 8402f60:	300f883a 	mov	r7,r6
 8402f64:	280d883a 	mov	r6,r5
 8402f68:	e17ffd17 	ldw	r5,-12(fp)
 8402f6c:	84029f40 	call	84029f4 <RectSet>

}
 8402f70:	0001883a 	nop
 8402f74:	e037883a 	mov	sp,fp
 8402f78:	dfc00117 	ldw	ra,4(sp)
 8402f7c:	df000017 	ldw	fp,0(sp)
 8402f80:	dec00204 	addi	sp,sp,8
 8402f84:	f800283a 	ret

08402f88 <GUI_CheckButton>:

int GUI_CheckButton(DESK_INFO *pDeskInfo, POINT *pt){
 8402f88:	defffb04 	addi	sp,sp,-20
 8402f8c:	dfc00415 	stw	ra,16(sp)
 8402f90:	df000315 	stw	fp,12(sp)
 8402f94:	df000304 	addi	fp,sp,12
 8402f98:	e13ffe15 	stw	r4,-8(fp)
 8402f9c:	e17fff15 	stw	r5,-4(fp)
    int ButtonId = BTN_NONE;
 8402fa0:	e03ffd15 	stw	zero,-12(fp)

	if (IsPtInRect(pt, &pDeskInfo->clear))
 8402fa4:	e0bffe17 	ldw	r2,-8(fp)
 8402fa8:	10800404 	addi	r2,r2,16
 8402fac:	100b883a 	mov	r5,r2
 8402fb0:	e13fff17 	ldw	r4,-4(fp)
 8402fb4:	840292c0 	call	840292c <IsPtInRect>
 8402fb8:	10000326 	beq	r2,zero,8402fc8 <GUI_CheckButton+0x40>
		ButtonId = BTN_CLEAR;
 8402fbc:	00800044 	movi	r2,1
 8402fc0:	e0bffd15 	stw	r2,-12(fp)
 8402fc4:	00001a06 	br	8403030 <GUI_CheckButton+0xa8>
	else if (IsPtInRect(pt, &pDeskInfo->enter))
 8402fc8:	e0bffe17 	ldw	r2,-8(fp)
 8402fcc:	10800804 	addi	r2,r2,32
 8402fd0:	100b883a 	mov	r5,r2
 8402fd4:	e13fff17 	ldw	r4,-4(fp)
 8402fd8:	840292c0 	call	840292c <IsPtInRect>
 8402fdc:	10000326 	beq	r2,zero,8402fec <GUI_CheckButton+0x64>
		ButtonId = BTN_ENTER;
 8402fe0:	00800084 	movi	r2,2
 8402fe4:	e0bffd15 	stw	r2,-12(fp)
 8402fe8:	00001106 	br	8403030 <GUI_CheckButton+0xa8>
	else if (IsPtInRect(pt, &pDeskInfo->result))
 8402fec:	e0bffe17 	ldw	r2,-8(fp)
 8402ff0:	10801004 	addi	r2,r2,64
 8402ff4:	100b883a 	mov	r5,r2
 8402ff8:	e13fff17 	ldw	r4,-4(fp)
 8402ffc:	840292c0 	call	840292c <IsPtInRect>
 8403000:	10000326 	beq	r2,zero,8403010 <GUI_CheckButton+0x88>
		ButtonId = BTN_RESULT;
 8403004:	008000c4 	movi	r2,3
 8403008:	e0bffd15 	stw	r2,-12(fp)
 840300c:	00000806 	br	8403030 <GUI_CheckButton+0xa8>
	else if (IsPtInRect(pt, &pDeskInfo->expression))
 8403010:	e0bffe17 	ldw	r2,-8(fp)
 8403014:	10800c04 	addi	r2,r2,48
 8403018:	100b883a 	mov	r5,r2
 840301c:	e13fff17 	ldw	r4,-4(fp)
 8403020:	840292c0 	call	840292c <IsPtInRect>
 8403024:	10000226 	beq	r2,zero,8403030 <GUI_CheckButton+0xa8>
		ButtonId = BTN_NEWGAME;
 8403028:	00800104 	movi	r2,4
 840302c:	e0bffd15 	stw	r2,-12(fp)

    return ButtonId;
 8403030:	e0bffd17 	ldw	r2,-12(fp)
}
 8403034:	e037883a 	mov	sp,fp
 8403038:	dfc00117 	ldw	ra,4(sp)
 840303c:	df000017 	ldw	fp,0(sp)
 8403040:	dec00204 	addi	sp,sp,8
 8403044:	f800283a 	ret

08403048 <GUI_DeskDraw>:

void GUI_DeskDraw(alt_video_display *pDisplay, DESK_INFO *pDeskInfo){
 8403048:	defff304 	addi	sp,sp,-52
 840304c:	dfc00c15 	stw	ra,48(sp)
 8403050:	df000b15 	stw	fp,44(sp)
 8403054:	dc400a15 	stw	r17,40(sp)
 8403058:	dc000915 	stw	r16,36(sp)
 840305c:	df000b04 	addi	fp,sp,44
 8403060:	e13ffc15 	stw	r4,-16(fp)
 8403064:	e17ffd15 	stw	r5,-12(fp)
    RECT rc;

    // draw border (bordo bianco che delimita l'area di scrittura)
    RectCopy(&rc, &pDeskInfo->rcPaint);
 8403068:	e0bffd17 	ldw	r2,-12(fp)
 840306c:	100b883a 	mov	r5,r2
 8403070:	e13ff804 	addi	r4,fp,-32
 8403074:	8402b6c0 	call	8402b6c <RectCopy>
    vid_draw_box (rc.left, rc.top, rc.right, rc.bottom, WHITE_24, DO_NOT_FILL, pDisplay);
 8403078:	e0fff817 	ldw	r3,-32(fp)
 840307c:	e13ffa17 	ldw	r4,-24(fp)
 8403080:	e17ff917 	ldw	r5,-28(fp)
 8403084:	e1bffb17 	ldw	r6,-20(fp)
 8403088:	e0bffc17 	ldw	r2,-16(fp)
 840308c:	d8800215 	stw	r2,8(sp)
 8403090:	d8000115 	stw	zero,4(sp)
 8403094:	00804034 	movhi	r2,256
 8403098:	10bfffc4 	addi	r2,r2,-1
 840309c:	d8800015 	stw	r2,0(sp)
 84030a0:	300f883a 	mov	r7,r6
 84030a4:	280d883a 	mov	r6,r5
 84030a8:	200b883a 	mov	r5,r4
 84030ac:	1809883a 	mov	r4,r3
 84030b0:	84042880 	call	8404288 <vid_draw_box>


	//disegno il pulsante di clear
	RectCopy(&rc, &(pDeskInfo->clear));
 84030b4:	e0bffd17 	ldw	r2,-12(fp)
 84030b8:	10800404 	addi	r2,r2,16
 84030bc:	100b883a 	mov	r5,r2
 84030c0:	e13ff804 	addi	r4,fp,-32
 84030c4:	8402b6c0 	call	8402b6c <RectCopy>
	vid_draw_box (rc.left, rc.top, rc.right, rc.bottom, RED_24, DO_FILL, pDisplay);
 84030c8:	e0fff817 	ldw	r3,-32(fp)
 84030cc:	e13ffa17 	ldw	r4,-24(fp)
 84030d0:	e17ff917 	ldw	r5,-28(fp)
 84030d4:	e1bffb17 	ldw	r6,-20(fp)
 84030d8:	e0bffc17 	ldw	r2,-16(fp)
 84030dc:	d8800215 	stw	r2,8(sp)
 84030e0:	00800044 	movi	r2,1
 84030e4:	d8800115 	stw	r2,4(sp)
 84030e8:	00803ff4 	movhi	r2,255
 84030ec:	d8800015 	stw	r2,0(sp)
 84030f0:	300f883a 	mov	r7,r6
 84030f4:	280d883a 	mov	r6,r5
 84030f8:	200b883a 	mov	r5,r4
 84030fc:	1809883a 	mov	r4,r3
 8403100:	84042880 	call	8404288 <vid_draw_box>
	vid_print_string_alpha(rc.left+30, rc.top+(RectHeight(&rc)-22)/2, WHITE_24, RED_24, tahomabold_20, "Clear");
 8403104:	e0bff817 	ldw	r2,-32(fp)
 8403108:	14400784 	addi	r17,r2,30
 840310c:	e43ffa17 	ldw	r16,-24(fp)
 8403110:	e13ff804 	addi	r4,fp,-32
 8403114:	8402c080 	call	8402c08 <RectHeight>
 8403118:	10bffa84 	addi	r2,r2,-22
 840311c:	1006d7fa 	srli	r3,r2,31
 8403120:	1885883a 	add	r2,r3,r2
 8403124:	1005d07a 	srai	r2,r2,1
 8403128:	8087883a 	add	r3,r16,r2
 840312c:	008210b4 	movhi	r2,2114
 8403130:	10bc2604 	addi	r2,r2,-3944
 8403134:	d8800115 	stw	r2,4(sp)
 8403138:	00821134 	movhi	r2,2116
 840313c:	10a3a804 	addi	r2,r2,-29024
 8403140:	d8800015 	stw	r2,0(sp)
 8403144:	01c03ff4 	movhi	r7,255
 8403148:	01804034 	movhi	r6,256
 840314c:	31bfffc4 	addi	r6,r6,-1
 8403150:	180b883a 	mov	r5,r3
 8403154:	8809883a 	mov	r4,r17
 8403158:	84057780 	call	8405778 <vid_print_string_alpha>

	//disegno il pulsante di enter
	RectCopy(&rc, &(pDeskInfo->enter));
 840315c:	e0bffd17 	ldw	r2,-12(fp)
 8403160:	10800804 	addi	r2,r2,32
 8403164:	100b883a 	mov	r5,r2
 8403168:	e13ff804 	addi	r4,fp,-32
 840316c:	8402b6c0 	call	8402b6c <RectCopy>
	vid_draw_box (rc.left, rc.top, rc.right, rc.bottom, GREEN, DO_FILL, pDisplay);
 8403170:	e0fff817 	ldw	r3,-32(fp)
 8403174:	e13ffa17 	ldw	r4,-24(fp)
 8403178:	e17ff917 	ldw	r5,-28(fp)
 840317c:	e1bffb17 	ldw	r6,-20(fp)
 8403180:	e0bffc17 	ldw	r2,-16(fp)
 8403184:	d8800215 	stw	r2,8(sp)
 8403188:	00800044 	movi	r2,1
 840318c:	d8800115 	stw	r2,4(sp)
 8403190:	00bfc014 	movui	r2,65280
 8403194:	d8800015 	stw	r2,0(sp)
 8403198:	300f883a 	mov	r7,r6
 840319c:	280d883a 	mov	r6,r5
 84031a0:	200b883a 	mov	r5,r4
 84031a4:	1809883a 	mov	r4,r3
 84031a8:	84042880 	call	8404288 <vid_draw_box>
	vid_print_string_alpha(rc.left+30, rc.top+(RectHeight(&rc)-22)/2, BLACK_24, GREEN, tahomabold_20, "Done");
 84031ac:	e0bff817 	ldw	r2,-32(fp)
 84031b0:	14400784 	addi	r17,r2,30
 84031b4:	e43ffa17 	ldw	r16,-24(fp)
 84031b8:	e13ff804 	addi	r4,fp,-32
 84031bc:	8402c080 	call	8402c08 <RectHeight>
 84031c0:	10bffa84 	addi	r2,r2,-22
 84031c4:	1006d7fa 	srli	r3,r2,31
 84031c8:	1885883a 	add	r2,r3,r2
 84031cc:	1005d07a 	srai	r2,r2,1
 84031d0:	8087883a 	add	r3,r16,r2
 84031d4:	008210b4 	movhi	r2,2114
 84031d8:	10bc2804 	addi	r2,r2,-3936
 84031dc:	d8800115 	stw	r2,4(sp)
 84031e0:	00821134 	movhi	r2,2116
 84031e4:	10a3a804 	addi	r2,r2,-29024
 84031e8:	d8800015 	stw	r2,0(sp)
 84031ec:	01ffc014 	movui	r7,65280
 84031f0:	000d883a 	mov	r6,zero
 84031f4:	180b883a 	mov	r5,r3
 84031f8:	8809883a 	mov	r4,r17
 84031fc:	84057780 	call	8405778 <vid_print_string_alpha>

	//disegno il campo expression
	RectCopy(&rc, &(pDeskInfo->expression));
 8403200:	e0bffd17 	ldw	r2,-12(fp)
 8403204:	10800c04 	addi	r2,r2,48
 8403208:	100b883a 	mov	r5,r2
 840320c:	e13ff804 	addi	r4,fp,-32
 8403210:	8402b6c0 	call	8402b6c <RectCopy>
	vid_draw_box (rc.left, rc.top, rc.right, rc.bottom, WHITE_24, DO_FILL, pDisplay);
 8403214:	e0fff817 	ldw	r3,-32(fp)
 8403218:	e13ffa17 	ldw	r4,-24(fp)
 840321c:	e17ff917 	ldw	r5,-28(fp)
 8403220:	e1bffb17 	ldw	r6,-20(fp)
 8403224:	e0bffc17 	ldw	r2,-16(fp)
 8403228:	d8800215 	stw	r2,8(sp)
 840322c:	00800044 	movi	r2,1
 8403230:	d8800115 	stw	r2,4(sp)
 8403234:	00804034 	movhi	r2,256
 8403238:	10bfffc4 	addi	r2,r2,-1
 840323c:	d8800015 	stw	r2,0(sp)
 8403240:	300f883a 	mov	r7,r6
 8403244:	280d883a 	mov	r6,r5
 8403248:	200b883a 	mov	r5,r4
 840324c:	1809883a 	mov	r4,r3
 8403250:	84042880 	call	8404288 <vid_draw_box>

	//disegno il campo result
	RectCopy(&rc, &(pDeskInfo->result));
 8403254:	e0bffd17 	ldw	r2,-12(fp)
 8403258:	10801004 	addi	r2,r2,64
 840325c:	100b883a 	mov	r5,r2
 8403260:	e13ff804 	addi	r4,fp,-32
 8403264:	8402b6c0 	call	8402b6c <RectCopy>
	vid_draw_box (rc.left, rc.top, rc.right, rc.bottom, WHITE_24, DO_FILL, pDisplay);
 8403268:	e0fff817 	ldw	r3,-32(fp)
 840326c:	e13ffa17 	ldw	r4,-24(fp)
 8403270:	e17ff917 	ldw	r5,-28(fp)
 8403274:	e1bffb17 	ldw	r6,-20(fp)
 8403278:	e0bffc17 	ldw	r2,-16(fp)
 840327c:	d8800215 	stw	r2,8(sp)
 8403280:	00800044 	movi	r2,1
 8403284:	d8800115 	stw	r2,4(sp)
 8403288:	00804034 	movhi	r2,256
 840328c:	10bfffc4 	addi	r2,r2,-1
 8403290:	d8800015 	stw	r2,0(sp)
 8403294:	300f883a 	mov	r7,r6
 8403298:	280d883a 	mov	r6,r5
 840329c:	200b883a 	mov	r5,r4
 84032a0:	1809883a 	mov	r4,r3
 84032a4:	84042880 	call	8404288 <vid_draw_box>

}
 84032a8:	0001883a 	nop
 84032ac:	e6fffe04 	addi	sp,fp,-8
 84032b0:	dfc00317 	ldw	ra,12(sp)
 84032b4:	df000217 	ldw	fp,8(sp)
 84032b8:	dc400117 	ldw	r17,4(sp)
 84032bc:	dc000017 	ldw	r16,0(sp)
 84032c0:	dec00404 	addi	sp,sp,16
 84032c4:	f800283a 	ret

084032c8 <GUI_ClearRect>:


void GUI_ClearRect(RECT_ID rect, DESK_INFO *pDeskInfo, alt_video_display *pDisplay){
 84032c8:	defff404 	addi	sp,sp,-48
 84032cc:	dfc00b15 	stw	ra,44(sp)
 84032d0:	df000a15 	stw	fp,40(sp)
 84032d4:	df000a04 	addi	fp,sp,40
 84032d8:	e13ffd15 	stw	r4,-12(fp)
 84032dc:	e17ffe15 	stw	r5,-8(fp)
 84032e0:	e1bfff15 	stw	r6,-4(fp)
    RECT rc;
    switch(rect){
 84032e4:	e0bffd17 	ldw	r2,-12(fp)
 84032e8:	10c000e0 	cmpeqi	r3,r2,3
 84032ec:	18004c1e 	bne	r3,zero,8403420 <GUI_ClearRect+0x158>
 84032f0:	10c00128 	cmpgeui	r3,r2,4
 84032f4:	1800031e 	bne	r3,zero,8403304 <GUI_ClearRect+0x3c>
 84032f8:	108000a0 	cmpeqi	r2,r2,2
 84032fc:	1000331e 	bne	r2,zero,84033cc <GUI_ClearRect+0x104>
    	case BTN_RESULT:
    		RectCopy(&rc, &pDeskInfo->result);
    		vid_draw_box (rc.left, rc.top, rc.right, rc.bottom, WHITE_24, DO_FILL, pDisplay);
    		break;
    	default:
    		break;
 8403300:	00005d06 	br	8403478 <GUI_ClearRect+0x1b0>
}


void GUI_ClearRect(RECT_ID rect, DESK_INFO *pDeskInfo, alt_video_display *pDisplay){
    RECT rc;
    switch(rect){
 8403304:	10c00160 	cmpeqi	r3,r2,5
 8403308:	1800031e 	bne	r3,zero,8403318 <GUI_ClearRect+0x50>
 840330c:	108001a0 	cmpeqi	r2,r2,6
 8403310:	1000181e 	bne	r2,zero,8403374 <GUI_ClearRect+0xac>
    	case BTN_RESULT:
    		RectCopy(&rc, &pDeskInfo->result);
    		vid_draw_box (rc.left, rc.top, rc.right, rc.bottom, WHITE_24, DO_FILL, pDisplay);
    		break;
    	default:
    		break;
 8403314:	00005806 	br	8403478 <GUI_ClearRect+0x1b0>

void GUI_ClearRect(RECT_ID rect, DESK_INFO *pDeskInfo, alt_video_display *pDisplay){
    RECT rc;
    switch(rect){
    	case RECT_PAINT:
    		RectCopy(&rc, &pDeskInfo->rcPaint);
 8403318:	e0bffe17 	ldw	r2,-8(fp)
 840331c:	100b883a 	mov	r5,r2
 8403320:	e13ff904 	addi	r4,fp,-28
 8403324:	8402b6c0 	call	8402b6c <RectCopy>
    		RectInflate(&rc, -1, -1);
 8403328:	01bfffc4 	movi	r6,-1
 840332c:	017fffc4 	movi	r5,-1
 8403330:	e13ff904 	addi	r4,fp,-28
 8403334:	8402a540 	call	8402a54 <RectInflate>
    		vid_draw_box (rc.left, rc.top, rc.right, rc.bottom, BLACK_24, DO_FILL, pDisplay);
 8403338:	e0fff917 	ldw	r3,-28(fp)
 840333c:	e13ffb17 	ldw	r4,-20(fp)
 8403340:	e17ffa17 	ldw	r5,-24(fp)
 8403344:	e1bffc17 	ldw	r6,-16(fp)
 8403348:	e0bfff17 	ldw	r2,-4(fp)
 840334c:	d8800215 	stw	r2,8(sp)
 8403350:	00800044 	movi	r2,1
 8403354:	d8800115 	stw	r2,4(sp)
 8403358:	d8000015 	stw	zero,0(sp)
 840335c:	300f883a 	mov	r7,r6
 8403360:	280d883a 	mov	r6,r5
 8403364:	200b883a 	mov	r5,r4
 8403368:	1809883a 	mov	r4,r3
 840336c:	84042880 	call	8404288 <vid_draw_box>
    		break;
 8403370:	00004106 	br	8403478 <GUI_ClearRect+0x1b0>
    	case RECT_EXP:
    		RectCopy(&rc, &pDeskInfo->expression);
 8403374:	e0bffe17 	ldw	r2,-8(fp)
 8403378:	10800c04 	addi	r2,r2,48
 840337c:	100b883a 	mov	r5,r2
 8403380:	e13ff904 	addi	r4,fp,-28
 8403384:	8402b6c0 	call	8402b6c <RectCopy>
    		vid_draw_box (rc.left, rc.top, rc.right, rc.bottom, WHITE_24, DO_FILL, pDisplay);
 8403388:	e0fff917 	ldw	r3,-28(fp)
 840338c:	e13ffb17 	ldw	r4,-20(fp)
 8403390:	e17ffa17 	ldw	r5,-24(fp)
 8403394:	e1bffc17 	ldw	r6,-16(fp)
 8403398:	e0bfff17 	ldw	r2,-4(fp)
 840339c:	d8800215 	stw	r2,8(sp)
 84033a0:	00800044 	movi	r2,1
 84033a4:	d8800115 	stw	r2,4(sp)
 84033a8:	00804034 	movhi	r2,256
 84033ac:	10bfffc4 	addi	r2,r2,-1
 84033b0:	d8800015 	stw	r2,0(sp)
 84033b4:	300f883a 	mov	r7,r6
 84033b8:	280d883a 	mov	r6,r5
 84033bc:	200b883a 	mov	r5,r4
 84033c0:	1809883a 	mov	r4,r3
 84033c4:	84042880 	call	8404288 <vid_draw_box>
    		break;
 84033c8:	00002b06 	br	8403478 <GUI_ClearRect+0x1b0>
    	case BTN_ENTER:
    		RectCopy(&rc, &pDeskInfo->enter);
 84033cc:	e0bffe17 	ldw	r2,-8(fp)
 84033d0:	10800804 	addi	r2,r2,32
 84033d4:	100b883a 	mov	r5,r2
 84033d8:	e13ff904 	addi	r4,fp,-28
 84033dc:	8402b6c0 	call	8402b6c <RectCopy>
    		vid_draw_box (rc.left, rc.top, rc.right, rc.bottom, GREEN, DO_FILL, pDisplay);
 84033e0:	e0fff917 	ldw	r3,-28(fp)
 84033e4:	e13ffb17 	ldw	r4,-20(fp)
 84033e8:	e17ffa17 	ldw	r5,-24(fp)
 84033ec:	e1bffc17 	ldw	r6,-16(fp)
 84033f0:	e0bfff17 	ldw	r2,-4(fp)
 84033f4:	d8800215 	stw	r2,8(sp)
 84033f8:	00800044 	movi	r2,1
 84033fc:	d8800115 	stw	r2,4(sp)
 8403400:	00bfc014 	movui	r2,65280
 8403404:	d8800015 	stw	r2,0(sp)
 8403408:	300f883a 	mov	r7,r6
 840340c:	280d883a 	mov	r6,r5
 8403410:	200b883a 	mov	r5,r4
 8403414:	1809883a 	mov	r4,r3
 8403418:	84042880 	call	8404288 <vid_draw_box>
    		break;
 840341c:	00001606 	br	8403478 <GUI_ClearRect+0x1b0>
    	case BTN_RESULT:
    		RectCopy(&rc, &pDeskInfo->result);
 8403420:	e0bffe17 	ldw	r2,-8(fp)
 8403424:	10801004 	addi	r2,r2,64
 8403428:	100b883a 	mov	r5,r2
 840342c:	e13ff904 	addi	r4,fp,-28
 8403430:	8402b6c0 	call	8402b6c <RectCopy>
    		vid_draw_box (rc.left, rc.top, rc.right, rc.bottom, WHITE_24, DO_FILL, pDisplay);
 8403434:	e0fff917 	ldw	r3,-28(fp)
 8403438:	e13ffb17 	ldw	r4,-20(fp)
 840343c:	e17ffa17 	ldw	r5,-24(fp)
 8403440:	e1bffc17 	ldw	r6,-16(fp)
 8403444:	e0bfff17 	ldw	r2,-4(fp)
 8403448:	d8800215 	stw	r2,8(sp)
 840344c:	00800044 	movi	r2,1
 8403450:	d8800115 	stw	r2,4(sp)
 8403454:	00804034 	movhi	r2,256
 8403458:	10bfffc4 	addi	r2,r2,-1
 840345c:	d8800015 	stw	r2,0(sp)
 8403460:	300f883a 	mov	r7,r6
 8403464:	280d883a 	mov	r6,r5
 8403468:	200b883a 	mov	r5,r4
 840346c:	1809883a 	mov	r4,r3
 8403470:	84042880 	call	8404288 <vid_draw_box>
    		break;
 8403474:	0001883a 	nop
    	default:
    		break;
    }
}
 8403478:	0001883a 	nop
 840347c:	e037883a 	mov	sp,fp
 8403480:	dfc00117 	ldw	ra,4(sp)
 8403484:	df000017 	ldw	fp,0(sp)
 8403488:	dec00204 	addi	sp,sp,8
 840348c:	f800283a 	ret

08403490 <Print>:

void Print (RECT_ID rect, DESK_INFO desk, char string[]){
 8403490:	defff804 	addi	sp,sp,-32
 8403494:	dfc00415 	stw	ra,16(sp)
 8403498:	df000315 	stw	fp,12(sp)
 840349c:	df000304 	addi	fp,sp,12
 84034a0:	e13fff15 	stw	r4,-4(fp)
 84034a4:	e1400215 	stw	r5,8(fp)
 84034a8:	e1800315 	stw	r6,12(fp)
 84034ac:	e1c00415 	stw	r7,16(fp)
	switch(rect){
 84034b0:	e0bfff17 	ldw	r2,-4(fp)
 84034b4:	10c00120 	cmpeqi	r3,r2,4
 84034b8:	1800611e 	bne	r3,zero,8403640 <Print+0x1b0>
 84034bc:	10c00168 	cmpgeui	r3,r2,5
 84034c0:	1800031e 	bne	r3,zero,84034d0 <Print+0x40>
 84034c4:	108000a0 	cmpeqi	r2,r2,2
 84034c8:	1000061e 	bne	r2,zero,84034e4 <Print+0x54>
			break;
		case BTN_NEWGAME:
			vid_print_string_alpha(desk.expression.left+10, desk.expression.top+9, BLACK_24, YELLOW_24, tahomabold_20, string);
			break;
		default:
			break;
 84034cc:	00006c06 	br	8403680 <Print+0x1f0>
    		break;
    }
}

void Print (RECT_ID rect, DESK_INFO desk, char string[]){
	switch(rect){
 84034d0:	10c00160 	cmpeqi	r3,r2,5
 84034d4:	1800121e 	bne	r3,zero,8403520 <Print+0x90>
 84034d8:	108001a0 	cmpeqi	r2,r2,6
 84034dc:	1000481e 	bne	r2,zero,8403600 <Print+0x170>
			break;
		case BTN_NEWGAME:
			vid_print_string_alpha(desk.expression.left+10, desk.expression.top+9, BLACK_24, YELLOW_24, tahomabold_20, string);
			break;
		default:
			break;
 84034e0:	00006706 	br	8403680 <Print+0x1f0>
}

void Print (RECT_ID rect, DESK_INFO desk, char string[]){
	switch(rect){
		case BTN_ENTER:
			vid_print_string_alpha(desk.enter.left+30, desk.enter.top+9, BLACK_24, GREEN, tahomabold_20, string);
 84034e4:	e0800a17 	ldw	r2,40(fp)
 84034e8:	10c00784 	addi	r3,r2,30
 84034ec:	e0800c17 	ldw	r2,48(fp)
 84034f0:	11000244 	addi	r4,r2,9
 84034f4:	e0801617 	ldw	r2,88(fp)
 84034f8:	d8800115 	stw	r2,4(sp)
 84034fc:	00821134 	movhi	r2,2116
 8403500:	10a3a804 	addi	r2,r2,-29024
 8403504:	d8800015 	stw	r2,0(sp)
 8403508:	01ffc014 	movui	r7,65280
 840350c:	000d883a 	mov	r6,zero
 8403510:	200b883a 	mov	r5,r4
 8403514:	1809883a 	mov	r4,r3
 8403518:	84057780 	call	8405778 <vid_print_string_alpha>
			break;
 840351c:	00005806 	br	8403680 <Print+0x1f0>
		case RECT_PAINT:
			if(strcmp(string, "Nope")==0)
 8403520:	014210b4 	movhi	r5,2114
 8403524:	297c2a04 	addi	r5,r5,-3928
 8403528:	e1001617 	ldw	r4,88(fp)
 840352c:	840a3100 	call	840a310 <strcmp>
 8403530:	10000f1e 	bne	r2,zero,8403570 <Print+0xe0>
				vid_print_string_alpha(desk.rcPaint.left+75, desk.rcPaint.top+80, RED_24, BLACK_24, tahomabold_32, string);
 8403534:	e0800217 	ldw	r2,8(fp)
 8403538:	10c012c4 	addi	r3,r2,75
 840353c:	e0800417 	ldw	r2,16(fp)
 8403540:	11001404 	addi	r4,r2,80
 8403544:	e0801617 	ldw	r2,88(fp)
 8403548:	d8800115 	stw	r2,4(sp)
 840354c:	00821134 	movhi	r2,2116
 8403550:	10a69804 	addi	r2,r2,-26016
 8403554:	d8800015 	stw	r2,0(sp)
 8403558:	000f883a 	mov	r7,zero
 840355c:	01803ff4 	movhi	r6,255
 8403560:	200b883a 	mov	r5,r4
 8403564:	1809883a 	mov	r4,r3
 8403568:	84057780 	call	8405778 <vid_print_string_alpha>
			else if(strcmp(string, "Nice")==0)
				vid_print_string_alpha(desk.rcPaint.left+75, desk.rcPaint.top+80, GREEN, BLACK_24, tahomabold_32, string);
			else
				vid_print_string_alpha(desk.rcPaint.left+30, desk.rcPaint.top+80, PINK_24, BLACK_24, tahomabold_32, string);
			break;
 840356c:	00004406 	br	8403680 <Print+0x1f0>
			vid_print_string_alpha(desk.enter.left+30, desk.enter.top+9, BLACK_24, GREEN, tahomabold_20, string);
			break;
		case RECT_PAINT:
			if(strcmp(string, "Nope")==0)
				vid_print_string_alpha(desk.rcPaint.left+75, desk.rcPaint.top+80, RED_24, BLACK_24, tahomabold_32, string);
			else if(strcmp(string, "Nice")==0)
 8403570:	014210b4 	movhi	r5,2114
 8403574:	297c2c04 	addi	r5,r5,-3920
 8403578:	e1001617 	ldw	r4,88(fp)
 840357c:	840a3100 	call	840a310 <strcmp>
 8403580:	10000f1e 	bne	r2,zero,84035c0 <Print+0x130>
				vid_print_string_alpha(desk.rcPaint.left+75, desk.rcPaint.top+80, GREEN, BLACK_24, tahomabold_32, string);
 8403584:	e0800217 	ldw	r2,8(fp)
 8403588:	10c012c4 	addi	r3,r2,75
 840358c:	e0800417 	ldw	r2,16(fp)
 8403590:	11001404 	addi	r4,r2,80
 8403594:	e0801617 	ldw	r2,88(fp)
 8403598:	d8800115 	stw	r2,4(sp)
 840359c:	00821134 	movhi	r2,2116
 84035a0:	10a69804 	addi	r2,r2,-26016
 84035a4:	d8800015 	stw	r2,0(sp)
 84035a8:	000f883a 	mov	r7,zero
 84035ac:	01bfc014 	movui	r6,65280
 84035b0:	200b883a 	mov	r5,r4
 84035b4:	1809883a 	mov	r4,r3
 84035b8:	84057780 	call	8405778 <vid_print_string_alpha>
			else
				vid_print_string_alpha(desk.rcPaint.left+30, desk.rcPaint.top+80, PINK_24, BLACK_24, tahomabold_32, string);
			break;
 84035bc:	00003006 	br	8403680 <Print+0x1f0>
			if(strcmp(string, "Nope")==0)
				vid_print_string_alpha(desk.rcPaint.left+75, desk.rcPaint.top+80, RED_24, BLACK_24, tahomabold_32, string);
			else if(strcmp(string, "Nice")==0)
				vid_print_string_alpha(desk.rcPaint.left+75, desk.rcPaint.top+80, GREEN, BLACK_24, tahomabold_32, string);
			else
				vid_print_string_alpha(desk.rcPaint.left+30, desk.rcPaint.top+80, PINK_24, BLACK_24, tahomabold_32, string);
 84035c0:	e0800217 	ldw	r2,8(fp)
 84035c4:	10c00784 	addi	r3,r2,30
 84035c8:	e0800417 	ldw	r2,16(fp)
 84035cc:	11001404 	addi	r4,r2,80
 84035d0:	e0801617 	ldw	r2,88(fp)
 84035d4:	d8800115 	stw	r2,4(sp)
 84035d8:	00821134 	movhi	r2,2116
 84035dc:	10a69804 	addi	r2,r2,-26016
 84035e0:	d8800015 	stw	r2,0(sp)
 84035e4:	000f883a 	mov	r7,zero
 84035e8:	01804034 	movhi	r6,256
 84035ec:	31b032c4 	addi	r6,r6,-16181
 84035f0:	200b883a 	mov	r5,r4
 84035f4:	1809883a 	mov	r4,r3
 84035f8:	84057780 	call	8405778 <vid_print_string_alpha>
			break;
 84035fc:	00002006 	br	8403680 <Print+0x1f0>
		case RECT_EXP:
			vid_print_string_alpha(desk.expression.left+30, desk.expression.top+9, BLACK_24, WHITE_24, tahomabold_20, string);
 8403600:	e0800e17 	ldw	r2,56(fp)
 8403604:	10c00784 	addi	r3,r2,30
 8403608:	e0801017 	ldw	r2,64(fp)
 840360c:	11000244 	addi	r4,r2,9
 8403610:	e0801617 	ldw	r2,88(fp)
 8403614:	d8800115 	stw	r2,4(sp)
 8403618:	00821134 	movhi	r2,2116
 840361c:	10a3a804 	addi	r2,r2,-29024
 8403620:	d8800015 	stw	r2,0(sp)
 8403624:	01c04034 	movhi	r7,256
 8403628:	39ffffc4 	addi	r7,r7,-1
 840362c:	000d883a 	mov	r6,zero
 8403630:	200b883a 	mov	r5,r4
 8403634:	1809883a 	mov	r4,r3
 8403638:	84057780 	call	8405778 <vid_print_string_alpha>
			break;
 840363c:	00001006 	br	8403680 <Print+0x1f0>
		case BTN_NEWGAME:
			vid_print_string_alpha(desk.expression.left+10, desk.expression.top+9, BLACK_24, YELLOW_24, tahomabold_20, string);
 8403640:	e0800e17 	ldw	r2,56(fp)
 8403644:	10c00284 	addi	r3,r2,10
 8403648:	e0801017 	ldw	r2,64(fp)
 840364c:	11000244 	addi	r4,r2,9
 8403650:	e0801617 	ldw	r2,88(fp)
 8403654:	d8800115 	stw	r2,4(sp)
 8403658:	00821134 	movhi	r2,2116
 840365c:	10a3a804 	addi	r2,r2,-29024
 8403660:	d8800015 	stw	r2,0(sp)
 8403664:	01c04034 	movhi	r7,256
 8403668:	39ffc004 	addi	r7,r7,-256
 840366c:	000d883a 	mov	r6,zero
 8403670:	200b883a 	mov	r5,r4
 8403674:	1809883a 	mov	r4,r3
 8403678:	84057780 	call	8405778 <vid_print_string_alpha>
			break;
 840367c:	0001883a 	nop
		default:
			break;
	}
}
 8403680:	0001883a 	nop
 8403684:	e037883a 	mov	sp,fp
 8403688:	dfc00117 	ldw	ra,4(sp)
 840368c:	df000017 	ldw	fp,0(sp)
 8403690:	dec00504 	addi	sp,sp,20
 8403694:	f800283a 	ret

08403698 <Update_img>:

void Update_img(POINT pt, bool* img, DESK_INFO desk){
 8403698:	defff504 	addi	sp,sp,-44
 840369c:	df000915 	stw	fp,36(sp)
 84036a0:	df000904 	addi	fp,sp,36
 84036a4:	e13ffd15 	stw	r4,-12(fp)
 84036a8:	e17ffe15 	stw	r5,-8(fp)
 84036ac:	e1bfff15 	stw	r6,-4(fp)
 84036b0:	e1c00115 	stw	r7,4(fp)
	int x_start = pt.x-DOT_SIZE;
 84036b4:	e0bffd17 	ldw	r2,-12(fp)
 84036b8:	10bffc44 	addi	r2,r2,-15
 84036bc:	e0bff915 	stw	r2,-28(fp)
	int y_start = pt.y-DOT_SIZE;
 84036c0:	e0bffe17 	ldw	r2,-8(fp)
 84036c4:	10bffc44 	addi	r2,r2,-15
 84036c8:	e0bffa15 	stw	r2,-24(fp)
	int x_min = desk.rcPaint.left+1;		//9
 84036cc:	e0800117 	ldw	r2,4(fp)
 84036d0:	10800044 	addi	r2,r2,1
 84036d4:	e0bffb15 	stw	r2,-20(fp)
	int y_min = desk.rcPaint.top+1;		//49
 84036d8:	e0800317 	ldw	r2,12(fp)
 84036dc:	10800044 	addi	r2,r2,1
 84036e0:	e0bffc15 	stw	r2,-16(fp)

	for(int y=y_start; y<y_start+2*DOT_SIZE; y++)			//"disegno" un quadrato di lato 30 intorno al punto toccato sul touchscreen
 84036e4:	e0bffa17 	ldw	r2,-24(fp)
 84036e8:	e0bff715 	stw	r2,-36(fp)
 84036ec:	00002206 	br	8403778 <Update_img+0xe0>
		for(int x=x_start; x<x_start+2*DOT_SIZE; x++){
 84036f0:	e0bff917 	ldw	r2,-28(fp)
 84036f4:	e0bff815 	stw	r2,-32(fp)
 84036f8:	00001806 	br	840375c <Update_img+0xc4>
			if(x >= x_min && y >= y_min)					//per evitare numeri negativi
 84036fc:	e0fff817 	ldw	r3,-32(fp)
 8403700:	e0bffb17 	ldw	r2,-20(fp)
 8403704:	18801216 	blt	r3,r2,8403750 <Update_img+0xb8>
 8403708:	e0fff717 	ldw	r3,-36(fp)
 840370c:	e0bffc17 	ldw	r2,-16(fp)
 8403710:	18800f16 	blt	r3,r2,8403750 <Update_img+0xb8>
				img[(x-x_min)+DRAW_WIDTH*(y-y_min)]=1;		//aggiorno l'immagine tenendo conto dei bordi di rcPaint
 8403714:	e0fff817 	ldw	r3,-32(fp)
 8403718:	e0bffb17 	ldw	r2,-20(fp)
 840371c:	1887c83a 	sub	r3,r3,r2
 8403720:	e13ff717 	ldw	r4,-36(fp)
 8403724:	e0bffc17 	ldw	r2,-16(fp)
 8403728:	2085c83a 	sub	r2,r4,r2
 840372c:	10803824 	muli	r2,r2,224
 8403730:	1885883a 	add	r2,r3,r2
 8403734:	1085883a 	add	r2,r2,r2
 8403738:	1085883a 	add	r2,r2,r2
 840373c:	1007883a 	mov	r3,r2
 8403740:	e0bfff17 	ldw	r2,-4(fp)
 8403744:	10c5883a 	add	r2,r2,r3
 8403748:	00c00044 	movi	r3,1
 840374c:	10c00015 	stw	r3,0(r2)
	int y_start = pt.y-DOT_SIZE;
	int x_min = desk.rcPaint.left+1;		//9
	int y_min = desk.rcPaint.top+1;		//49

	for(int y=y_start; y<y_start+2*DOT_SIZE; y++)			//"disegno" un quadrato di lato 30 intorno al punto toccato sul touchscreen
		for(int x=x_start; x<x_start+2*DOT_SIZE; x++){
 8403750:	e0bff817 	ldw	r2,-32(fp)
 8403754:	10800044 	addi	r2,r2,1
 8403758:	e0bff815 	stw	r2,-32(fp)
 840375c:	e0bff917 	ldw	r2,-28(fp)
 8403760:	10800784 	addi	r2,r2,30
 8403764:	e0fff817 	ldw	r3,-32(fp)
 8403768:	18bfe416 	blt	r3,r2,84036fc <__alt_data_end+0xfc4036fc>
	int x_start = pt.x-DOT_SIZE;
	int y_start = pt.y-DOT_SIZE;
	int x_min = desk.rcPaint.left+1;		//9
	int y_min = desk.rcPaint.top+1;		//49

	for(int y=y_start; y<y_start+2*DOT_SIZE; y++)			//"disegno" un quadrato di lato 30 intorno al punto toccato sul touchscreen
 840376c:	e0bff717 	ldw	r2,-36(fp)
 8403770:	10800044 	addi	r2,r2,1
 8403774:	e0bff715 	stw	r2,-36(fp)
 8403778:	e0bffa17 	ldw	r2,-24(fp)
 840377c:	10800784 	addi	r2,r2,30
 8403780:	e0fff717 	ldw	r3,-36(fp)
 8403784:	18bfda16 	blt	r3,r2,84036f0 <__alt_data_end+0xfc4036f0>
		for(int x=x_start; x<x_start+2*DOT_SIZE; x++){
			if(x >= x_min && y >= y_min)					//per evitare numeri negativi
				img[(x-x_min)+DRAW_WIDTH*(y-y_min)]=1;		//aggiorno l'immagine tenendo conto dei bordi di rcPaint
		}
}
 8403788:	0001883a 	nop
 840378c:	e037883a 	mov	sp,fp
 8403790:	df000017 	ldw	fp,0(sp)
 8403794:	dec00204 	addi	sp,sp,8
 8403798:	f800283a 	ret

0840379c <Resize_image>:

void Resize_image(bool* img, MNIST_Image* mnist_img){
 840379c:	defff704 	addi	sp,sp,-36
 84037a0:	dfc00815 	stw	ra,32(sp)
 84037a4:	df000715 	stw	fp,28(sp)
 84037a8:	df000704 	addi	fp,sp,28
 84037ac:	e13ffe15 	stw	r4,-8(fp)
 84037b0:	e17fff15 	stw	r5,-4(fp)
	int row=0;
 84037b4:	e03ffc15 	stw	zero,-16(fp)
	int column=0;
 84037b8:	e03ffd15 	stw	zero,-12(fp)

	for(int k=0; k<28*28; k++)
 84037bc:	e03ff915 	stw	zero,-28(fp)
 84037c0:	00000706 	br	84037e0 <Resize_image+0x44>
		mnist_img->pixel[k]=0;
 84037c4:	e0ffff17 	ldw	r3,-4(fp)
 84037c8:	e0bff917 	ldw	r2,-28(fp)
 84037cc:	1885883a 	add	r2,r3,r2
 84037d0:	10000005 	stb	zero,0(r2)

void Resize_image(bool* img, MNIST_Image* mnist_img){
	int row=0;
	int column=0;

	for(int k=0; k<28*28; k++)
 84037d4:	e0bff917 	ldw	r2,-28(fp)
 84037d8:	10800044 	addi	r2,r2,1
 84037dc:	e0bff915 	stw	r2,-28(fp)
 84037e0:	e0bff917 	ldw	r2,-28(fp)
 84037e4:	1080c410 	cmplti	r2,r2,784
 84037e8:	103ff61e 	bne	r2,zero,84037c4 <__alt_data_end+0xfc4037c4>
		mnist_img->pixel[k]=0;

	for(int i=0; i<224*224; i++){
 84037ec:	e03ffa15 	stw	zero,-24(fp)
 84037f0:	00002906 	br	8403898 <Resize_image+0xfc>
		row=i/224;
 84037f4:	e0bffa17 	ldw	r2,-24(fp)
 84037f8:	01403804 	movi	r5,224
 84037fc:	1009883a 	mov	r4,r2
 8403800:	8406fac0 	call	8406fac <__divsi3>
 8403804:	e0bffc15 	stw	r2,-16(fp)
		column=i%224;
 8403808:	e0bffa17 	ldw	r2,-24(fp)
 840380c:	01403804 	movi	r5,224
 8403810:	1009883a 	mov	r4,r2
 8403814:	84070300 	call	8407030 <__modsi3>
 8403818:	e0bffd15 	stw	r2,-12(fp)
		mnist_img->pixel[(column/8)+(row/8)*28] += (uint8_t)img[i];
 840381c:	e0bffd17 	ldw	r2,-12(fp)
 8403820:	1000010e 	bge	r2,zero,8403828 <Resize_image+0x8c>
 8403824:	108001c4 	addi	r2,r2,7
 8403828:	1005d0fa 	srai	r2,r2,3
 840382c:	1007883a 	mov	r3,r2
 8403830:	e0bffc17 	ldw	r2,-16(fp)
 8403834:	1000010e 	bge	r2,zero,840383c <Resize_image+0xa0>
 8403838:	108001c4 	addi	r2,r2,7
 840383c:	1005d0fa 	srai	r2,r2,3
 8403840:	11000724 	muli	r4,r2,28
 8403844:	1909883a 	add	r4,r3,r4
 8403848:	10800724 	muli	r2,r2,28
 840384c:	1885883a 	add	r2,r3,r2
 8403850:	e0ffff17 	ldw	r3,-4(fp)
 8403854:	1885883a 	add	r2,r3,r2
 8403858:	10c00003 	ldbu	r3,0(r2)
 840385c:	e0bffa17 	ldw	r2,-24(fp)
 8403860:	1085883a 	add	r2,r2,r2
 8403864:	1085883a 	add	r2,r2,r2
 8403868:	100b883a 	mov	r5,r2
 840386c:	e0bffe17 	ldw	r2,-8(fp)
 8403870:	1145883a 	add	r2,r2,r5
 8403874:	10800017 	ldw	r2,0(r2)
 8403878:	1885883a 	add	r2,r3,r2
 840387c:	1007883a 	mov	r3,r2
 8403880:	e0bfff17 	ldw	r2,-4(fp)
 8403884:	1105883a 	add	r2,r2,r4
 8403888:	10c00005 	stb	r3,0(r2)
	int column=0;

	for(int k=0; k<28*28; k++)
		mnist_img->pixel[k]=0;

	for(int i=0; i<224*224; i++){
 840388c:	e0bffa17 	ldw	r2,-24(fp)
 8403890:	10800044 	addi	r2,r2,1
 8403894:	e0bffa15 	stw	r2,-24(fp)
 8403898:	e0bffa17 	ldw	r2,-24(fp)
 840389c:	00f0ffd4 	movui	r3,50175
 84038a0:	18bfd40e 	bge	r3,r2,84037f4 <__alt_data_end+0xfc4037f4>
		row=i/224;
		column=i%224;
		mnist_img->pixel[(column/8)+(row/8)*28] += (uint8_t)img[i];
	}
	for(int j=0; j<28*28; j++){
 84038a4:	e03ffb15 	stw	zero,-20(fp)
 84038a8:	00001f06 	br	8403928 <Resize_image+0x18c>
		if(j%28 == 0)
 84038ac:	e0bffb17 	ldw	r2,-20(fp)
 84038b0:	01400704 	movi	r5,28
 84038b4:	1009883a 	mov	r4,r2
 84038b8:	84070300 	call	8407030 <__modsi3>
 84038bc:	1000021e 	bne	r2,zero,84038c8 <Resize_image+0x12c>
			printf("\n");
 84038c0:	01000284 	movi	r4,10
 84038c4:	840a1540 	call	840a154 <putchar>
		if(mnist_img->pixel[j] >= 32){
 84038c8:	e0ffff17 	ldw	r3,-4(fp)
 84038cc:	e0bffb17 	ldw	r2,-20(fp)
 84038d0:	1885883a 	add	r2,r3,r2
 84038d4:	10800003 	ldbu	r2,0(r2)
 84038d8:	10803fcc 	andi	r2,r2,255
 84038dc:	10800830 	cmpltui	r2,r2,32
 84038e0:	1000081e 	bne	r2,zero,8403904 <Resize_image+0x168>
			mnist_img->pixel[j]=1;
 84038e4:	e0ffff17 	ldw	r3,-4(fp)
 84038e8:	e0bffb17 	ldw	r2,-20(fp)
 84038ec:	1885883a 	add	r2,r3,r2
 84038f0:	00c00044 	movi	r3,1
 84038f4:	10c00005 	stb	r3,0(r2)
			printf("x");
 84038f8:	01001e04 	movi	r4,120
 84038fc:	840a1540 	call	840a154 <putchar>
 8403900:	00000606 	br	840391c <Resize_image+0x180>
		}
		else{
			mnist_img->pixel[j]=0;
 8403904:	e0ffff17 	ldw	r3,-4(fp)
 8403908:	e0bffb17 	ldw	r2,-20(fp)
 840390c:	1885883a 	add	r2,r3,r2
 8403910:	10000005 	stb	zero,0(r2)
			printf("o");
 8403914:	01001bc4 	movi	r4,111
 8403918:	840a1540 	call	840a154 <putchar>
	for(int i=0; i<224*224; i++){
		row=i/224;
		column=i%224;
		mnist_img->pixel[(column/8)+(row/8)*28] += (uint8_t)img[i];
	}
	for(int j=0; j<28*28; j++){
 840391c:	e0bffb17 	ldw	r2,-20(fp)
 8403920:	10800044 	addi	r2,r2,1
 8403924:	e0bffb15 	stw	r2,-20(fp)
 8403928:	e0bffb17 	ldw	r2,-20(fp)
 840392c:	1080c410 	cmplti	r2,r2,784
 8403930:	103fde1e 	bne	r2,zero,84038ac <__alt_data_end+0xfc4038ac>
		else{
			mnist_img->pixel[j]=0;
			printf("o");
		}
	}
}
 8403934:	0001883a 	nop
 8403938:	e037883a 	mov	sp,fp
 840393c:	dfc00117 	ldw	ra,4(sp)
 8403940:	df000017 	ldw	fp,0(sp)
 8403944:	dec00204 	addi	sp,sp,8
 8403948:	f800283a 	ret

0840394c <GUI>:

void GUI(alt_video_display *pDisplay, DESK_INFO *DeskInfo, TOUCH_HANDLE *pTouch){
 840394c:	defffb04 	addi	sp,sp,-20
 8403950:	dfc00415 	stw	ra,16(sp)
 8403954:	df000315 	stw	fp,12(sp)
 8403958:	df000304 	addi	fp,sp,12
 840395c:	e13ffd15 	stw	r4,-12(fp)
 8403960:	e17ffe15 	stw	r5,-8(fp)
 8403964:	e1bfff15 	stw	r6,-4(fp)
    //const int nDotSize = DOT_SIZE;

    // Schermata iniziale
	vid_clean_screen(pDisplay, BLACK_24);
 8403968:	000b883a 	mov	r5,zero
 840396c:	e13ffd17 	ldw	r4,-12(fp)
 8403970:	8403f3c0 	call	8403f3c <vid_clean_screen>
	GUI_ShowWelcome(pDisplay);
 8403974:	e13ffd17 	ldw	r4,-12(fp)
 8403978:	8402d380 	call	8402d38 <GUI_ShowWelcome>
	usleep(1*1000*1000);
 840397c:	010003f4 	movhi	r4,15
 8403980:	21109004 	addi	r4,r4,16960
 8403984:	840d82c0 	call	840d82c <usleep>

    // clean screen
    vid_clean_screen(pDisplay, BLACK_24);
 8403988:	000b883a 	mov	r5,zero
 840398c:	e13ffd17 	ldw	r4,-12(fp)
 8403990:	8403f3c0 	call	8403f3c <vid_clean_screen>

    GUI_DeskInit(pDisplay, DeskInfo);		//imposta i vari rettangoli
 8403994:	e17ffe17 	ldw	r5,-8(fp)
 8403998:	e13ffd17 	ldw	r4,-12(fp)
 840399c:	8402db40 	call	8402db4 <GUI_DeskInit>
    GUI_DeskDraw(pDisplay, DeskInfo);		//colora e riempie tutto
 84039a0:	e17ffe17 	ldw	r5,-8(fp)
 84039a4:	e13ffd17 	ldw	r4,-12(fp)
 84039a8:	84030480 	call	8403048 <GUI_DeskDraw>

}
 84039ac:	0001883a 	nop
 84039b0:	e037883a 	mov	sp,fp
 84039b4:	dfc00117 	ldw	ra,4(sp)
 84039b8:	df000017 	ldw	fp,0(sp)
 84039bc:	dec00204 	addi	sp,sp,8
 84039c0:	f800283a 	ret

084039c4 <ShowHelp>:

void ShowHelp (alt_video_display *Display, DESK_INFO *DeskInfo, TOUCH_HANDLE *pTouch){
 84039c4:	defff904 	addi	sp,sp,-28
 84039c8:	dfc00615 	stw	ra,24(sp)
 84039cc:	df000515 	stw	fp,20(sp)
 84039d0:	df000504 	addi	fp,sp,20
 84039d4:	e13ffd15 	stw	r4,-12(fp)
 84039d8:	e17ffe15 	stw	r5,-8(fp)
 84039dc:	e1bfff15 	stw	r6,-4(fp)
	vid_clean_screen(Display, BLUE_24);
 84039e0:	01403fc4 	movi	r5,255
 84039e4:	e13ffd17 	ldw	r4,-12(fp)
 84039e8:	8403f3c0 	call	8403f3c <vid_clean_screen>
	vid_print_string_alpha(30, 10, WHITE_24, BLUE_24, tahomabold_20, "How to...");
 84039ec:	008210b4 	movhi	r2,2114
 84039f0:	10bc2e04 	addi	r2,r2,-3912
 84039f4:	d8800115 	stw	r2,4(sp)
 84039f8:	00821134 	movhi	r2,2116
 84039fc:	10a3a804 	addi	r2,r2,-29024
 8403a00:	d8800015 	stw	r2,0(sp)
 8403a04:	01c03fc4 	movi	r7,255
 8403a08:	01804034 	movhi	r6,256
 8403a0c:	31bfffc4 	addi	r6,r6,-1
 8403a10:	01400284 	movi	r5,10
 8403a14:	01000784 	movi	r4,30
 8403a18:	84057780 	call	8405778 <vid_print_string_alpha>
	vid_print_string_alpha(30, 40, WHITE_24, BLUE_24, tahomabold_20, ">Draw digit");
 8403a1c:	008210b4 	movhi	r2,2114
 8403a20:	10bc3104 	addi	r2,r2,-3900
 8403a24:	d8800115 	stw	r2,4(sp)
 8403a28:	00821134 	movhi	r2,2116
 8403a2c:	10a3a804 	addi	r2,r2,-29024
 8403a30:	d8800015 	stw	r2,0(sp)
 8403a34:	01c03fc4 	movi	r7,255
 8403a38:	01804034 	movhi	r6,256
 8403a3c:	31bfffc4 	addi	r6,r6,-1
 8403a40:	01400a04 	movi	r5,40
 8403a44:	01000784 	movi	r4,30
 8403a48:	84057780 	call	8405778 <vid_print_string_alpha>
	vid_print_string_alpha(30, 70, WHITE_24, BLUE_24, tahomabold_20, ">Enter to check");
 8403a4c:	008210b4 	movhi	r2,2114
 8403a50:	10bc3404 	addi	r2,r2,-3888
 8403a54:	d8800115 	stw	r2,4(sp)
 8403a58:	00821134 	movhi	r2,2116
 8403a5c:	10a3a804 	addi	r2,r2,-29024
 8403a60:	d8800015 	stw	r2,0(sp)
 8403a64:	01c03fc4 	movi	r7,255
 8403a68:	01804034 	movhi	r6,256
 8403a6c:	31bfffc4 	addi	r6,r6,-1
 8403a70:	01401184 	movi	r5,70
 8403a74:	01000784 	movi	r4,30
 8403a78:	84057780 	call	8405778 <vid_print_string_alpha>
	vid_print_string_alpha(30, 100, WHITE_24, BLUE_24, tahomabold_20, "  clear otherwise");
 8403a7c:	008210b4 	movhi	r2,2114
 8403a80:	10bc3804 	addi	r2,r2,-3872
 8403a84:	d8800115 	stw	r2,4(sp)
 8403a88:	00821134 	movhi	r2,2116
 8403a8c:	10a3a804 	addi	r2,r2,-29024
 8403a90:	d8800015 	stw	r2,0(sp)
 8403a94:	01c03fc4 	movi	r7,255
 8403a98:	01804034 	movhi	r6,256
 8403a9c:	31bfffc4 	addi	r6,r6,-1
 8403aa0:	01401904 	movi	r5,100
 8403aa4:	01000784 	movi	r4,30
 8403aa8:	84057780 	call	8405778 <vid_print_string_alpha>
	vid_print_string_alpha(30, 130, WHITE_24, BLUE_24, tahomabold_20, ">Touch result");
 8403aac:	008210b4 	movhi	r2,2114
 8403ab0:	10bc3d04 	addi	r2,r2,-3852
 8403ab4:	d8800115 	stw	r2,4(sp)
 8403ab8:	00821134 	movhi	r2,2116
 8403abc:	10a3a804 	addi	r2,r2,-29024
 8403ac0:	d8800015 	stw	r2,0(sp)
 8403ac4:	01c03fc4 	movi	r7,255
 8403ac8:	01804034 	movhi	r6,256
 8403acc:	31bfffc4 	addi	r6,r6,-1
 8403ad0:	01402084 	movi	r5,130
 8403ad4:	01000784 	movi	r4,30
 8403ad8:	84057780 	call	8405778 <vid_print_string_alpha>
	vid_print_string_alpha(30, 160, WHITE_24, BLUE_24, tahomabold_20, "  to validate digit");
 8403adc:	008210b4 	movhi	r2,2114
 8403ae0:	10bc4104 	addi	r2,r2,-3836
 8403ae4:	d8800115 	stw	r2,4(sp)
 8403ae8:	00821134 	movhi	r2,2116
 8403aec:	10a3a804 	addi	r2,r2,-29024
 8403af0:	d8800015 	stw	r2,0(sp)
 8403af4:	01c03fc4 	movi	r7,255
 8403af8:	01804034 	movhi	r6,256
 8403afc:	31bfffc4 	addi	r6,r6,-1
 8403b00:	01402804 	movi	r5,160
 8403b04:	01000784 	movi	r4,30
 8403b08:	84057780 	call	8405778 <vid_print_string_alpha>
	vid_print_string_alpha(30, 190, WHITE_24, BLUE_24, tahomabold_20, "  clear otherwise");
 8403b0c:	008210b4 	movhi	r2,2114
 8403b10:	10bc3804 	addi	r2,r2,-3872
 8403b14:	d8800115 	stw	r2,4(sp)
 8403b18:	00821134 	movhi	r2,2116
 8403b1c:	10a3a804 	addi	r2,r2,-29024
 8403b20:	d8800015 	stw	r2,0(sp)
 8403b24:	01c03fc4 	movi	r7,255
 8403b28:	01804034 	movhi	r6,256
 8403b2c:	31bfffc4 	addi	r6,r6,-1
 8403b30:	01402f84 	movi	r5,190
 8403b34:	01000784 	movi	r4,30
 8403b38:	84057780 	call	8405778 <vid_print_string_alpha>
	vid_print_string_alpha(30, 220, WHITE_24, BLUE_24, tahomabold_20, ">Done to confirm");
 8403b3c:	008210b4 	movhi	r2,2114
 8403b40:	10bc4604 	addi	r2,r2,-3816
 8403b44:	d8800115 	stw	r2,4(sp)
 8403b48:	00821134 	movhi	r2,2116
 8403b4c:	10a3a804 	addi	r2,r2,-29024
 8403b50:	d8800015 	stw	r2,0(sp)
 8403b54:	01c03fc4 	movi	r7,255
 8403b58:	01804034 	movhi	r6,256
 8403b5c:	31bfffc4 	addi	r6,r6,-1
 8403b60:	01403704 	movi	r5,220
 8403b64:	01000784 	movi	r4,30
 8403b68:	84057780 	call	8405778 <vid_print_string_alpha>
	vid_print_string_alpha(30, 250, WHITE_24, BLUE_24, tahomabold_20, ">New Game");
 8403b6c:	008210b4 	movhi	r2,2114
 8403b70:	10bc4b04 	addi	r2,r2,-3796
 8403b74:	d8800115 	stw	r2,4(sp)
 8403b78:	00821134 	movhi	r2,2116
 8403b7c:	10a3a804 	addi	r2,r2,-29024
 8403b80:	d8800015 	stw	r2,0(sp)
 8403b84:	01c03fc4 	movi	r7,255
 8403b88:	01804034 	movhi	r6,256
 8403b8c:	31bfffc4 	addi	r6,r6,-1
 8403b90:	01403e84 	movi	r5,250
 8403b94:	01000784 	movi	r4,30
 8403b98:	84057780 	call	8405778 <vid_print_string_alpha>
	while(SLIDERS_DATA_REG & 0x01){
 8403b9c:	0001883a 	nop
 8403ba0:	00804034 	movhi	r2,256
 8403ba4:	10801c04 	addi	r2,r2,112
 8403ba8:	10800017 	ldw	r2,0(r2)
 8403bac:	1080004c 	andi	r2,r2,1
 8403bb0:	103ffb1e 	bne	r2,zero,8403ba0 <__alt_data_end+0xfc403ba0>

	};
	// init GUI again
	GUI(Display, DeskInfo, pTouch);
 8403bb4:	e1bfff17 	ldw	r6,-4(fp)
 8403bb8:	e17ffe17 	ldw	r5,-8(fp)
 8403bbc:	e13ffd17 	ldw	r4,-12(fp)
 8403bc0:	840394c0 	call	840394c <GUI>
}
 8403bc4:	0001883a 	nop
 8403bc8:	e037883a 	mov	sp,fp
 8403bcc:	dfc00117 	ldw	ra,4(sp)
 8403bd0:	df000017 	ldw	fp,0(sp)
 8403bd4:	dec00204 	addi	sp,sp,8
 8403bd8:	f800283a 	ret

08403bdc <NewExpression>:
#include "random_gen.h"
#include <time.h>
#include <string.h>


expression NewExpression () {
 8403bdc:	defff504 	addi	sp,sp,-44
 8403be0:	dfc00a15 	stw	ra,40(sp)
 8403be4:	df000915 	stw	fp,36(sp)
 8403be8:	df000904 	addi	fp,sp,36
 8403bec:	e13fff15 	stw	r4,-4(fp)
	expression exp;
	int op;

	srand((unsigned)time(NULL));
 8403bf0:	0009883a 	mov	r4,zero
 8403bf4:	840a5140 	call	840a514 <time>
 8403bf8:	1009883a 	mov	r4,r2
 8403bfc:	840a2400 	call	840a240 <srand>
	op = rand() % 5 + 1;
 8403c00:	840a2580 	call	840a258 <rand>
 8403c04:	01400144 	movi	r5,5
 8403c08:	1009883a 	mov	r4,r2
 8403c0c:	84070300 	call	8407030 <__modsi3>
 8403c10:	10800044 	addi	r2,r2,1
 8403c14:	e0bff715 	stw	r2,-36(fp)

	switch (op){
 8403c18:	e0bff717 	ldw	r2,-36(fp)
 8403c1c:	108001a8 	cmpgeui	r2,r2,6
 8403c20:	1000861e 	bne	r2,zero,8403e3c <NewExpression+0x260>
 8403c24:	e0bff717 	ldw	r2,-36(fp)
 8403c28:	100690ba 	slli	r3,r2,2
 8403c2c:	00821034 	movhi	r2,2112
 8403c30:	108f1004 	addi	r2,r2,15424
 8403c34:	1885883a 	add	r2,r3,r2
 8403c38:	10800017 	ldw	r2,0(r2)
 8403c3c:	1000683a 	jmp	r2
 8403c40:	08403e3c 	xorhi	at,at,248
 8403c44:	08403c58 	cmpnei	at,at,241
 8403c48:	08403cb0 	cmpltui	at,at,242
 8403c4c:	08403d10 	cmplti	at,at,244
 8403c50:	08403d6c 	andhi	at,at,245
 8403c54:	08403dd4 	ori	at,at,247
		case 1:  // operatore '+'
			exp.operator = '+';
 8403c58:	00800ac4 	movi	r2,43
 8403c5c:	e0bffb05 	stb	r2,-20(fp)
			exp.value1 = rand() % 90;
 8403c60:	840a2580 	call	840a258 <rand>
 8403c64:	01401684 	movi	r5,90
 8403c68:	1009883a 	mov	r4,r2
 8403c6c:	84070300 	call	8407030 <__modsi3>
 8403c70:	e0bff815 	stw	r2,-32(fp)
			do{				   
				exp.value2 = rand() % 90;
 8403c74:	840a2580 	call	840a258 <rand>
 8403c78:	01401684 	movi	r5,90
 8403c7c:	1009883a 	mov	r4,r2
 8403c80:	84070300 	call	8407030 <__modsi3>
 8403c84:	e0bff915 	stw	r2,-28(fp)
				exp.answer = exp.value1 + exp.value2;
 8403c88:	e0fff817 	ldw	r3,-32(fp)
 8403c8c:	e0bff917 	ldw	r2,-28(fp)
 8403c90:	1885883a 	add	r2,r3,r2
 8403c94:	e0bffa15 	stw	r2,-24(fp)
			} while (exp.answer < 0 || exp.answer >= 100);
 8403c98:	e0bffa17 	ldw	r2,-24(fp)
 8403c9c:	103ff516 	blt	r2,zero,8403c74 <__alt_data_end+0xfc403c74>
 8403ca0:	e0bffa17 	ldw	r2,-24(fp)
 8403ca4:	10801908 	cmpgei	r2,r2,100
 8403ca8:	103ff21e 	bne	r2,zero,8403c74 <__alt_data_end+0xfc403c74>
			break;
 8403cac:	00006306 	br	8403e3c <NewExpression+0x260>

		case 2:  // operatore '-'
			exp.operator = '-';
 8403cb0:	00800b44 	movi	r2,45
 8403cb4:	e0bffb05 	stb	r2,-20(fp)
			exp.value1 = rand() % 99 + 1;
 8403cb8:	840a2580 	call	840a258 <rand>
 8403cbc:	014018c4 	movi	r5,99
 8403cc0:	1009883a 	mov	r4,r2
 8403cc4:	84070300 	call	8407030 <__modsi3>
 8403cc8:	10800044 	addi	r2,r2,1
 8403ccc:	e0bff815 	stw	r2,-32(fp)
			do{				   
				exp.value2 = rand() % 40 + 1;
 8403cd0:	840a2580 	call	840a258 <rand>
 8403cd4:	01400a04 	movi	r5,40
 8403cd8:	1009883a 	mov	r4,r2
 8403cdc:	84070300 	call	8407030 <__modsi3>
 8403ce0:	10800044 	addi	r2,r2,1
 8403ce4:	e0bff915 	stw	r2,-28(fp)
				exp.answer = exp.value1 - exp.value2;
 8403ce8:	e0fff817 	ldw	r3,-32(fp)
 8403cec:	e0bff917 	ldw	r2,-28(fp)
 8403cf0:	1885c83a 	sub	r2,r3,r2
 8403cf4:	e0bffa15 	stw	r2,-24(fp)
			} while (exp.answer < 0 || exp.answer >= 100);
 8403cf8:	e0bffa17 	ldw	r2,-24(fp)
 8403cfc:	103ff416 	blt	r2,zero,8403cd0 <__alt_data_end+0xfc403cd0>
 8403d00:	e0bffa17 	ldw	r2,-24(fp)
 8403d04:	10801908 	cmpgei	r2,r2,100
 8403d08:	103ff11e 	bne	r2,zero,8403cd0 <__alt_data_end+0xfc403cd0>
			break;
 8403d0c:	00004b06 	br	8403e3c <NewExpression+0x260>

		case 3:  // operatore '*'
			exp.operator = '*';
 8403d10:	00800a84 	movi	r2,42
 8403d14:	e0bffb05 	stb	r2,-20(fp)
			exp.value1 = rand() % 12 + 1;
 8403d18:	840a2580 	call	840a258 <rand>
 8403d1c:	01400304 	movi	r5,12
 8403d20:	1009883a 	mov	r4,r2
 8403d24:	84070300 	call	8407030 <__modsi3>
 8403d28:	10800044 	addi	r2,r2,1
 8403d2c:	e0bff815 	stw	r2,-32(fp)
			do {
				exp.value2 = rand() % 10;
 8403d30:	840a2580 	call	840a258 <rand>
 8403d34:	01400284 	movi	r5,10
 8403d38:	1009883a 	mov	r4,r2
 8403d3c:	84070300 	call	8407030 <__modsi3>
 8403d40:	e0bff915 	stw	r2,-28(fp)
				exp.answer = exp.value1 * exp.value2;
 8403d44:	e0fff817 	ldw	r3,-32(fp)
 8403d48:	e0bff917 	ldw	r2,-28(fp)
 8403d4c:	1885383a 	mul	r2,r3,r2
 8403d50:	e0bffa15 	stw	r2,-24(fp)
			} while (exp.answer < 0 || exp.answer >= 100);
 8403d54:	e0bffa17 	ldw	r2,-24(fp)
 8403d58:	103ff516 	blt	r2,zero,8403d30 <__alt_data_end+0xfc403d30>
 8403d5c:	e0bffa17 	ldw	r2,-24(fp)
 8403d60:	10801908 	cmpgei	r2,r2,100
 8403d64:	103ff21e 	bne	r2,zero,8403d30 <__alt_data_end+0xfc403d30>
			break;
 8403d68:	00003406 	br	8403e3c <NewExpression+0x260>

		case 4:  // operatore '/'
			exp.operator = '/';
 8403d6c:	00800bc4 	movi	r2,47
 8403d70:	e0bffb05 	stb	r2,-20(fp)
			exp.value1 = rand() % 80 + 20;
 8403d74:	840a2580 	call	840a258 <rand>
 8403d78:	01401404 	movi	r5,80
 8403d7c:	1009883a 	mov	r4,r2
 8403d80:	84070300 	call	8407030 <__modsi3>
 8403d84:	10800504 	addi	r2,r2,20
 8403d88:	e0bff815 	stw	r2,-32(fp)
			do {
				exp.value2 = rand() % 40 + 4;
 8403d8c:	840a2580 	call	840a258 <rand>
 8403d90:	01400a04 	movi	r5,40
 8403d94:	1009883a 	mov	r4,r2
 8403d98:	84070300 	call	8407030 <__modsi3>
 8403d9c:	10800104 	addi	r2,r2,4
 8403da0:	e0bff915 	stw	r2,-28(fp)
				exp.answer = exp.value1 / exp.value2;
 8403da4:	e0bff817 	ldw	r2,-32(fp)
 8403da8:	e0fff917 	ldw	r3,-28(fp)
 8403dac:	180b883a 	mov	r5,r3
 8403db0:	1009883a 	mov	r4,r2
 8403db4:	8406fac0 	call	8406fac <__divsi3>
 8403db8:	e0bffa15 	stw	r2,-24(fp)
			} while (exp.answer < 0 || exp.answer >100);
 8403dbc:	e0bffa17 	ldw	r2,-24(fp)
 8403dc0:	103ff216 	blt	r2,zero,8403d8c <__alt_data_end+0xfc403d8c>
 8403dc4:	e0bffa17 	ldw	r2,-24(fp)
 8403dc8:	10801948 	cmpgei	r2,r2,101
 8403dcc:	103fef1e 	bne	r2,zero,8403d8c <__alt_data_end+0xfc403d8c>
			break;
 8403dd0:	00001a06 	br	8403e3c <NewExpression+0x260>

		case 5:  // operatore '%'
			exp.operator = '%';
 8403dd4:	00800944 	movi	r2,37
 8403dd8:	e0bffb05 	stb	r2,-20(fp)
			exp.value1 = rand() % 80 + 20;
 8403ddc:	840a2580 	call	840a258 <rand>
 8403de0:	01401404 	movi	r5,80
 8403de4:	1009883a 	mov	r4,r2
 8403de8:	84070300 	call	8407030 <__modsi3>
 8403dec:	10800504 	addi	r2,r2,20
 8403df0:	e0bff815 	stw	r2,-32(fp)
			do {
				exp.value2 = rand() % 90 + 4;
 8403df4:	840a2580 	call	840a258 <rand>
 8403df8:	01401684 	movi	r5,90
 8403dfc:	1009883a 	mov	r4,r2
 8403e00:	84070300 	call	8407030 <__modsi3>
 8403e04:	10800104 	addi	r2,r2,4
 8403e08:	e0bff915 	stw	r2,-28(fp)
				exp.answer = exp.value1 % exp.value2;
 8403e0c:	e0bff817 	ldw	r2,-32(fp)
 8403e10:	e0fff917 	ldw	r3,-28(fp)
 8403e14:	180b883a 	mov	r5,r3
 8403e18:	1009883a 	mov	r4,r2
 8403e1c:	84070300 	call	8407030 <__modsi3>
 8403e20:	e0bffa15 	stw	r2,-24(fp)
			} while (exp.answer < 0 || exp.answer >100);
 8403e24:	e0bffa17 	ldw	r2,-24(fp)
 8403e28:	103ff216 	blt	r2,zero,8403df4 <__alt_data_end+0xfc403df4>
 8403e2c:	e0bffa17 	ldw	r2,-24(fp)
 8403e30:	10801948 	cmpgei	r2,r2,101
 8403e34:	103fef1e 	bne	r2,zero,8403df4 <__alt_data_end+0xfc403df4>
			break;
 8403e38:	0001883a 	nop

	} //fine switch

	char expression[7] = {exp.value1/10==0 ? '_':(char)(exp.value1/10+48),
 8403e3c:	e0bff817 	ldw	r2,-32(fp)
 8403e40:	10800244 	addi	r2,r2,9
 8403e44:	108004f0 	cmpltui	r2,r2,19
 8403e48:	1000061e 	bne	r2,zero,8403e64 <NewExpression+0x288>
 8403e4c:	e0bff817 	ldw	r2,-32(fp)
 8403e50:	01400284 	movi	r5,10
 8403e54:	1009883a 	mov	r4,r2
 8403e58:	8406fac0 	call	8406fac <__divsi3>
 8403e5c:	10800c04 	addi	r2,r2,48
 8403e60:	00000106 	br	8403e68 <NewExpression+0x28c>
 8403e64:	008017c4 	movi	r2,95
 8403e68:	e0bffd05 	stb	r2,-12(fp)
						(char)(exp.value1%10+48),
 8403e6c:	e0bff817 	ldw	r2,-32(fp)
 8403e70:	01400284 	movi	r5,10
 8403e74:	1009883a 	mov	r4,r2
 8403e78:	84070300 	call	8407030 <__modsi3>
 8403e7c:	10800c04 	addi	r2,r2,48
			} while (exp.answer < 0 || exp.answer >100);
			break;

	} //fine switch

	char expression[7] = {exp.value1/10==0 ? '_':(char)(exp.value1/10+48),
 8403e80:	e0bffd45 	stb	r2,-11(fp)
						(char)(exp.value1%10+48),
						exp.operator,
 8403e84:	e0bffb03 	ldbu	r2,-20(fp)
			} while (exp.answer < 0 || exp.answer >100);
			break;

	} //fine switch

	char expression[7] = {exp.value1/10==0 ? '_':(char)(exp.value1/10+48),
 8403e88:	e0bffd85 	stb	r2,-10(fp)
						(char)(exp.value1%10+48),
						exp.operator,
						exp.value2/10==0 ? '_':(char)(exp.value2/10+48),
 8403e8c:	e0bff917 	ldw	r2,-28(fp)
 8403e90:	10800244 	addi	r2,r2,9
			} while (exp.answer < 0 || exp.answer >100);
			break;

	} //fine switch

	char expression[7] = {exp.value1/10==0 ? '_':(char)(exp.value1/10+48),
 8403e94:	108004f0 	cmpltui	r2,r2,19
 8403e98:	1000061e 	bne	r2,zero,8403eb4 <NewExpression+0x2d8>
						(char)(exp.value1%10+48),
						exp.operator,
						exp.value2/10==0 ? '_':(char)(exp.value2/10+48),
 8403e9c:	e0bff917 	ldw	r2,-28(fp)
 8403ea0:	01400284 	movi	r5,10
 8403ea4:	1009883a 	mov	r4,r2
 8403ea8:	8406fac0 	call	8406fac <__divsi3>
 8403eac:	10800c04 	addi	r2,r2,48
 8403eb0:	00000106 	br	8403eb8 <NewExpression+0x2dc>
			} while (exp.answer < 0 || exp.answer >100);
			break;

	} //fine switch

	char expression[7] = {exp.value1/10==0 ? '_':(char)(exp.value1/10+48),
 8403eb4:	008017c4 	movi	r2,95
 8403eb8:	e0bffdc5 	stb	r2,-9(fp)
						(char)(exp.value1%10+48),
						exp.operator,
						exp.value2/10==0 ? '_':(char)(exp.value2/10+48),
	   					(char)(exp.value2%10+48),
 8403ebc:	e0bff917 	ldw	r2,-28(fp)
 8403ec0:	01400284 	movi	r5,10
 8403ec4:	1009883a 	mov	r4,r2
 8403ec8:	84070300 	call	8407030 <__modsi3>
 8403ecc:	10800c04 	addi	r2,r2,48
			} while (exp.answer < 0 || exp.answer >100);
			break;

	} //fine switch

	char expression[7] = {exp.value1/10==0 ? '_':(char)(exp.value1/10+48),
 8403ed0:	e0bffe05 	stb	r2,-8(fp)
 8403ed4:	00800f44 	movi	r2,61
 8403ed8:	e0bffe45 	stb	r2,-7(fp)
 8403edc:	e03ffe85 	stb	zero,-6(fp)
						exp.operator,
						exp.value2/10==0 ? '_':(char)(exp.value2/10+48),
	   					(char)(exp.value2%10+48),
	   					'=',
	   					'\0'};
	strcpy(exp.string, expression);
 8403ee0:	e0fffd04 	addi	r3,fp,-12
 8403ee4:	e0bff804 	addi	r2,fp,-32
 8403ee8:	10800344 	addi	r2,r2,13
 8403eec:	180b883a 	mov	r5,r3
 8403ef0:	1009883a 	mov	r4,r2
 8403ef4:	840a3ec0 	call	840a3ec <strcpy>
	//printf("%d %c %d = %d\n",exp.value1, exp.operator, exp.value2, exp.answer );
	return exp;
 8403ef8:	e0bfff17 	ldw	r2,-4(fp)
 8403efc:	e0fff817 	ldw	r3,-32(fp)
 8403f00:	10c00015 	stw	r3,0(r2)
 8403f04:	e0fff917 	ldw	r3,-28(fp)
 8403f08:	10c00115 	stw	r3,4(r2)
 8403f0c:	e0fffa17 	ldw	r3,-24(fp)
 8403f10:	10c00215 	stw	r3,8(r2)
 8403f14:	e0fffb17 	ldw	r3,-20(fp)
 8403f18:	10c00315 	stw	r3,12(r2)
 8403f1c:	e0fffc17 	ldw	r3,-16(fp)
 8403f20:	10c00415 	stw	r3,16(r2)
}
 8403f24:	e0bfff17 	ldw	r2,-4(fp)
 8403f28:	e037883a 	mov	sp,fp
 8403f2c:	dfc00117 	ldw	ra,4(sp)
 8403f30:	df000017 	ldw	fp,0(sp)
 8403f34:	dec00204 	addi	sp,sp,8
 8403f38:	f800283a 	ret

08403f3c <vid_clean_screen>:
#include "LCD.h"
#endif


// richard add
void vid_clean_screen(alt_video_display* display, int color){
 8403f3c:	defffa04 	addi	sp,sp,-24
 8403f40:	dfc00515 	stw	ra,20(sp)
 8403f44:	df000415 	stw	fp,16(sp)
 8403f48:	df000404 	addi	fp,sp,16
 8403f4c:	e13ffe15 	stw	r4,-8(fp)
 8403f50:	e17fff15 	stw	r5,-4(fp)
    vid_paint_block(0 , 0,display->width, display->height, color, display);
 8403f54:	e0bffe17 	ldw	r2,-8(fp)
 8403f58:	10c00117 	ldw	r3,4(r2)
 8403f5c:	e0bffe17 	ldw	r2,-8(fp)
 8403f60:	11000217 	ldw	r4,8(r2)
 8403f64:	e0bffe17 	ldw	r2,-8(fp)
 8403f68:	d8800115 	stw	r2,4(sp)
 8403f6c:	e0bfff17 	ldw	r2,-4(fp)
 8403f70:	d8800015 	stw	r2,0(sp)
 8403f74:	200f883a 	mov	r7,r4
 8403f78:	180d883a 	mov	r6,r3
 8403f7c:	000b883a 	mov	r5,zero
 8403f80:	0009883a 	mov	r4,zero
 8403f84:	84045ac0 	call	84045ac <vid_paint_block>
}
 8403f88:	0001883a 	nop
 8403f8c:	e037883a 	mov	sp,fp
 8403f90:	dfc00117 	ldw	ra,4(sp)
 8403f94:	df000017 	ldw	fp,0(sp)
 8403f98:	dec00204 	addi	sp,sp,8
 8403f9c:	f800283a 	ret

08403fa0 <vid_draw_line>:
*           vid_draw_horiz_line(), which is much faster than 
*           vid_draw_sloped_line.
*
******************************************************************/
__inline__ void vid_draw_line(int horiz_start, int vert_start, int horiz_end, int vert_end, int width, int color, alt_video_display* display)
{
 8403fa0:	defff704 	addi	sp,sp,-36
 8403fa4:	dfc00815 	stw	ra,32(sp)
 8403fa8:	df000715 	stw	fp,28(sp)
 8403fac:	df000704 	addi	fp,sp,28
 8403fb0:	e13ffc15 	stw	r4,-16(fp)
 8403fb4:	e17ffd15 	stw	r5,-12(fp)
 8403fb8:	e1bffe15 	stw	r6,-8(fp)
 8403fbc:	e1ffff15 	stw	r7,-4(fp)
 
  if( vert_start == vert_end )
 8403fc0:	e0fffd17 	ldw	r3,-12(fp)
 8403fc4:	e0bfff17 	ldw	r2,-4(fp)
 8403fc8:	1880121e 	bne	r3,r2,8404014 <vid_draw_line+0x74>
//                         (unsigned short)horiz_end,  
//                         (unsigned short)vert_start,
//                         color,
//                         display->buffer_ptrs[display->buffer_being_written]->buffer);

    vid_draw_horiz_line( (unsigned short)horiz_start, 
 8403fcc:	e0bffc17 	ldw	r2,-16(fp)
 8403fd0:	10ffffcc 	andi	r3,r2,65535
 8403fd4:	18e0001c 	xori	r3,r3,32768
 8403fd8:	18e00004 	addi	r3,r3,-32768
 8403fdc:	e0bffe17 	ldw	r2,-8(fp)
 8403fe0:	113fffcc 	andi	r4,r2,65535
 8403fe4:	2120001c 	xori	r4,r4,32768
 8403fe8:	21200004 	addi	r4,r4,-32768
 8403fec:	e0bffd17 	ldw	r2,-12(fp)
 8403ff0:	117fffcc 	andi	r5,r2,65535
 8403ff4:	e0800417 	ldw	r2,16(fp)
 8403ff8:	d8800015 	stw	r2,0(sp)
 8403ffc:	e1c00317 	ldw	r7,12(fp)
 8404000:	280d883a 	mov	r6,r5
 8404004:	200b883a 	mov	r5,r4
 8404008:	1809883a 	mov	r4,r3
 840400c:	84046400 	call	8404640 <vid_draw_horiz_line>
                          (unsigned short)vert_end, 
                          (unsigned short)width, 
                          color,
                          display );
  }
}
 8404010:	00001006 	br	8404054 <vid_draw_line+0xb4>
                         color,
                         display );
  }
  else
  {
    vid_draw_sloped_line( (unsigned short)horiz_start, 
 8404014:	e0bffc17 	ldw	r2,-16(fp)
 8404018:	113fffcc 	andi	r4,r2,65535
 840401c:	e0bffd17 	ldw	r2,-12(fp)
 8404020:	117fffcc 	andi	r5,r2,65535
 8404024:	e0bffe17 	ldw	r2,-8(fp)
 8404028:	11bfffcc 	andi	r6,r2,65535
 840402c:	e0bfff17 	ldw	r2,-4(fp)
 8404030:	11ffffcc 	andi	r7,r2,65535
 8404034:	e0800217 	ldw	r2,8(fp)
 8404038:	10bfffcc 	andi	r2,r2,65535
 840403c:	e0c00417 	ldw	r3,16(fp)
 8404040:	d8c00215 	stw	r3,8(sp)
 8404044:	e0c00317 	ldw	r3,12(fp)
 8404048:	d8c00115 	stw	r3,4(sp)
 840404c:	d8800015 	stw	r2,0(sp)
 8404050:	84048100 	call	8404810 <vid_draw_sloped_line>
                          (unsigned short)vert_end, 
                          (unsigned short)width, 
                          color,
                          display );
  }
}
 8404054:	0001883a 	nop
 8404058:	e037883a 	mov	sp,fp
 840405c:	dfc00117 	ldw	ra,4(sp)
 8404060:	df000017 	ldw	fp,0(sp)
 8404064:	dec00204 	addi	sp,sp,8
 8404068:	f800283a 	ret

0840406c <vid_move_block>:
*           the backfill_color parameter.
*
******************************************************************/

int vid_move_block(int xbegin, int ybegin, int xend, int yend, int x_distance, int y_distance, int backfill_color, alt_video_display* display)
{
 840406c:	defff504 	addi	sp,sp,-44
 8404070:	dfc00a15 	stw	ra,40(sp)
 8404074:	df000915 	stw	fp,36(sp)
 8404078:	df000904 	addi	fp,sp,36
 840407c:	e13ffc15 	stw	r4,-16(fp)
 8404080:	e17ffd15 	stw	r5,-12(fp)
 8404084:	e1bffe15 	stw	r6,-8(fp)
 8404088:	e1ffff15 	stw	r7,-4(fp)
  int read_x, read_y, write_x, write_y;
  short temp_pixel;

  if(x_distance <= 0 && y_distance <= 0) {
 840408c:	e0800217 	ldw	r2,8(fp)
 8404090:	00803516 	blt	zero,r2,8404168 <vid_move_block+0xfc>
 8404094:	e0800317 	ldw	r2,12(fp)
 8404098:	00803316 	blt	zero,r2,8404168 <vid_move_block+0xfc>
    //Move by rows because they are contiguous in memory (could help speed if in SDRAM)
    for (read_y = ybegin; read_y < yend; read_y++) {
 840409c:	e0bffd17 	ldw	r2,-12(fp)
 84040a0:	e0bff815 	stw	r2,-32(fp)
 84040a4:	00002d06 	br	840415c <vid_move_block+0xf0>
      write_y = read_y + y_distance;
 84040a8:	e0fff817 	ldw	r3,-32(fp)
 84040ac:	e0800317 	ldw	r2,12(fp)
 84040b0:	1885883a 	add	r2,r3,r2
 84040b4:	e0bff915 	stw	r2,-28(fp)
      for(read_x = xbegin; read_x < xend; read_x++) {
 84040b8:	e0bffc17 	ldw	r2,-16(fp)
 84040bc:	e0bff715 	stw	r2,-36(fp)
 84040c0:	00002006 	br	8404144 <vid_move_block+0xd8>
        write_x = read_x + x_distance;
 84040c4:	e0fff717 	ldw	r3,-36(fp)
 84040c8:	e0800217 	ldw	r2,8(fp)
 84040cc:	1885883a 	add	r2,r3,r2
 84040d0:	e0bffa15 	stw	r2,-24(fp)
        temp_pixel = vid_get_pixel(read_x, read_y, display);
 84040d4:	e1800517 	ldw	r6,20(fp)
 84040d8:	e17ff817 	ldw	r5,-32(fp)
 84040dc:	e13ff717 	ldw	r4,-36(fp)
 84040e0:	840456c0 	call	840456c <vid_get_pixel>
 84040e4:	e0bffb0d 	sth	r2,-20(fp)
        vid_set_pixel(write_x, write_y, temp_pixel);
 84040e8:	e0bffb0f 	ldh	r2,-20(fp)
 84040ec:	100d883a 	mov	r6,r2
 84040f0:	e17ff917 	ldw	r5,-28(fp)
 84040f4:	e13ffa17 	ldw	r4,-24(fp)
 84040f8:	84044cc0 	call	84044cc <vid_set_pixel>
        if(read_x >= xend + x_distance || read_y >= yend + y_distance)
 84040fc:	e0fffe17 	ldw	r3,-8(fp)
 8404100:	e0800217 	ldw	r2,8(fp)
 8404104:	1885883a 	add	r2,r3,r2
 8404108:	e0fff717 	ldw	r3,-36(fp)
 840410c:	1880050e 	bge	r3,r2,8404124 <vid_move_block+0xb8>
 8404110:	e0ffff17 	ldw	r3,-4(fp)
 8404114:	e0800317 	ldw	r2,12(fp)
 8404118:	1885883a 	add	r2,r3,r2
 840411c:	e0fff817 	ldw	r3,-32(fp)
 8404120:	18800516 	blt	r3,r2,8404138 <vid_move_block+0xcc>
        {
	        vid_set_pixel(read_x, read_y, backfill_color);
 8404124:	e0800417 	ldw	r2,16(fp)
 8404128:	100d883a 	mov	r6,r2
 840412c:	e17ff817 	ldw	r5,-32(fp)
 8404130:	e13ff717 	ldw	r4,-36(fp)
 8404134:	84044cc0 	call	84044cc <vid_set_pixel>

  if(x_distance <= 0 && y_distance <= 0) {
    //Move by rows because they are contiguous in memory (could help speed if in SDRAM)
    for (read_y = ybegin; read_y < yend; read_y++) {
      write_y = read_y + y_distance;
      for(read_x = xbegin; read_x < xend; read_x++) {
 8404138:	e0bff717 	ldw	r2,-36(fp)
 840413c:	10800044 	addi	r2,r2,1
 8404140:	e0bff715 	stw	r2,-36(fp)
 8404144:	e0fff717 	ldw	r3,-36(fp)
 8404148:	e0bffe17 	ldw	r2,-8(fp)
 840414c:	18bfdd16 	blt	r3,r2,84040c4 <__alt_data_end+0xfc4040c4>
  int read_x, read_y, write_x, write_y;
  short temp_pixel;

  if(x_distance <= 0 && y_distance <= 0) {
    //Move by rows because they are contiguous in memory (could help speed if in SDRAM)
    for (read_y = ybegin; read_y < yend; read_y++) {
 8404150:	e0bff817 	ldw	r2,-32(fp)
 8404154:	10800044 	addi	r2,r2,1
 8404158:	e0bff815 	stw	r2,-32(fp)
 840415c:	e0fff817 	ldw	r3,-32(fp)
 8404160:	e0bfff17 	ldw	r2,-4(fp)
 8404164:	18bfd016 	blt	r3,r2,84040a8 <__alt_data_end+0xfc4040a8>
	        vid_set_pixel(read_x, read_y, backfill_color);
        }
      }
    }
  }
  return (0);
 8404168:	0005883a 	mov	r2,zero
}
 840416c:	e037883a 	mov	sp,fp
 8404170:	dfc00117 	ldw	ra,4(sp)
 8404174:	df000017 	ldw	fp,0(sp)
 8404178:	dec00204 	addi	sp,sp,8
 840417c:	f800283a 	ret

08404180 <vid_print_string>:
*           using the specified font and color.
*           Calls vid_print_char
*
******************************************************************/
int vid_print_string(int horiz_offset, int vert_offset, int color, char *font, alt_video_display* display, char string[])
{
 8404180:	defff604 	addi	sp,sp,-40
 8404184:	dfc00915 	stw	ra,36(sp)
 8404188:	df000815 	stw	fp,32(sp)
 840418c:	df000804 	addi	fp,sp,32
 8404190:	e13ffc15 	stw	r4,-16(fp)
 8404194:	e17ffd15 	stw	r5,-12(fp)
 8404198:	e1bffe15 	stw	r6,-8(fp)
 840419c:	e1ffff15 	stw	r7,-4(fp)
  int i = 0;
 84041a0:	e03ffa15 	stw	zero,-24(fp)
  int original_horiz_offset;

  original_horiz_offset = horiz_offset;
 84041a4:	e0bffc17 	ldw	r2,-16(fp)
 84041a8:	e0bffb15 	stw	r2,-20(fp)

  // Print until we hit the '\0' char.
  while (string[i]) {
 84041ac:	00002806 	br	8404250 <vid_print_string+0xd0>
    //Handle newline char here.
    if (string[i] == '\n') {
 84041b0:	e0bffa17 	ldw	r2,-24(fp)
 84041b4:	e0c00317 	ldw	r3,12(fp)
 84041b8:	1885883a 	add	r2,r3,r2
 84041bc:	10800003 	ldbu	r2,0(r2)
 84041c0:	10803fcc 	andi	r2,r2,255
 84041c4:	1080201c 	xori	r2,r2,128
 84041c8:	10bfe004 	addi	r2,r2,-128
 84041cc:	10800298 	cmpnei	r2,r2,10
 84041d0:	1000091e 	bne	r2,zero,84041f8 <vid_print_string+0x78>
      horiz_offset = original_horiz_offset;
 84041d4:	e0bffb17 	ldw	r2,-20(fp)
 84041d8:	e0bffc15 	stw	r2,-16(fp)
      vert_offset += 12;
 84041dc:	e0bffd17 	ldw	r2,-12(fp)
 84041e0:	10800304 	addi	r2,r2,12
 84041e4:	e0bffd15 	stw	r2,-12(fp)
      i++;
 84041e8:	e0bffa17 	ldw	r2,-24(fp)
 84041ec:	10800044 	addi	r2,r2,1
 84041f0:	e0bffa15 	stw	r2,-24(fp)
      continue;
 84041f4:	00001606 	br	8404250 <vid_print_string+0xd0>
    }
    // Lay down that character and increment our offsets.
    vid_print_char (horiz_offset, vert_offset, color, string[i], font, display);
 84041f8:	e0bffa17 	ldw	r2,-24(fp)
 84041fc:	e0c00317 	ldw	r3,12(fp)
 8404200:	1885883a 	add	r2,r3,r2
 8404204:	10800003 	ldbu	r2,0(r2)
 8404208:	10c03fcc 	andi	r3,r2,255
 840420c:	18c0201c 	xori	r3,r3,128
 8404210:	18ffe004 	addi	r3,r3,-128
 8404214:	e0800217 	ldw	r2,8(fp)
 8404218:	d8800115 	stw	r2,4(sp)
 840421c:	e0bfff17 	ldw	r2,-4(fp)
 8404220:	d8800015 	stw	r2,0(sp)
 8404224:	180f883a 	mov	r7,r3
 8404228:	e1bffe17 	ldw	r6,-8(fp)
 840422c:	e17ffd17 	ldw	r5,-12(fp)
 8404230:	e13ffc17 	ldw	r4,-16(fp)
 8404234:	84043e00 	call	84043e0 <vid_print_char>
    i++;
 8404238:	e0bffa17 	ldw	r2,-24(fp)
 840423c:	10800044 	addi	r2,r2,1
 8404240:	e0bffa15 	stw	r2,-24(fp)
    horiz_offset += 8;
 8404244:	e0bffc17 	ldw	r2,-16(fp)
 8404248:	10800204 	addi	r2,r2,8
 840424c:	e0bffc15 	stw	r2,-16(fp)
  int original_horiz_offset;

  original_horiz_offset = horiz_offset;

  // Print until we hit the '\0' char.
  while (string[i]) {
 8404250:	e0bffa17 	ldw	r2,-24(fp)
 8404254:	e0c00317 	ldw	r3,12(fp)
 8404258:	1885883a 	add	r2,r3,r2
 840425c:	10800003 	ldbu	r2,0(r2)
 8404260:	10803fcc 	andi	r2,r2,255
 8404264:	1080201c 	xori	r2,r2,128
 8404268:	10bfe004 	addi	r2,r2,-128
 840426c:	103fd01e 	bne	r2,zero,84041b0 <__alt_data_end+0xfc4041b0>
    // Lay down that character and increment our offsets.
    vid_print_char (horiz_offset, vert_offset, color, string[i], font, display);
    i++;
    horiz_offset += 8;
  }
  return (0);
 8404270:	0005883a 	mov	r2,zero
}
 8404274:	e037883a 	mov	sp,fp
 8404278:	dfc00117 	ldw	ra,4(sp)
 840427c:	df000017 	ldw	fp,0(sp)
 8404280:	dec00204 	addi	sp,sp,8
 8404284:	f800283a 	ret

08404288 <vid_draw_box>:
*  points.  The fill parameter tells the function whether or not
*  to fill in the box.  1 = fill, 0 = do not fill.
*
******************************************************************/
int vid_draw_box (int horiz_start, int vert_start, int horiz_end, int vert_end, int color, int fill, alt_video_display* display)
{
 8404288:	defff704 	addi	sp,sp,-36
 840428c:	dfc00815 	stw	ra,32(sp)
 8404290:	df000715 	stw	fp,28(sp)
 8404294:	df000704 	addi	fp,sp,28
 8404298:	e13ffc15 	stw	r4,-16(fp)
 840429c:	e17ffd15 	stw	r5,-12(fp)
 84042a0:	e1bffe15 	stw	r6,-8(fp)
 84042a4:	e1ffff15 	stw	r7,-4(fp)

  // If we want to fill in our box
  if (fill) {
 84042a8:	e0800317 	ldw	r2,12(fp)
 84042ac:	10000a26 	beq	r2,zero,84042d8 <vid_draw_box+0x50>
     vid_paint_block (horiz_start, vert_start, horiz_end, vert_end, color, display);
 84042b0:	e0800417 	ldw	r2,16(fp)
 84042b4:	d8800115 	stw	r2,4(sp)
 84042b8:	e0800217 	ldw	r2,8(fp)
 84042bc:	d8800015 	stw	r2,0(sp)
 84042c0:	e1ffff17 	ldw	r7,-4(fp)
 84042c4:	e1bffe17 	ldw	r6,-8(fp)
 84042c8:	e17ffd17 	ldw	r5,-12(fp)
 84042cc:	e13ffc17 	ldw	r4,-16(fp)
 84042d0:	84045ac0 	call	84045ac <vid_paint_block>
 84042d4:	00003c06 	br	84043c8 <vid_draw_box+0x140>
  // If we're not filling in the box, just draw four lines.
  } else {
    vid_draw_line(horiz_start, vert_start, horiz_start, vert_end-1, 1, color, display);
 84042d8:	e0bfff17 	ldw	r2,-4(fp)
 84042dc:	10ffffc4 	addi	r3,r2,-1
 84042e0:	e0800417 	ldw	r2,16(fp)
 84042e4:	d8800215 	stw	r2,8(sp)
 84042e8:	e0800217 	ldw	r2,8(fp)
 84042ec:	d8800115 	stw	r2,4(sp)
 84042f0:	00800044 	movi	r2,1
 84042f4:	d8800015 	stw	r2,0(sp)
 84042f8:	180f883a 	mov	r7,r3
 84042fc:	e1bffc17 	ldw	r6,-16(fp)
 8404300:	e17ffd17 	ldw	r5,-12(fp)
 8404304:	e13ffc17 	ldw	r4,-16(fp)
 8404308:	8403fa00 	call	8403fa0 <vid_draw_line>
    vid_draw_line(horiz_end-1, vert_start, horiz_end-1, vert_end-1, 1, color, display);
 840430c:	e0bffe17 	ldw	r2,-8(fp)
 8404310:	10ffffc4 	addi	r3,r2,-1
 8404314:	e0bffe17 	ldw	r2,-8(fp)
 8404318:	113fffc4 	addi	r4,r2,-1
 840431c:	e0bfff17 	ldw	r2,-4(fp)
 8404320:	117fffc4 	addi	r5,r2,-1
 8404324:	e0800417 	ldw	r2,16(fp)
 8404328:	d8800215 	stw	r2,8(sp)
 840432c:	e0800217 	ldw	r2,8(fp)
 8404330:	d8800115 	stw	r2,4(sp)
 8404334:	00800044 	movi	r2,1
 8404338:	d8800015 	stw	r2,0(sp)
 840433c:	280f883a 	mov	r7,r5
 8404340:	200d883a 	mov	r6,r4
 8404344:	e17ffd17 	ldw	r5,-12(fp)
 8404348:	1809883a 	mov	r4,r3
 840434c:	8403fa00 	call	8403fa0 <vid_draw_line>
    vid_draw_line(horiz_start, vert_start, horiz_end-1, vert_start, 1, color, display);
 8404350:	e0bffe17 	ldw	r2,-8(fp)
 8404354:	10ffffc4 	addi	r3,r2,-1
 8404358:	e0800417 	ldw	r2,16(fp)
 840435c:	d8800215 	stw	r2,8(sp)
 8404360:	e0800217 	ldw	r2,8(fp)
 8404364:	d8800115 	stw	r2,4(sp)
 8404368:	00800044 	movi	r2,1
 840436c:	d8800015 	stw	r2,0(sp)
 8404370:	e1fffd17 	ldw	r7,-12(fp)
 8404374:	180d883a 	mov	r6,r3
 8404378:	e17ffd17 	ldw	r5,-12(fp)
 840437c:	e13ffc17 	ldw	r4,-16(fp)
 8404380:	8403fa00 	call	8403fa0 <vid_draw_line>
    vid_draw_line(horiz_start, vert_end-1, horiz_end-1, vert_end-1, 1, color, display);
 8404384:	e0bfff17 	ldw	r2,-4(fp)
 8404388:	10ffffc4 	addi	r3,r2,-1
 840438c:	e0bffe17 	ldw	r2,-8(fp)
 8404390:	113fffc4 	addi	r4,r2,-1
 8404394:	e0bfff17 	ldw	r2,-4(fp)
 8404398:	117fffc4 	addi	r5,r2,-1
 840439c:	e0800417 	ldw	r2,16(fp)
 84043a0:	d8800215 	stw	r2,8(sp)
 84043a4:	e0800217 	ldw	r2,8(fp)
 84043a8:	d8800115 	stw	r2,4(sp)
 84043ac:	00800044 	movi	r2,1
 84043b0:	d8800015 	stw	r2,0(sp)
 84043b4:	280f883a 	mov	r7,r5
 84043b8:	200d883a 	mov	r6,r4
 84043bc:	180b883a 	mov	r5,r3
 84043c0:	e13ffc17 	ldw	r4,-16(fp)
 84043c4:	8403fa00 	call	8403fa0 <vid_draw_line>
  }

  return (0);
 84043c8:	0005883a 	mov	r2,zero
}
 84043cc:	e037883a 	mov	sp,fp
 84043d0:	dfc00117 	ldw	ra,4(sp)
 84043d4:	df000017 	ldw	fp,0(sp)
 84043d8:	dec00204 	addi	sp,sp,8
 84043dc:	f800283a 	ret

084043e0 <vid_print_char>:
*           screen using the specified font and color.
*
******************************************************************/

int vid_print_char (int horiz_offset, int vert_offset, int color, char character, char *font, alt_video_display* display)
{
 84043e0:	defff704 	addi	sp,sp,-36
 84043e4:	dfc00815 	stw	ra,32(sp)
 84043e8:	df000715 	stw	fp,28(sp)
 84043ec:	df000704 	addi	fp,sp,28
 84043f0:	e13ffc15 	stw	r4,-16(fp)
 84043f4:	e17ffd15 	stw	r5,-12(fp)
 84043f8:	e1bffe15 	stw	r6,-8(fp)
 84043fc:	3805883a 	mov	r2,r7
 8404400:	e0bfff05 	stb	r2,-4(fp)
  int i, j;
  
  char temp_char, char_row;

  // Convert the ASCII value to an array offset
  temp_char = (character - 0x20);
 8404404:	e0bfff03 	ldbu	r2,-4(fp)
 8404408:	10bff804 	addi	r2,r2,-32
 840440c:	e0bffb05 	stb	r2,-20(fp)

  //Each character is 8 pixels wide and 11 tall.
  for(i = 0; i < 11; i++) {
 8404410:	e03ff915 	stw	zero,-28(fp)
 8404414:	00002406 	br	84044a8 <vid_print_char+0xc8>
      char_row = *(font + (temp_char * FONT_10PT_ROW) + i);
 8404418:	e0bffb07 	ldb	r2,-20(fp)
 840441c:	108002e4 	muli	r2,r2,11
 8404420:	1007883a 	mov	r3,r2
 8404424:	e0bff917 	ldw	r2,-28(fp)
 8404428:	1885883a 	add	r2,r3,r2
 840442c:	e0c00217 	ldw	r3,8(fp)
 8404430:	1885883a 	add	r2,r3,r2
 8404434:	10800003 	ldbu	r2,0(r2)
 8404438:	e0bffb45 	stb	r2,-19(fp)
    for (j = 0; j < 8; j++) {
 840443c:	e03ffa15 	stw	zero,-24(fp)
 8404440:	00001306 	br	8404490 <vid_print_char+0xb0>
      //If the font table says the pixel in this location is on for this character, then set it.
      if (char_row & (((unsigned char)0x80) >> j)) {
 8404444:	e0fffb47 	ldb	r3,-19(fp)
 8404448:	01002004 	movi	r4,128
 840444c:	e0bffa17 	ldw	r2,-24(fp)
 8404450:	2085d83a 	sra	r2,r4,r2
 8404454:	1884703a 	and	r2,r3,r2
 8404458:	10000a26 	beq	r2,zero,8404484 <vid_print_char+0xa4>
        vid_set_pixel((horiz_offset + j), (vert_offset + i), color); // plot the pixel
 840445c:	e0fffc17 	ldw	r3,-16(fp)
 8404460:	e0bffa17 	ldw	r2,-24(fp)
 8404464:	1889883a 	add	r4,r3,r2
 8404468:	e0fffd17 	ldw	r3,-12(fp)
 840446c:	e0bff917 	ldw	r2,-28(fp)
 8404470:	1885883a 	add	r2,r3,r2
 8404474:	e0fffe17 	ldw	r3,-8(fp)
 8404478:	180d883a 	mov	r6,r3
 840447c:	100b883a 	mov	r5,r2
 8404480:	84044cc0 	call	84044cc <vid_set_pixel>
  temp_char = (character - 0x20);

  //Each character is 8 pixels wide and 11 tall.
  for(i = 0; i < 11; i++) {
      char_row = *(font + (temp_char * FONT_10PT_ROW) + i);
    for (j = 0; j < 8; j++) {
 8404484:	e0bffa17 	ldw	r2,-24(fp)
 8404488:	10800044 	addi	r2,r2,1
 840448c:	e0bffa15 	stw	r2,-24(fp)
 8404490:	e0bffa17 	ldw	r2,-24(fp)
 8404494:	10800210 	cmplti	r2,r2,8
 8404498:	103fea1e 	bne	r2,zero,8404444 <__alt_data_end+0xfc404444>

  // Convert the ASCII value to an array offset
  temp_char = (character - 0x20);

  //Each character is 8 pixels wide and 11 tall.
  for(i = 0; i < 11; i++) {
 840449c:	e0bff917 	ldw	r2,-28(fp)
 84044a0:	10800044 	addi	r2,r2,1
 84044a4:	e0bff915 	stw	r2,-28(fp)
 84044a8:	e0bff917 	ldw	r2,-28(fp)
 84044ac:	108002d0 	cmplti	r2,r2,11
 84044b0:	103fd91e 	bne	r2,zero,8404418 <__alt_data_end+0xfc404418>
      if (char_row & (((unsigned char)0x80) >> j)) {
        vid_set_pixel((horiz_offset + j), (vert_offset + i), color); // plot the pixel
      }
    }
  }
  return(0);
 84044b4:	0005883a 	mov	r2,zero
}
 84044b8:	e037883a 	mov	sp,fp
 84044bc:	dfc00117 	ldw	ra,4(sp)
 84044c0:	df000017 	ldw	fp,0(sp)
 84044c4:	dec00204 	addi	sp,sp,8
 84044c8:	f800283a 	ret

084044cc <vid_set_pixel>:
*           efficient when painting large areas of the screen.
*
******************************************************************/

void vid_set_pixel(int horiz, int vert, unsigned int color)
{
 84044cc:	defffa04 	addi	sp,sp,-24
 84044d0:	dfc00515 	stw	ra,20(sp)
 84044d4:	df000415 	stw	fp,16(sp)
 84044d8:	df000404 	addi	fp,sp,16
 84044dc:	e13ffd15 	stw	r4,-12(fp)
 84044e0:	e17ffe15 	stw	r5,-8(fp)
 84044e4:	e1bfff15 	stw	r6,-4(fp)
	alt_u16 color16;


	// encode to RGB  5 6 5
	color16 = (color & 0xFF) >> 3; // blue
 84044e8:	e0bfff17 	ldw	r2,-4(fp)
 84044ec:	10803fcc 	andi	r2,r2,255
 84044f0:	1004d0fa 	srli	r2,r2,3
 84044f4:	e0bffc0d 	sth	r2,-16(fp)
	color16 |= (color & 0xFC00) >> 5; // green
 84044f8:	e0bfff17 	ldw	r2,-4(fp)
 84044fc:	10bf000c 	andi	r2,r2,64512
 8404500:	1004d17a 	srli	r2,r2,5
 8404504:	1007883a 	mov	r3,r2
 8404508:	e0bffc0b 	ldhu	r2,-16(fp)
 840450c:	1884b03a 	or	r2,r3,r2
 8404510:	e0bffc0d 	sth	r2,-16(fp)
	color16 |= (color & 0xF80000) >> 8; // blue
 8404514:	e0bfff17 	ldw	r2,-4(fp)
 8404518:	10803e2c 	andhi	r2,r2,248
 840451c:	1004d23a 	srli	r2,r2,8
 8404520:	1007883a 	mov	r3,r2
 8404524:	e0bffc0b 	ldhu	r2,-16(fp)
 8404528:	1884b03a 	or	r2,r3,r2
 840452c:	e0bffc0d 	sth	r2,-16(fp)
	LCD_DrawPoint(horiz, vert, color16);
 8404530:	e0bffd17 	ldw	r2,-12(fp)
 8404534:	10ffffcc 	andi	r3,r2,65535
 8404538:	e0bffe17 	ldw	r2,-8(fp)
 840453c:	10bfffcc 	andi	r2,r2,65535
 8404540:	e13ffc0b 	ldhu	r4,-16(fp)
 8404544:	200d883a 	mov	r6,r4
 8404548:	100b883a 	mov	r5,r2
 840454c:	1809883a 	mov	r4,r3
 8404550:	84021c80 	call	84021c8 <LCD_DrawPoint>

}
 8404554:	0001883a 	nop
 8404558:	e037883a 	mov	sp,fp
 840455c:	dfc00117 	ldw	ra,4(sp)
 8404560:	df000017 	ldw	fp,0(sp)
 8404564:	dec00204 	addi	sp,sp,8
 8404568:	f800283a 	ret

0840456c <vid_get_pixel>:
*
*  Purpose: Reads the color of the pixel at the given coordinates
*
******************************************************************/
short vid_get_pixel(int horiz, int vert, alt_video_display* display)
{
 840456c:	defffb04 	addi	sp,sp,-20
 8404570:	dfc00415 	stw	ra,16(sp)
 8404574:	df000315 	stw	fp,12(sp)
 8404578:	df000304 	addi	fp,sp,12
 840457c:	e13ffd15 	stw	r4,-12(fp)
 8404580:	e17ffe15 	stw	r5,-8(fp)
 8404584:	e1bfff15 	stw	r6,-4(fp)
	printf("vid_get_pixel is not implemented\r\n");
 8404588:	010210b4 	movhi	r4,2114
 840458c:	213c4e04 	addi	r4,r4,-3784
 8404590:	840a22c0 	call	840a22c <puts>
	/*LCD_ReadPoint(horiz, vert);*/
	return 0;
 8404594:	0005883a 	mov	r2,zero
}
 8404598:	e037883a 	mov	sp,fp
 840459c:	dfc00117 	ldw	ra,4(sp)
 84045a0:	df000017 	ldw	fp,0(sp)
 84045a4:	dec00204 	addi	sp,sp,8
 84045a8:	f800283a 	ret

084045ac <vid_paint_block>:
*           The color parameter must contain two pixel's worth
*           (32 bits).
*
******************************************************************/
void vid_paint_block (int Hstart,int Vstart, int Hend, int Vend, int color, alt_video_display* display)
{
 84045ac:	defff804 	addi	sp,sp,-32
 84045b0:	dfc00715 	stw	ra,28(sp)
 84045b4:	df000615 	stw	fp,24(sp)
 84045b8:	df000604 	addi	fp,sp,24
 84045bc:	e13ffc15 	stw	r4,-16(fp)
 84045c0:	e17ffd15 	stw	r5,-12(fp)
 84045c4:	e1bffe15 	stw	r6,-8(fp)
 84045c8:	e1ffff15 	stw	r7,-4(fp)
	int x,y;
	for(y=Vstart;y<Vend;y++){
 84045cc:	e0bffd17 	ldw	r2,-12(fp)
 84045d0:	e0bffb15 	stw	r2,-20(fp)
 84045d4:	00001106 	br	840461c <vid_paint_block+0x70>
		for(x=Hstart;x<Hend;x++){
 84045d8:	e0bffc17 	ldw	r2,-16(fp)
 84045dc:	e0bffa15 	stw	r2,-24(fp)
 84045e0:	00000806 	br	8404604 <vid_paint_block+0x58>
			vid_set_pixel(x, y, color);
 84045e4:	e0800217 	ldw	r2,8(fp)
 84045e8:	100d883a 	mov	r6,r2
 84045ec:	e17ffb17 	ldw	r5,-20(fp)
 84045f0:	e13ffa17 	ldw	r4,-24(fp)
 84045f4:	84044cc0 	call	84044cc <vid_set_pixel>
******************************************************************/
void vid_paint_block (int Hstart,int Vstart, int Hend, int Vend, int color, alt_video_display* display)
{
	int x,y;
	for(y=Vstart;y<Vend;y++){
		for(x=Hstart;x<Hend;x++){
 84045f8:	e0bffa17 	ldw	r2,-24(fp)
 84045fc:	10800044 	addi	r2,r2,1
 8404600:	e0bffa15 	stw	r2,-24(fp)
 8404604:	e0fffa17 	ldw	r3,-24(fp)
 8404608:	e0bffe17 	ldw	r2,-8(fp)
 840460c:	18bff516 	blt	r3,r2,84045e4 <__alt_data_end+0xfc4045e4>
*
******************************************************************/
void vid_paint_block (int Hstart,int Vstart, int Hend, int Vend, int color, alt_video_display* display)
{
	int x,y;
	for(y=Vstart;y<Vend;y++){
 8404610:	e0bffb17 	ldw	r2,-20(fp)
 8404614:	10800044 	addi	r2,r2,1
 8404618:	e0bffb15 	stw	r2,-20(fp)
 840461c:	e0fffb17 	ldw	r3,-20(fp)
 8404620:	e0bfff17 	ldw	r2,-4(fp)
 8404624:	18bfec16 	blt	r3,r2,84045d8 <__alt_data_end+0xfc4045d8>
		for(x=Hstart;x<Hend;x++){
			vid_set_pixel(x, y, color);
		}
	}
}
 8404628:	0001883a 	nop
 840462c:	e037883a 	mov	sp,fp
 8404630:	dfc00117 	ldw	ra,4(sp)
 8404634:	df000017 	ldw	fp,0(sp)
 8404638:	dec00204 	addi	sp,sp,8
 840463c:	f800283a 	ret

08404640 <vid_draw_horiz_line>:
*  Purpose: Draws a horizontal line on the screen quickly.
*           Good for filling stuff.
*
******************************************************************/
void vid_draw_horiz_line (short Hstart, short Hend, int V, int color, alt_video_display* display)
{
 8404640:	defff904 	addi	sp,sp,-28
 8404644:	dfc00615 	stw	ra,24(sp)
 8404648:	df000515 	stw	fp,20(sp)
 840464c:	df000504 	addi	fp,sp,20
 8404650:	2007883a 	mov	r3,r4
 8404654:	2805883a 	mov	r2,r5
 8404658:	e1bffe15 	stw	r6,-8(fp)
 840465c:	e1ffff15 	stw	r7,-4(fp)
 8404660:	e0fffc0d 	sth	r3,-16(fp)
 8404664:	e0bffd0d 	sth	r2,-12(fp)
	int x;
	for(x=Hstart;x<Hend;x++){
 8404668:	e0bffc0f 	ldh	r2,-16(fp)
 840466c:	e0bffb15 	stw	r2,-20(fp)
 8404670:	00000806 	br	8404694 <vid_draw_horiz_line+0x54>
		vid_set_pixel(x, V, color);
 8404674:	e0bfff17 	ldw	r2,-4(fp)
 8404678:	100d883a 	mov	r6,r2
 840467c:	e17ffe17 	ldw	r5,-8(fp)
 8404680:	e13ffb17 	ldw	r4,-20(fp)
 8404684:	84044cc0 	call	84044cc <vid_set_pixel>
*
******************************************************************/
void vid_draw_horiz_line (short Hstart, short Hend, int V, int color, alt_video_display* display)
{
	int x;
	for(x=Hstart;x<Hend;x++){
 8404688:	e0bffb17 	ldw	r2,-20(fp)
 840468c:	10800044 	addi	r2,r2,1
 8404690:	e0bffb15 	stw	r2,-20(fp)
 8404694:	e0bffd0f 	ldh	r2,-12(fp)
 8404698:	e0fffb17 	ldw	r3,-20(fp)
 840469c:	18bff516 	blt	r3,r2,8404674 <__alt_data_end+0xfc404674>
		vid_set_pixel(x, V, color);
	}
}
 84046a0:	0001883a 	nop
 84046a4:	e037883a 	mov	sp,fp
 84046a8:	dfc00117 	ldw	ra,4(sp)
 84046ac:	df000017 	ldw	fp,0(sp)
 84046b0:	dec00204 	addi	sp,sp,8
 84046b4:	f800283a 	ret

084046b8 <vid_merge_colors>:
*  Purpose: Takes 5-bit color values for each red, green, and blue
*           and merges them into one 16-bit color value.
*
******************************************************************/
int vid_merge_colors(int red, int green, int blue)
{
 84046b8:	defffc04 	addi	sp,sp,-16
 84046bc:	df000315 	stw	fp,12(sp)
 84046c0:	df000304 	addi	fp,sp,12
 84046c4:	e13ffd15 	stw	r4,-12(fp)
 84046c8:	e17ffe15 	stw	r5,-8(fp)
 84046cc:	e1bfff15 	stw	r6,-4(fp)
  // Green actually has 6-bits, but we'll make it's LSB 1 to be consistent.
  return ((blue) | (((green << 1) | 0x1) << 5) | (red << 11));
 84046d0:	e0bffe17 	ldw	r2,-8(fp)
 84046d4:	1085883a 	add	r2,r2,r2
 84046d8:	10800054 	ori	r2,r2,1
 84046dc:	1006917a 	slli	r3,r2,5
 84046e0:	e0bfff17 	ldw	r2,-4(fp)
 84046e4:	1886b03a 	or	r3,r3,r2
 84046e8:	e0bffd17 	ldw	r2,-12(fp)
 84046ec:	100492fa 	slli	r2,r2,11
 84046f0:	1884b03a 	or	r2,r3,r2
}
 84046f4:	e037883a 	mov	sp,fp
 84046f8:	df000017 	ldw	fp,0(sp)
 84046fc:	dec00104 	addi	sp,sp,4
 8404700:	f800283a 	ret

08404704 <vid_color_convert24_16>:
*           sample and converts it to 16-bits, displayable by the 
*           VGA controller in 16-bit mode
*
******************************************************************/
unsigned short vid_color_convert24_16(char* color24)
{
 8404704:	defffc04 	addi	sp,sp,-16
 8404708:	df000315 	stw	fp,12(sp)
 840470c:	df000304 	addi	fp,sp,12
 8404710:	e13fff15 	stw	r4,-4(fp)
	unsigned char red, green, blue;
	unsigned short output;
	
	red = *(color24 + 0) & 0xF8;
 8404714:	e0bfff17 	ldw	r2,-4(fp)
 8404718:	10800003 	ldbu	r2,0(r2)
 840471c:	1007883a 	mov	r3,r2
 8404720:	00bffe04 	movi	r2,-8
 8404724:	1884703a 	and	r2,r3,r2
 8404728:	e0bffd05 	stb	r2,-12(fp)
	green = *(color24 + 1) & 0xFC; // green is actualy 6 bits
 840472c:	e0bfff17 	ldw	r2,-4(fp)
 8404730:	10800044 	addi	r2,r2,1
 8404734:	10800003 	ldbu	r2,0(r2)
 8404738:	1007883a 	mov	r3,r2
 840473c:	00bfff04 	movi	r2,-4
 8404740:	1884703a 	and	r2,r3,r2
 8404744:	e0bffd45 	stb	r2,-11(fp)
	blue = *(color24 + 2) & 0xF8;
 8404748:	e0bfff17 	ldw	r2,-4(fp)
 840474c:	10800084 	addi	r2,r2,2
 8404750:	10800003 	ldbu	r2,0(r2)
 8404754:	1007883a 	mov	r3,r2
 8404758:	00bffe04 	movi	r2,-8
 840475c:	1884703a 	and	r2,r3,r2
 8404760:	e0bffd85 	stb	r2,-10(fp)

	output = ((blue >> 3) | (green << 3) | (red << 8));  
 8404764:	e0bffd83 	ldbu	r2,-10(fp)
 8404768:	1004d0fa 	srli	r2,r2,3
 840476c:	10803fcc 	andi	r2,r2,255
 8404770:	e0fffd43 	ldbu	r3,-11(fp)
 8404774:	180690fa 	slli	r3,r3,3
 8404778:	10c4b03a 	or	r2,r2,r3
 840477c:	1007883a 	mov	r3,r2
 8404780:	e0bffd03 	ldbu	r2,-12(fp)
 8404784:	1004923a 	slli	r2,r2,8
 8404788:	1884b03a 	or	r2,r3,r2
 840478c:	e0bffe0d 	sth	r2,-8(fp)
	return output;
 8404790:	e0bffe0b 	ldhu	r2,-8(fp)
}
 8404794:	e037883a 	mov	sp,fp
 8404798:	df000017 	ldw	fp,0(sp)
 840479c:	dec00104 	addi	sp,sp,4
 84047a0:	f800283a 	ret

084047a4 <vid_color_convert16_24>:
*           sample and converts it to 16-bits, displayable by the 
*           VGA controller in 16-bit mode
*
******************************************************************/
int vid_color_convert16_24(unsigned short color16, char* color24)
{
 84047a4:	defffd04 	addi	sp,sp,-12
 84047a8:	df000215 	stw	fp,8(sp)
 84047ac:	df000204 	addi	fp,sp,8
 84047b0:	2005883a 	mov	r2,r4
 84047b4:	e17fff15 	stw	r5,-4(fp)
 84047b8:	e0bffe0d 	sth	r2,-8(fp)
	*(color24 + 0) = color16 >> 11;
 84047bc:	e0bffe0b 	ldhu	r2,-8(fp)
 84047c0:	1004d2fa 	srli	r2,r2,11
 84047c4:	1007883a 	mov	r3,r2
 84047c8:	e0bfff17 	ldw	r2,-4(fp)
 84047cc:	10c00005 	stb	r3,0(r2)
	*(color24 + 1) = ((color16 & 0x3E) >> 5);
 84047d0:	e0bfff17 	ldw	r2,-4(fp)
 84047d4:	10800044 	addi	r2,r2,1
 84047d8:	e0fffe0b 	ldhu	r3,-8(fp)
 84047dc:	18c00f8c 	andi	r3,r3,62
 84047e0:	1807d17a 	srai	r3,r3,5
 84047e4:	10c00005 	stb	r3,0(r2)
	*(color24 + 2) = (color16 & 0x1F);
 84047e8:	e0bfff17 	ldw	r2,-4(fp)
 84047ec:	10800084 	addi	r2,r2,2
 84047f0:	e0fffe0b 	ldhu	r3,-8(fp)
 84047f4:	18c007cc 	andi	r3,r3,31
 84047f8:	10c00005 	stb	r3,0(r2)
	
	return (0);
 84047fc:	0005883a 	mov	r2,zero
}
 8404800:	e037883a 	mov	sp,fp
 8404804:	df000017 	ldw	fp,0(sp)
 8404808:	dec00104 	addi	sp,sp,4
 840480c:	f800283a 	ret

08404810 <vid_draw_sloped_line>:
                           unsigned short horiz_end, 
                           unsigned short vert_end, 
                           unsigned short width, 
                           int color, 
                           alt_video_display* display)
{
 8404810:	deffef04 	addi	sp,sp,-68
 8404814:	dfc01015 	stw	ra,64(sp)
 8404818:	df000f15 	stw	fp,60(sp)
 840481c:	df000f04 	addi	fp,sp,60
 8404820:	2011883a 	mov	r8,r4
 8404824:	3009883a 	mov	r4,r6
 8404828:	3807883a 	mov	r3,r7
 840482c:	e0800217 	ldw	r2,8(fp)
 8404830:	e23ffb0d 	sth	r8,-20(fp)
 8404834:	e17ffc0d 	sth	r5,-16(fp)
 8404838:	e13ffd0d 	sth	r4,-12(fp)
 840483c:	e0fffe0d 	sth	r3,-8(fp)
 8404840:	e0bfff0d 	sth	r2,-4(fp)
  // Find the vertical and horizontal distance between the two points
  int horiz_delta = abs(horiz_end-horiz_start);
 8404844:	e0fffd0b 	ldhu	r3,-12(fp)
 8404848:	e0bffb0b 	ldhu	r2,-20(fp)
 840484c:	1885c83a 	sub	r2,r3,r2
 8404850:	1000010e 	bge	r2,zero,8404858 <vid_draw_sloped_line+0x48>
 8404854:	0085c83a 	sub	r2,zero,r2
 8404858:	e0bff115 	stw	r2,-60(fp)
  int vert_delta = abs(vert_end-vert_start);
 840485c:	e0fffe0b 	ldhu	r3,-8(fp)
 8404860:	e0bffc0b 	ldhu	r2,-16(fp)
 8404864:	1885c83a 	sub	r2,r3,r2
 8404868:	1000010e 	bge	r2,zero,8404870 <vid_draw_sloped_line+0x60>
 840486c:	0085c83a 	sub	r2,zero,r2
 8404870:	e0bff215 	stw	r2,-56(fp)

  // Find out what direction we are going
  int horiz_incr, vert_incr;
  if (horiz_start > horiz_end) { horiz_incr=-1; } else { horiz_incr=1; }
 8404874:	e0bffb0b 	ldhu	r2,-20(fp)
 8404878:	e0fffd0b 	ldhu	r3,-12(fp)
 840487c:	1880032e 	bgeu	r3,r2,840488c <vid_draw_sloped_line+0x7c>
 8404880:	00bfffc4 	movi	r2,-1
 8404884:	e0bff315 	stw	r2,-52(fp)
 8404888:	00000206 	br	8404894 <vid_draw_sloped_line+0x84>
 840488c:	00800044 	movi	r2,1
 8404890:	e0bff315 	stw	r2,-52(fp)
  if (vert_start > vert_end) { vert_incr=-1; } else { vert_incr=1; }
 8404894:	e0bffc0b 	ldhu	r2,-16(fp)
 8404898:	e0fffe0b 	ldhu	r3,-8(fp)
 840489c:	1880032e 	bgeu	r3,r2,84048ac <vid_draw_sloped_line+0x9c>
 84048a0:	00bfffc4 	movi	r2,-1
 84048a4:	e0bff415 	stw	r2,-48(fp)
 84048a8:	00000206 	br	84048b4 <vid_draw_sloped_line+0xa4>
 84048ac:	00800044 	movi	r2,1
 84048b0:	e0bff415 	stw	r2,-48(fp)

  // Find out which axis is always incremented when drawing the line
  // If it's the horizontal axis
  if (horiz_delta >= vert_delta) {
 84048b4:	e0fff117 	ldw	r3,-60(fp)
 84048b8:	e0bff217 	ldw	r2,-56(fp)
 84048bc:	18803516 	blt	r3,r2,8404994 <vid_draw_sloped_line+0x184>
    int dPr   = vert_delta<<1;
 84048c0:	e0bff217 	ldw	r2,-56(fp)
 84048c4:	1085883a 	add	r2,r2,r2
 84048c8:	e0bff715 	stw	r2,-36(fp)
    int dPru  = dPr - (horiz_delta<<1);
